
Led-Driver.elf:     file format elf32-littlearm

Sections:
Idx Name          Size      VMA       LMA       File off  Algn
  0 .isr_vector   000000c0  08000000  08000000  00001000  2**0
                  CONTENTS, ALLOC, LOAD, READONLY, DATA
  1 .text         00005abc  080000c0  080000c0  000010c0  2**2
                  CONTENTS, ALLOC, LOAD, READONLY, CODE
  2 .rodata       000002d0  08005b7c  08005b7c  00006b7c  2**2
                  CONTENTS, ALLOC, LOAD, READONLY, DATA
  3 .ARM.extab    00000000  08005e4c  08005e4c  00007068  2**0
                  CONTENTS, READONLY
  4 .ARM          00000000  08005e4c  08005e4c  00007068  2**0
                  CONTENTS, READONLY
  5 .preinit_array 00000000  08005e4c  08005e4c  00007068  2**0
                  CONTENTS, ALLOC, LOAD, DATA
  6 .init_array   00000004  08005e4c  08005e4c  00006e4c  2**2
                  CONTENTS, ALLOC, LOAD, READONLY, DATA
  7 .fini_array   00000004  08005e50  08005e50  00006e50  2**2
                  CONTENTS, ALLOC, LOAD, READONLY, DATA
  8 .data         00000068  20000000  08005e54  00007000  2**2
                  CONTENTS, ALLOC, LOAD, DATA
  9 .bss          00000380  20000068  08005ebc  00007068  2**2
                  ALLOC
 10 ._user_heap_stack 00000600  200003e8  08005ebc  000073e8  2**0
                  ALLOC
 11 .ARM.attributes 00000028  00000000  00000000  00007068  2**0
                  CONTENTS, READONLY
 12 .debug_info   00012616  00000000  00000000  00007090  2**0
                  CONTENTS, READONLY, DEBUGGING, OCTETS
 13 .debug_abbrev 000023d2  00000000  00000000  000196a6  2**0
                  CONTENTS, READONLY, DEBUGGING, OCTETS
 14 .debug_aranges 00001100  00000000  00000000  0001ba78  2**3
                  CONTENTS, READONLY, DEBUGGING, OCTETS
 15 .debug_rnglists 00000d67  00000000  00000000  0001cb78  2**0
                  CONTENTS, READONLY, DEBUGGING, OCTETS
 16 .debug_macro  00015620  00000000  00000000  0001d8df  2**0
                  CONTENTS, READONLY, DEBUGGING, OCTETS
 17 .debug_line   000142b2  00000000  00000000  00032eff  2**0
                  CONTENTS, READONLY, DEBUGGING, OCTETS
 18 .debug_str    0008a7ae  00000000  00000000  000471b1  2**0
                  CONTENTS, READONLY, DEBUGGING, OCTETS
 19 .comment      00000043  00000000  00000000  000d195f  2**0
                  CONTENTS, READONLY
 20 .debug_frame  00004438  00000000  00000000  000d19a4  2**2
                  CONTENTS, READONLY, DEBUGGING, OCTETS
 21 .debug_line_str 00000052  00000000  00000000  000d5ddc  2**0
                  CONTENTS, READONLY, DEBUGGING, OCTETS

Disassembly of section .text:

080000c0 <__do_global_dtors_aux>:
 80000c0:	b510      	push	{r4, lr}
 80000c2:	4c06      	ldr	r4, [pc, #24]	@ (80000dc <__do_global_dtors_aux+0x1c>)
 80000c4:	7823      	ldrb	r3, [r4, #0]
 80000c6:	2b00      	cmp	r3, #0
 80000c8:	d107      	bne.n	80000da <__do_global_dtors_aux+0x1a>
 80000ca:	4b05      	ldr	r3, [pc, #20]	@ (80000e0 <__do_global_dtors_aux+0x20>)
 80000cc:	2b00      	cmp	r3, #0
 80000ce:	d002      	beq.n	80000d6 <__do_global_dtors_aux+0x16>
 80000d0:	4804      	ldr	r0, [pc, #16]	@ (80000e4 <__do_global_dtors_aux+0x24>)
 80000d2:	e000      	b.n	80000d6 <__do_global_dtors_aux+0x16>
 80000d4:	bf00      	nop
 80000d6:	2301      	movs	r3, #1
 80000d8:	7023      	strb	r3, [r4, #0]
 80000da:	bd10      	pop	{r4, pc}
 80000dc:	20000068 	.word	0x20000068
 80000e0:	00000000 	.word	0x00000000
 80000e4:	08005b64 	.word	0x08005b64

080000e8 <frame_dummy>:
 80000e8:	4b04      	ldr	r3, [pc, #16]	@ (80000fc <frame_dummy+0x14>)
 80000ea:	b510      	push	{r4, lr}
 80000ec:	2b00      	cmp	r3, #0
 80000ee:	d003      	beq.n	80000f8 <frame_dummy+0x10>
 80000f0:	4903      	ldr	r1, [pc, #12]	@ (8000100 <frame_dummy+0x18>)
 80000f2:	4804      	ldr	r0, [pc, #16]	@ (8000104 <frame_dummy+0x1c>)
 80000f4:	e000      	b.n	80000f8 <frame_dummy+0x10>
 80000f6:	bf00      	nop
 80000f8:	bd10      	pop	{r4, pc}
 80000fa:	46c0      	nop			@ (mov r8, r8)
 80000fc:	00000000 	.word	0x00000000
 8000100:	2000006c 	.word	0x2000006c
 8000104:	08005b64 	.word	0x08005b64

08000108 <strlen>:
 8000108:	2300      	movs	r3, #0
 800010a:	5cc2      	ldrb	r2, [r0, r3]
 800010c:	3301      	adds	r3, #1
 800010e:	2a00      	cmp	r2, #0
 8000110:	d1fb      	bne.n	800010a <strlen+0x2>
 8000112:	1e58      	subs	r0, r3, #1
 8000114:	4770      	bx	lr
	...

08000118 <__gnu_thumb1_case_shi>:
 8000118:	b403      	push	{r0, r1}
 800011a:	4671      	mov	r1, lr
 800011c:	0849      	lsrs	r1, r1, #1
 800011e:	0040      	lsls	r0, r0, #1
 8000120:	0049      	lsls	r1, r1, #1
 8000122:	5e09      	ldrsh	r1, [r1, r0]
 8000124:	0049      	lsls	r1, r1, #1
 8000126:	448e      	add	lr, r1
 8000128:	bc03      	pop	{r0, r1}
 800012a:	4770      	bx	lr

0800012c <__udivsi3>:
 800012c:	2200      	movs	r2, #0
 800012e:	0843      	lsrs	r3, r0, #1
 8000130:	428b      	cmp	r3, r1
 8000132:	d374      	bcc.n	800021e <__udivsi3+0xf2>
 8000134:	0903      	lsrs	r3, r0, #4
 8000136:	428b      	cmp	r3, r1
 8000138:	d35f      	bcc.n	80001fa <__udivsi3+0xce>
 800013a:	0a03      	lsrs	r3, r0, #8
 800013c:	428b      	cmp	r3, r1
 800013e:	d344      	bcc.n	80001ca <__udivsi3+0x9e>
 8000140:	0b03      	lsrs	r3, r0, #12
 8000142:	428b      	cmp	r3, r1
 8000144:	d328      	bcc.n	8000198 <__udivsi3+0x6c>
 8000146:	0c03      	lsrs	r3, r0, #16
 8000148:	428b      	cmp	r3, r1
 800014a:	d30d      	bcc.n	8000168 <__udivsi3+0x3c>
 800014c:	22ff      	movs	r2, #255	@ 0xff
 800014e:	0209      	lsls	r1, r1, #8
 8000150:	ba12      	rev	r2, r2
 8000152:	0c03      	lsrs	r3, r0, #16
 8000154:	428b      	cmp	r3, r1
 8000156:	d302      	bcc.n	800015e <__udivsi3+0x32>
 8000158:	1212      	asrs	r2, r2, #8
 800015a:	0209      	lsls	r1, r1, #8
 800015c:	d065      	beq.n	800022a <__udivsi3+0xfe>
 800015e:	0b03      	lsrs	r3, r0, #12
 8000160:	428b      	cmp	r3, r1
 8000162:	d319      	bcc.n	8000198 <__udivsi3+0x6c>
 8000164:	e000      	b.n	8000168 <__udivsi3+0x3c>
 8000166:	0a09      	lsrs	r1, r1, #8
 8000168:	0bc3      	lsrs	r3, r0, #15
 800016a:	428b      	cmp	r3, r1
 800016c:	d301      	bcc.n	8000172 <__udivsi3+0x46>
 800016e:	03cb      	lsls	r3, r1, #15
 8000170:	1ac0      	subs	r0, r0, r3
 8000172:	4152      	adcs	r2, r2
 8000174:	0b83      	lsrs	r3, r0, #14
 8000176:	428b      	cmp	r3, r1
 8000178:	d301      	bcc.n	800017e <__udivsi3+0x52>
 800017a:	038b      	lsls	r3, r1, #14
 800017c:	1ac0      	subs	r0, r0, r3
 800017e:	4152      	adcs	r2, r2
 8000180:	0b43      	lsrs	r3, r0, #13
 8000182:	428b      	cmp	r3, r1
 8000184:	d301      	bcc.n	800018a <__udivsi3+0x5e>
 8000186:	034b      	lsls	r3, r1, #13
 8000188:	1ac0      	subs	r0, r0, r3
 800018a:	4152      	adcs	r2, r2
 800018c:	0b03      	lsrs	r3, r0, #12
 800018e:	428b      	cmp	r3, r1
 8000190:	d301      	bcc.n	8000196 <__udivsi3+0x6a>
 8000192:	030b      	lsls	r3, r1, #12
 8000194:	1ac0      	subs	r0, r0, r3
 8000196:	4152      	adcs	r2, r2
 8000198:	0ac3      	lsrs	r3, r0, #11
 800019a:	428b      	cmp	r3, r1
 800019c:	d301      	bcc.n	80001a2 <__udivsi3+0x76>
 800019e:	02cb      	lsls	r3, r1, #11
 80001a0:	1ac0      	subs	r0, r0, r3
 80001a2:	4152      	adcs	r2, r2
 80001a4:	0a83      	lsrs	r3, r0, #10
 80001a6:	428b      	cmp	r3, r1
 80001a8:	d301      	bcc.n	80001ae <__udivsi3+0x82>
 80001aa:	028b      	lsls	r3, r1, #10
 80001ac:	1ac0      	subs	r0, r0, r3
 80001ae:	4152      	adcs	r2, r2
 80001b0:	0a43      	lsrs	r3, r0, #9
 80001b2:	428b      	cmp	r3, r1
 80001b4:	d301      	bcc.n	80001ba <__udivsi3+0x8e>
 80001b6:	024b      	lsls	r3, r1, #9
 80001b8:	1ac0      	subs	r0, r0, r3
 80001ba:	4152      	adcs	r2, r2
 80001bc:	0a03      	lsrs	r3, r0, #8
 80001be:	428b      	cmp	r3, r1
 80001c0:	d301      	bcc.n	80001c6 <__udivsi3+0x9a>
 80001c2:	020b      	lsls	r3, r1, #8
 80001c4:	1ac0      	subs	r0, r0, r3
 80001c6:	4152      	adcs	r2, r2
 80001c8:	d2cd      	bcs.n	8000166 <__udivsi3+0x3a>
 80001ca:	09c3      	lsrs	r3, r0, #7
 80001cc:	428b      	cmp	r3, r1
 80001ce:	d301      	bcc.n	80001d4 <__udivsi3+0xa8>
 80001d0:	01cb      	lsls	r3, r1, #7
 80001d2:	1ac0      	subs	r0, r0, r3
 80001d4:	4152      	adcs	r2, r2
 80001d6:	0983      	lsrs	r3, r0, #6
 80001d8:	428b      	cmp	r3, r1
 80001da:	d301      	bcc.n	80001e0 <__udivsi3+0xb4>
 80001dc:	018b      	lsls	r3, r1, #6
 80001de:	1ac0      	subs	r0, r0, r3
 80001e0:	4152      	adcs	r2, r2
 80001e2:	0943      	lsrs	r3, r0, #5
 80001e4:	428b      	cmp	r3, r1
 80001e6:	d301      	bcc.n	80001ec <__udivsi3+0xc0>
 80001e8:	014b      	lsls	r3, r1, #5
 80001ea:	1ac0      	subs	r0, r0, r3
 80001ec:	4152      	adcs	r2, r2
 80001ee:	0903      	lsrs	r3, r0, #4
 80001f0:	428b      	cmp	r3, r1
 80001f2:	d301      	bcc.n	80001f8 <__udivsi3+0xcc>
 80001f4:	010b      	lsls	r3, r1, #4
 80001f6:	1ac0      	subs	r0, r0, r3
 80001f8:	4152      	adcs	r2, r2
 80001fa:	08c3      	lsrs	r3, r0, #3
 80001fc:	428b      	cmp	r3, r1
 80001fe:	d301      	bcc.n	8000204 <__udivsi3+0xd8>
 8000200:	00cb      	lsls	r3, r1, #3
 8000202:	1ac0      	subs	r0, r0, r3
 8000204:	4152      	adcs	r2, r2
 8000206:	0883      	lsrs	r3, r0, #2
 8000208:	428b      	cmp	r3, r1
 800020a:	d301      	bcc.n	8000210 <__udivsi3+0xe4>
 800020c:	008b      	lsls	r3, r1, #2
 800020e:	1ac0      	subs	r0, r0, r3
 8000210:	4152      	adcs	r2, r2
 8000212:	0843      	lsrs	r3, r0, #1
 8000214:	428b      	cmp	r3, r1
 8000216:	d301      	bcc.n	800021c <__udivsi3+0xf0>
 8000218:	004b      	lsls	r3, r1, #1
 800021a:	1ac0      	subs	r0, r0, r3
 800021c:	4152      	adcs	r2, r2
 800021e:	1a41      	subs	r1, r0, r1
 8000220:	d200      	bcs.n	8000224 <__udivsi3+0xf8>
 8000222:	4601      	mov	r1, r0
 8000224:	4152      	adcs	r2, r2
 8000226:	4610      	mov	r0, r2
 8000228:	4770      	bx	lr
 800022a:	e7ff      	b.n	800022c <__udivsi3+0x100>
 800022c:	b501      	push	{r0, lr}
 800022e:	2000      	movs	r0, #0
 8000230:	f000 f8f0 	bl	8000414 <__aeabi_idiv0>
 8000234:	bd02      	pop	{r1, pc}
 8000236:	46c0      	nop			@ (mov r8, r8)

08000238 <__aeabi_uidivmod>:
 8000238:	2900      	cmp	r1, #0
 800023a:	d0f7      	beq.n	800022c <__udivsi3+0x100>
 800023c:	e776      	b.n	800012c <__udivsi3>
 800023e:	4770      	bx	lr

08000240 <__divsi3>:
 8000240:	4603      	mov	r3, r0
 8000242:	430b      	orrs	r3, r1
 8000244:	d47f      	bmi.n	8000346 <__divsi3+0x106>
 8000246:	2200      	movs	r2, #0
 8000248:	0843      	lsrs	r3, r0, #1
 800024a:	428b      	cmp	r3, r1
 800024c:	d374      	bcc.n	8000338 <__divsi3+0xf8>
 800024e:	0903      	lsrs	r3, r0, #4
 8000250:	428b      	cmp	r3, r1
 8000252:	d35f      	bcc.n	8000314 <__divsi3+0xd4>
 8000254:	0a03      	lsrs	r3, r0, #8
 8000256:	428b      	cmp	r3, r1
 8000258:	d344      	bcc.n	80002e4 <__divsi3+0xa4>
 800025a:	0b03      	lsrs	r3, r0, #12
 800025c:	428b      	cmp	r3, r1
 800025e:	d328      	bcc.n	80002b2 <__divsi3+0x72>
 8000260:	0c03      	lsrs	r3, r0, #16
 8000262:	428b      	cmp	r3, r1
 8000264:	d30d      	bcc.n	8000282 <__divsi3+0x42>
 8000266:	22ff      	movs	r2, #255	@ 0xff
 8000268:	0209      	lsls	r1, r1, #8
 800026a:	ba12      	rev	r2, r2
 800026c:	0c03      	lsrs	r3, r0, #16
 800026e:	428b      	cmp	r3, r1
 8000270:	d302      	bcc.n	8000278 <__divsi3+0x38>
 8000272:	1212      	asrs	r2, r2, #8
 8000274:	0209      	lsls	r1, r1, #8
 8000276:	d065      	beq.n	8000344 <__divsi3+0x104>
 8000278:	0b03      	lsrs	r3, r0, #12
 800027a:	428b      	cmp	r3, r1
 800027c:	d319      	bcc.n	80002b2 <__divsi3+0x72>
 800027e:	e000      	b.n	8000282 <__divsi3+0x42>
 8000280:	0a09      	lsrs	r1, r1, #8
 8000282:	0bc3      	lsrs	r3, r0, #15
 8000284:	428b      	cmp	r3, r1
 8000286:	d301      	bcc.n	800028c <__divsi3+0x4c>
 8000288:	03cb      	lsls	r3, r1, #15
 800028a:	1ac0      	subs	r0, r0, r3
 800028c:	4152      	adcs	r2, r2
 800028e:	0b83      	lsrs	r3, r0, #14
 8000290:	428b      	cmp	r3, r1
 8000292:	d301      	bcc.n	8000298 <__divsi3+0x58>
 8000294:	038b      	lsls	r3, r1, #14
 8000296:	1ac0      	subs	r0, r0, r3
 8000298:	4152      	adcs	r2, r2
 800029a:	0b43      	lsrs	r3, r0, #13
 800029c:	428b      	cmp	r3, r1
 800029e:	d301      	bcc.n	80002a4 <__divsi3+0x64>
 80002a0:	034b      	lsls	r3, r1, #13
 80002a2:	1ac0      	subs	r0, r0, r3
 80002a4:	4152      	adcs	r2, r2
 80002a6:	0b03      	lsrs	r3, r0, #12
 80002a8:	428b      	cmp	r3, r1
 80002aa:	d301      	bcc.n	80002b0 <__divsi3+0x70>
 80002ac:	030b      	lsls	r3, r1, #12
 80002ae:	1ac0      	subs	r0, r0, r3
 80002b0:	4152      	adcs	r2, r2
 80002b2:	0ac3      	lsrs	r3, r0, #11
 80002b4:	428b      	cmp	r3, r1
 80002b6:	d301      	bcc.n	80002bc <__divsi3+0x7c>
 80002b8:	02cb      	lsls	r3, r1, #11
 80002ba:	1ac0      	subs	r0, r0, r3
 80002bc:	4152      	adcs	r2, r2
 80002be:	0a83      	lsrs	r3, r0, #10
 80002c0:	428b      	cmp	r3, r1
 80002c2:	d301      	bcc.n	80002c8 <__divsi3+0x88>
 80002c4:	028b      	lsls	r3, r1, #10
 80002c6:	1ac0      	subs	r0, r0, r3
 80002c8:	4152      	adcs	r2, r2
 80002ca:	0a43      	lsrs	r3, r0, #9
 80002cc:	428b      	cmp	r3, r1
 80002ce:	d301      	bcc.n	80002d4 <__divsi3+0x94>
 80002d0:	024b      	lsls	r3, r1, #9
 80002d2:	1ac0      	subs	r0, r0, r3
 80002d4:	4152      	adcs	r2, r2
 80002d6:	0a03      	lsrs	r3, r0, #8
 80002d8:	428b      	cmp	r3, r1
 80002da:	d301      	bcc.n	80002e0 <__divsi3+0xa0>
 80002dc:	020b      	lsls	r3, r1, #8
 80002de:	1ac0      	subs	r0, r0, r3
 80002e0:	4152      	adcs	r2, r2
 80002e2:	d2cd      	bcs.n	8000280 <__divsi3+0x40>
 80002e4:	09c3      	lsrs	r3, r0, #7
 80002e6:	428b      	cmp	r3, r1
 80002e8:	d301      	bcc.n	80002ee <__divsi3+0xae>
 80002ea:	01cb      	lsls	r3, r1, #7
 80002ec:	1ac0      	subs	r0, r0, r3
 80002ee:	4152      	adcs	r2, r2
 80002f0:	0983      	lsrs	r3, r0, #6
 80002f2:	428b      	cmp	r3, r1
 80002f4:	d301      	bcc.n	80002fa <__divsi3+0xba>
 80002f6:	018b      	lsls	r3, r1, #6
 80002f8:	1ac0      	subs	r0, r0, r3
 80002fa:	4152      	adcs	r2, r2
 80002fc:	0943      	lsrs	r3, r0, #5
 80002fe:	428b      	cmp	r3, r1
 8000300:	d301      	bcc.n	8000306 <__divsi3+0xc6>
 8000302:	014b      	lsls	r3, r1, #5
 8000304:	1ac0      	subs	r0, r0, r3
 8000306:	4152      	adcs	r2, r2
 8000308:	0903      	lsrs	r3, r0, #4
 800030a:	428b      	cmp	r3, r1
 800030c:	d301      	bcc.n	8000312 <__divsi3+0xd2>
 800030e:	010b      	lsls	r3, r1, #4
 8000310:	1ac0      	subs	r0, r0, r3
 8000312:	4152      	adcs	r2, r2
 8000314:	08c3      	lsrs	r3, r0, #3
 8000316:	428b      	cmp	r3, r1
 8000318:	d301      	bcc.n	800031e <__divsi3+0xde>
 800031a:	00cb      	lsls	r3, r1, #3
 800031c:	1ac0      	subs	r0, r0, r3
 800031e:	4152      	adcs	r2, r2
 8000320:	0883      	lsrs	r3, r0, #2
 8000322:	428b      	cmp	r3, r1
 8000324:	d301      	bcc.n	800032a <__divsi3+0xea>
 8000326:	008b      	lsls	r3, r1, #2
 8000328:	1ac0      	subs	r0, r0, r3
 800032a:	4152      	adcs	r2, r2
 800032c:	0843      	lsrs	r3, r0, #1
 800032e:	428b      	cmp	r3, r1
 8000330:	d301      	bcc.n	8000336 <__divsi3+0xf6>
 8000332:	004b      	lsls	r3, r1, #1
 8000334:	1ac0      	subs	r0, r0, r3
 8000336:	4152      	adcs	r2, r2
 8000338:	1a41      	subs	r1, r0, r1
 800033a:	d200      	bcs.n	800033e <__divsi3+0xfe>
 800033c:	4601      	mov	r1, r0
 800033e:	4152      	adcs	r2, r2
 8000340:	4610      	mov	r0, r2
 8000342:	4770      	bx	lr
 8000344:	e05d      	b.n	8000402 <__divsi3+0x1c2>
 8000346:	0fca      	lsrs	r2, r1, #31
 8000348:	d000      	beq.n	800034c <__divsi3+0x10c>
 800034a:	4249      	negs	r1, r1
 800034c:	1003      	asrs	r3, r0, #32
 800034e:	d300      	bcc.n	8000352 <__divsi3+0x112>
 8000350:	4240      	negs	r0, r0
 8000352:	4053      	eors	r3, r2
 8000354:	2200      	movs	r2, #0
 8000356:	469c      	mov	ip, r3
 8000358:	0903      	lsrs	r3, r0, #4
 800035a:	428b      	cmp	r3, r1
 800035c:	d32d      	bcc.n	80003ba <__divsi3+0x17a>
 800035e:	0a03      	lsrs	r3, r0, #8
 8000360:	428b      	cmp	r3, r1
 8000362:	d312      	bcc.n	800038a <__divsi3+0x14a>
 8000364:	22fc      	movs	r2, #252	@ 0xfc
 8000366:	0189      	lsls	r1, r1, #6
 8000368:	ba12      	rev	r2, r2
 800036a:	0a03      	lsrs	r3, r0, #8
 800036c:	428b      	cmp	r3, r1
 800036e:	d30c      	bcc.n	800038a <__divsi3+0x14a>
 8000370:	0189      	lsls	r1, r1, #6
 8000372:	1192      	asrs	r2, r2, #6
 8000374:	428b      	cmp	r3, r1
 8000376:	d308      	bcc.n	800038a <__divsi3+0x14a>
 8000378:	0189      	lsls	r1, r1, #6
 800037a:	1192      	asrs	r2, r2, #6
 800037c:	428b      	cmp	r3, r1
 800037e:	d304      	bcc.n	800038a <__divsi3+0x14a>
 8000380:	0189      	lsls	r1, r1, #6
 8000382:	d03a      	beq.n	80003fa <__divsi3+0x1ba>
 8000384:	1192      	asrs	r2, r2, #6
 8000386:	e000      	b.n	800038a <__divsi3+0x14a>
 8000388:	0989      	lsrs	r1, r1, #6
 800038a:	09c3      	lsrs	r3, r0, #7
 800038c:	428b      	cmp	r3, r1
 800038e:	d301      	bcc.n	8000394 <__divsi3+0x154>
 8000390:	01cb      	lsls	r3, r1, #7
 8000392:	1ac0      	subs	r0, r0, r3
 8000394:	4152      	adcs	r2, r2
 8000396:	0983      	lsrs	r3, r0, #6
 8000398:	428b      	cmp	r3, r1
 800039a:	d301      	bcc.n	80003a0 <__divsi3+0x160>
 800039c:	018b      	lsls	r3, r1, #6
 800039e:	1ac0      	subs	r0, r0, r3
 80003a0:	4152      	adcs	r2, r2
 80003a2:	0943      	lsrs	r3, r0, #5
 80003a4:	428b      	cmp	r3, r1
 80003a6:	d301      	bcc.n	80003ac <__divsi3+0x16c>
 80003a8:	014b      	lsls	r3, r1, #5
 80003aa:	1ac0      	subs	r0, r0, r3
 80003ac:	4152      	adcs	r2, r2
 80003ae:	0903      	lsrs	r3, r0, #4
 80003b0:	428b      	cmp	r3, r1
 80003b2:	d301      	bcc.n	80003b8 <__divsi3+0x178>
 80003b4:	010b      	lsls	r3, r1, #4
 80003b6:	1ac0      	subs	r0, r0, r3
 80003b8:	4152      	adcs	r2, r2
 80003ba:	08c3      	lsrs	r3, r0, #3
 80003bc:	428b      	cmp	r3, r1
 80003be:	d301      	bcc.n	80003c4 <__divsi3+0x184>
 80003c0:	00cb      	lsls	r3, r1, #3
 80003c2:	1ac0      	subs	r0, r0, r3
 80003c4:	4152      	adcs	r2, r2
 80003c6:	0883      	lsrs	r3, r0, #2
 80003c8:	428b      	cmp	r3, r1
 80003ca:	d301      	bcc.n	80003d0 <__divsi3+0x190>
 80003cc:	008b      	lsls	r3, r1, #2
 80003ce:	1ac0      	subs	r0, r0, r3
 80003d0:	4152      	adcs	r2, r2
 80003d2:	d2d9      	bcs.n	8000388 <__divsi3+0x148>
 80003d4:	0843      	lsrs	r3, r0, #1
 80003d6:	428b      	cmp	r3, r1
 80003d8:	d301      	bcc.n	80003de <__divsi3+0x19e>
 80003da:	004b      	lsls	r3, r1, #1
 80003dc:	1ac0      	subs	r0, r0, r3
 80003de:	4152      	adcs	r2, r2
 80003e0:	1a41      	subs	r1, r0, r1
 80003e2:	d200      	bcs.n	80003e6 <__divsi3+0x1a6>
 80003e4:	4601      	mov	r1, r0
 80003e6:	4663      	mov	r3, ip
 80003e8:	4152      	adcs	r2, r2
 80003ea:	105b      	asrs	r3, r3, #1
 80003ec:	4610      	mov	r0, r2
 80003ee:	d301      	bcc.n	80003f4 <__divsi3+0x1b4>
 80003f0:	4240      	negs	r0, r0
 80003f2:	2b00      	cmp	r3, #0
 80003f4:	d500      	bpl.n	80003f8 <__divsi3+0x1b8>
 80003f6:	4249      	negs	r1, r1
 80003f8:	4770      	bx	lr
 80003fa:	4663      	mov	r3, ip
 80003fc:	105b      	asrs	r3, r3, #1
 80003fe:	d300      	bcc.n	8000402 <__divsi3+0x1c2>
 8000400:	4240      	negs	r0, r0
 8000402:	b501      	push	{r0, lr}
 8000404:	2000      	movs	r0, #0
 8000406:	f000 f805 	bl	8000414 <__aeabi_idiv0>
 800040a:	bd02      	pop	{r1, pc}

0800040c <__aeabi_idivmod>:
 800040c:	2900      	cmp	r1, #0
 800040e:	d0f8      	beq.n	8000402 <__divsi3+0x1c2>
 8000410:	e716      	b.n	8000240 <__divsi3>
 8000412:	4770      	bx	lr

08000414 <__aeabi_idiv0>:
 8000414:	4770      	bx	lr
 8000416:	46c0      	nop			@ (mov r8, r8)

08000418 <__aeabi_ddiv>:
 8000418:	b5f0      	push	{r4, r5, r6, r7, lr}
 800041a:	46de      	mov	lr, fp
 800041c:	4645      	mov	r5, r8
 800041e:	4657      	mov	r7, sl
 8000420:	464e      	mov	r6, r9
 8000422:	b5e0      	push	{r5, r6, r7, lr}
 8000424:	b087      	sub	sp, #28
 8000426:	9200      	str	r2, [sp, #0]
 8000428:	9301      	str	r3, [sp, #4]
 800042a:	030b      	lsls	r3, r1, #12
 800042c:	0b1b      	lsrs	r3, r3, #12
 800042e:	469b      	mov	fp, r3
 8000430:	0fca      	lsrs	r2, r1, #31
 8000432:	004b      	lsls	r3, r1, #1
 8000434:	0004      	movs	r4, r0
 8000436:	4680      	mov	r8, r0
 8000438:	0d5b      	lsrs	r3, r3, #21
 800043a:	9202      	str	r2, [sp, #8]
 800043c:	d100      	bne.n	8000440 <__aeabi_ddiv+0x28>
 800043e:	e098      	b.n	8000572 <__aeabi_ddiv+0x15a>
 8000440:	4a7c      	ldr	r2, [pc, #496]	@ (8000634 <__aeabi_ddiv+0x21c>)
 8000442:	4293      	cmp	r3, r2
 8000444:	d037      	beq.n	80004b6 <__aeabi_ddiv+0x9e>
 8000446:	4659      	mov	r1, fp
 8000448:	0f42      	lsrs	r2, r0, #29
 800044a:	00c9      	lsls	r1, r1, #3
 800044c:	430a      	orrs	r2, r1
 800044e:	2180      	movs	r1, #128	@ 0x80
 8000450:	0409      	lsls	r1, r1, #16
 8000452:	4311      	orrs	r1, r2
 8000454:	00c2      	lsls	r2, r0, #3
 8000456:	4690      	mov	r8, r2
 8000458:	4a77      	ldr	r2, [pc, #476]	@ (8000638 <__aeabi_ddiv+0x220>)
 800045a:	4689      	mov	r9, r1
 800045c:	4692      	mov	sl, r2
 800045e:	449a      	add	sl, r3
 8000460:	2300      	movs	r3, #0
 8000462:	2400      	movs	r4, #0
 8000464:	9303      	str	r3, [sp, #12]
 8000466:	9e00      	ldr	r6, [sp, #0]
 8000468:	9f01      	ldr	r7, [sp, #4]
 800046a:	033b      	lsls	r3, r7, #12
 800046c:	0b1b      	lsrs	r3, r3, #12
 800046e:	469b      	mov	fp, r3
 8000470:	007b      	lsls	r3, r7, #1
 8000472:	0030      	movs	r0, r6
 8000474:	0d5b      	lsrs	r3, r3, #21
 8000476:	0ffd      	lsrs	r5, r7, #31
 8000478:	2b00      	cmp	r3, #0
 800047a:	d059      	beq.n	8000530 <__aeabi_ddiv+0x118>
 800047c:	4a6d      	ldr	r2, [pc, #436]	@ (8000634 <__aeabi_ddiv+0x21c>)
 800047e:	4293      	cmp	r3, r2
 8000480:	d048      	beq.n	8000514 <__aeabi_ddiv+0xfc>
 8000482:	4659      	mov	r1, fp
 8000484:	0f72      	lsrs	r2, r6, #29
 8000486:	00c9      	lsls	r1, r1, #3
 8000488:	430a      	orrs	r2, r1
 800048a:	2180      	movs	r1, #128	@ 0x80
 800048c:	0409      	lsls	r1, r1, #16
 800048e:	4311      	orrs	r1, r2
 8000490:	468b      	mov	fp, r1
 8000492:	4969      	ldr	r1, [pc, #420]	@ (8000638 <__aeabi_ddiv+0x220>)
 8000494:	00f2      	lsls	r2, r6, #3
 8000496:	468c      	mov	ip, r1
 8000498:	4651      	mov	r1, sl
 800049a:	4463      	add	r3, ip
 800049c:	1acb      	subs	r3, r1, r3
 800049e:	469a      	mov	sl, r3
 80004a0:	2100      	movs	r1, #0
 80004a2:	9e02      	ldr	r6, [sp, #8]
 80004a4:	406e      	eors	r6, r5
 80004a6:	b2f6      	uxtb	r6, r6
 80004a8:	2c0f      	cmp	r4, #15
 80004aa:	d900      	bls.n	80004ae <__aeabi_ddiv+0x96>
 80004ac:	e0ce      	b.n	800064c <__aeabi_ddiv+0x234>
 80004ae:	4b63      	ldr	r3, [pc, #396]	@ (800063c <__aeabi_ddiv+0x224>)
 80004b0:	00a4      	lsls	r4, r4, #2
 80004b2:	591b      	ldr	r3, [r3, r4]
 80004b4:	469f      	mov	pc, r3
 80004b6:	465a      	mov	r2, fp
 80004b8:	4302      	orrs	r2, r0
 80004ba:	4691      	mov	r9, r2
 80004bc:	d000      	beq.n	80004c0 <__aeabi_ddiv+0xa8>
 80004be:	e090      	b.n	80005e2 <__aeabi_ddiv+0x1ca>
 80004c0:	469a      	mov	sl, r3
 80004c2:	2302      	movs	r3, #2
 80004c4:	4690      	mov	r8, r2
 80004c6:	2408      	movs	r4, #8
 80004c8:	9303      	str	r3, [sp, #12]
 80004ca:	e7cc      	b.n	8000466 <__aeabi_ddiv+0x4e>
 80004cc:	46cb      	mov	fp, r9
 80004ce:	4642      	mov	r2, r8
 80004d0:	9d02      	ldr	r5, [sp, #8]
 80004d2:	9903      	ldr	r1, [sp, #12]
 80004d4:	2902      	cmp	r1, #2
 80004d6:	d100      	bne.n	80004da <__aeabi_ddiv+0xc2>
 80004d8:	e1de      	b.n	8000898 <__aeabi_ddiv+0x480>
 80004da:	2903      	cmp	r1, #3
 80004dc:	d100      	bne.n	80004e0 <__aeabi_ddiv+0xc8>
 80004de:	e08d      	b.n	80005fc <__aeabi_ddiv+0x1e4>
 80004e0:	2901      	cmp	r1, #1
 80004e2:	d000      	beq.n	80004e6 <__aeabi_ddiv+0xce>
 80004e4:	e179      	b.n	80007da <__aeabi_ddiv+0x3c2>
 80004e6:	002e      	movs	r6, r5
 80004e8:	2200      	movs	r2, #0
 80004ea:	2300      	movs	r3, #0
 80004ec:	2400      	movs	r4, #0
 80004ee:	4690      	mov	r8, r2
 80004f0:	051b      	lsls	r3, r3, #20
 80004f2:	4323      	orrs	r3, r4
 80004f4:	07f6      	lsls	r6, r6, #31
 80004f6:	4333      	orrs	r3, r6
 80004f8:	4640      	mov	r0, r8
 80004fa:	0019      	movs	r1, r3
 80004fc:	b007      	add	sp, #28
 80004fe:	bcf0      	pop	{r4, r5, r6, r7}
 8000500:	46bb      	mov	fp, r7
 8000502:	46b2      	mov	sl, r6
 8000504:	46a9      	mov	r9, r5
 8000506:	46a0      	mov	r8, r4
 8000508:	bdf0      	pop	{r4, r5, r6, r7, pc}
 800050a:	2200      	movs	r2, #0
 800050c:	2400      	movs	r4, #0
 800050e:	4690      	mov	r8, r2
 8000510:	4b48      	ldr	r3, [pc, #288]	@ (8000634 <__aeabi_ddiv+0x21c>)
 8000512:	e7ed      	b.n	80004f0 <__aeabi_ddiv+0xd8>
 8000514:	465a      	mov	r2, fp
 8000516:	9b00      	ldr	r3, [sp, #0]
 8000518:	431a      	orrs	r2, r3
 800051a:	4b49      	ldr	r3, [pc, #292]	@ (8000640 <__aeabi_ddiv+0x228>)
 800051c:	469c      	mov	ip, r3
 800051e:	44e2      	add	sl, ip
 8000520:	2a00      	cmp	r2, #0
 8000522:	d159      	bne.n	80005d8 <__aeabi_ddiv+0x1c0>
 8000524:	2302      	movs	r3, #2
 8000526:	431c      	orrs	r4, r3
 8000528:	2300      	movs	r3, #0
 800052a:	2102      	movs	r1, #2
 800052c:	469b      	mov	fp, r3
 800052e:	e7b8      	b.n	80004a2 <__aeabi_ddiv+0x8a>
 8000530:	465a      	mov	r2, fp
 8000532:	9b00      	ldr	r3, [sp, #0]
 8000534:	431a      	orrs	r2, r3
 8000536:	d049      	beq.n	80005cc <__aeabi_ddiv+0x1b4>
 8000538:	465b      	mov	r3, fp
 800053a:	2b00      	cmp	r3, #0
 800053c:	d100      	bne.n	8000540 <__aeabi_ddiv+0x128>
 800053e:	e19c      	b.n	800087a <__aeabi_ddiv+0x462>
 8000540:	4658      	mov	r0, fp
 8000542:	f000 fd8b 	bl	800105c <__clzsi2>
 8000546:	0002      	movs	r2, r0
 8000548:	0003      	movs	r3, r0
 800054a:	3a0b      	subs	r2, #11
 800054c:	271d      	movs	r7, #29
 800054e:	9e00      	ldr	r6, [sp, #0]
 8000550:	1aba      	subs	r2, r7, r2
 8000552:	0019      	movs	r1, r3
 8000554:	4658      	mov	r0, fp
 8000556:	40d6      	lsrs	r6, r2
 8000558:	3908      	subs	r1, #8
 800055a:	4088      	lsls	r0, r1
 800055c:	0032      	movs	r2, r6
 800055e:	4302      	orrs	r2, r0
 8000560:	4693      	mov	fp, r2
 8000562:	9a00      	ldr	r2, [sp, #0]
 8000564:	408a      	lsls	r2, r1
 8000566:	4937      	ldr	r1, [pc, #220]	@ (8000644 <__aeabi_ddiv+0x22c>)
 8000568:	4453      	add	r3, sl
 800056a:	468a      	mov	sl, r1
 800056c:	2100      	movs	r1, #0
 800056e:	449a      	add	sl, r3
 8000570:	e797      	b.n	80004a2 <__aeabi_ddiv+0x8a>
 8000572:	465b      	mov	r3, fp
 8000574:	4303      	orrs	r3, r0
 8000576:	4699      	mov	r9, r3
 8000578:	d021      	beq.n	80005be <__aeabi_ddiv+0x1a6>
 800057a:	465b      	mov	r3, fp
 800057c:	2b00      	cmp	r3, #0
 800057e:	d100      	bne.n	8000582 <__aeabi_ddiv+0x16a>
 8000580:	e169      	b.n	8000856 <__aeabi_ddiv+0x43e>
 8000582:	4658      	mov	r0, fp
 8000584:	f000 fd6a 	bl	800105c <__clzsi2>
 8000588:	230b      	movs	r3, #11
 800058a:	425b      	negs	r3, r3
 800058c:	469c      	mov	ip, r3
 800058e:	0002      	movs	r2, r0
 8000590:	4484      	add	ip, r0
 8000592:	4666      	mov	r6, ip
 8000594:	231d      	movs	r3, #29
 8000596:	1b9b      	subs	r3, r3, r6
 8000598:	0026      	movs	r6, r4
 800059a:	0011      	movs	r1, r2
 800059c:	4658      	mov	r0, fp
 800059e:	40de      	lsrs	r6, r3
 80005a0:	3908      	subs	r1, #8
 80005a2:	4088      	lsls	r0, r1
 80005a4:	0033      	movs	r3, r6
 80005a6:	4303      	orrs	r3, r0
 80005a8:	4699      	mov	r9, r3
 80005aa:	0023      	movs	r3, r4
 80005ac:	408b      	lsls	r3, r1
 80005ae:	4698      	mov	r8, r3
 80005b0:	4b25      	ldr	r3, [pc, #148]	@ (8000648 <__aeabi_ddiv+0x230>)
 80005b2:	2400      	movs	r4, #0
 80005b4:	1a9b      	subs	r3, r3, r2
 80005b6:	469a      	mov	sl, r3
 80005b8:	2300      	movs	r3, #0
 80005ba:	9303      	str	r3, [sp, #12]
 80005bc:	e753      	b.n	8000466 <__aeabi_ddiv+0x4e>
 80005be:	2300      	movs	r3, #0
 80005c0:	4698      	mov	r8, r3
 80005c2:	469a      	mov	sl, r3
 80005c4:	3301      	adds	r3, #1
 80005c6:	2404      	movs	r4, #4
 80005c8:	9303      	str	r3, [sp, #12]
 80005ca:	e74c      	b.n	8000466 <__aeabi_ddiv+0x4e>
 80005cc:	2301      	movs	r3, #1
 80005ce:	431c      	orrs	r4, r3
 80005d0:	2300      	movs	r3, #0
 80005d2:	2101      	movs	r1, #1
 80005d4:	469b      	mov	fp, r3
 80005d6:	e764      	b.n	80004a2 <__aeabi_ddiv+0x8a>
 80005d8:	2303      	movs	r3, #3
 80005da:	0032      	movs	r2, r6
 80005dc:	2103      	movs	r1, #3
 80005de:	431c      	orrs	r4, r3
 80005e0:	e75f      	b.n	80004a2 <__aeabi_ddiv+0x8a>
 80005e2:	469a      	mov	sl, r3
 80005e4:	2303      	movs	r3, #3
 80005e6:	46d9      	mov	r9, fp
 80005e8:	240c      	movs	r4, #12
 80005ea:	9303      	str	r3, [sp, #12]
 80005ec:	e73b      	b.n	8000466 <__aeabi_ddiv+0x4e>
 80005ee:	2300      	movs	r3, #0
 80005f0:	2480      	movs	r4, #128	@ 0x80
 80005f2:	4698      	mov	r8, r3
 80005f4:	2600      	movs	r6, #0
 80005f6:	4b0f      	ldr	r3, [pc, #60]	@ (8000634 <__aeabi_ddiv+0x21c>)
 80005f8:	0324      	lsls	r4, r4, #12
 80005fa:	e779      	b.n	80004f0 <__aeabi_ddiv+0xd8>
 80005fc:	2480      	movs	r4, #128	@ 0x80
 80005fe:	465b      	mov	r3, fp
 8000600:	0324      	lsls	r4, r4, #12
 8000602:	431c      	orrs	r4, r3
 8000604:	0324      	lsls	r4, r4, #12
 8000606:	002e      	movs	r6, r5
 8000608:	4690      	mov	r8, r2
 800060a:	4b0a      	ldr	r3, [pc, #40]	@ (8000634 <__aeabi_ddiv+0x21c>)
 800060c:	0b24      	lsrs	r4, r4, #12
 800060e:	e76f      	b.n	80004f0 <__aeabi_ddiv+0xd8>
 8000610:	2480      	movs	r4, #128	@ 0x80
 8000612:	464b      	mov	r3, r9
 8000614:	0324      	lsls	r4, r4, #12
 8000616:	4223      	tst	r3, r4
 8000618:	d002      	beq.n	8000620 <__aeabi_ddiv+0x208>
 800061a:	465b      	mov	r3, fp
 800061c:	4223      	tst	r3, r4
 800061e:	d0f0      	beq.n	8000602 <__aeabi_ddiv+0x1ea>
 8000620:	2480      	movs	r4, #128	@ 0x80
 8000622:	464b      	mov	r3, r9
 8000624:	0324      	lsls	r4, r4, #12
 8000626:	431c      	orrs	r4, r3
 8000628:	0324      	lsls	r4, r4, #12
 800062a:	9e02      	ldr	r6, [sp, #8]
 800062c:	4b01      	ldr	r3, [pc, #4]	@ (8000634 <__aeabi_ddiv+0x21c>)
 800062e:	0b24      	lsrs	r4, r4, #12
 8000630:	e75e      	b.n	80004f0 <__aeabi_ddiv+0xd8>
 8000632:	46c0      	nop			@ (mov r8, r8)
 8000634:	000007ff 	.word	0x000007ff
 8000638:	fffffc01 	.word	0xfffffc01
 800063c:	08005cfc 	.word	0x08005cfc
 8000640:	fffff801 	.word	0xfffff801
 8000644:	000003f3 	.word	0x000003f3
 8000648:	fffffc0d 	.word	0xfffffc0d
 800064c:	45cb      	cmp	fp, r9
 800064e:	d200      	bcs.n	8000652 <__aeabi_ddiv+0x23a>
 8000650:	e0f8      	b.n	8000844 <__aeabi_ddiv+0x42c>
 8000652:	d100      	bne.n	8000656 <__aeabi_ddiv+0x23e>
 8000654:	e0f3      	b.n	800083e <__aeabi_ddiv+0x426>
 8000656:	2301      	movs	r3, #1
 8000658:	425b      	negs	r3, r3
 800065a:	469c      	mov	ip, r3
 800065c:	4644      	mov	r4, r8
 800065e:	4648      	mov	r0, r9
 8000660:	2500      	movs	r5, #0
 8000662:	44e2      	add	sl, ip
 8000664:	465b      	mov	r3, fp
 8000666:	0e17      	lsrs	r7, r2, #24
 8000668:	021b      	lsls	r3, r3, #8
 800066a:	431f      	orrs	r7, r3
 800066c:	0c19      	lsrs	r1, r3, #16
 800066e:	043b      	lsls	r3, r7, #16
 8000670:	0212      	lsls	r2, r2, #8
 8000672:	9700      	str	r7, [sp, #0]
 8000674:	0c1f      	lsrs	r7, r3, #16
 8000676:	4691      	mov	r9, r2
 8000678:	9102      	str	r1, [sp, #8]
 800067a:	9703      	str	r7, [sp, #12]
 800067c:	f7ff fddc 	bl	8000238 <__aeabi_uidivmod>
 8000680:	0002      	movs	r2, r0
 8000682:	437a      	muls	r2, r7
 8000684:	040b      	lsls	r3, r1, #16
 8000686:	0c21      	lsrs	r1, r4, #16
 8000688:	4680      	mov	r8, r0
 800068a:	4319      	orrs	r1, r3
 800068c:	428a      	cmp	r2, r1
 800068e:	d909      	bls.n	80006a4 <__aeabi_ddiv+0x28c>
 8000690:	9f00      	ldr	r7, [sp, #0]
 8000692:	2301      	movs	r3, #1
 8000694:	46bc      	mov	ip, r7
 8000696:	425b      	negs	r3, r3
 8000698:	4461      	add	r1, ip
 800069a:	469c      	mov	ip, r3
 800069c:	44e0      	add	r8, ip
 800069e:	428f      	cmp	r7, r1
 80006a0:	d800      	bhi.n	80006a4 <__aeabi_ddiv+0x28c>
 80006a2:	e15c      	b.n	800095e <__aeabi_ddiv+0x546>
 80006a4:	1a88      	subs	r0, r1, r2
 80006a6:	9902      	ldr	r1, [sp, #8]
 80006a8:	f7ff fdc6 	bl	8000238 <__aeabi_uidivmod>
 80006ac:	9a03      	ldr	r2, [sp, #12]
 80006ae:	0424      	lsls	r4, r4, #16
 80006b0:	4342      	muls	r2, r0
 80006b2:	0409      	lsls	r1, r1, #16
 80006b4:	0c24      	lsrs	r4, r4, #16
 80006b6:	0003      	movs	r3, r0
 80006b8:	430c      	orrs	r4, r1
 80006ba:	42a2      	cmp	r2, r4
 80006bc:	d906      	bls.n	80006cc <__aeabi_ddiv+0x2b4>
 80006be:	9900      	ldr	r1, [sp, #0]
 80006c0:	3b01      	subs	r3, #1
 80006c2:	468c      	mov	ip, r1
 80006c4:	4464      	add	r4, ip
 80006c6:	42a1      	cmp	r1, r4
 80006c8:	d800      	bhi.n	80006cc <__aeabi_ddiv+0x2b4>
 80006ca:	e142      	b.n	8000952 <__aeabi_ddiv+0x53a>
 80006cc:	1aa0      	subs	r0, r4, r2
 80006ce:	4642      	mov	r2, r8
 80006d0:	0412      	lsls	r2, r2, #16
 80006d2:	431a      	orrs	r2, r3
 80006d4:	4693      	mov	fp, r2
 80006d6:	464b      	mov	r3, r9
 80006d8:	4659      	mov	r1, fp
 80006da:	0c1b      	lsrs	r3, r3, #16
 80006dc:	001f      	movs	r7, r3
 80006de:	9304      	str	r3, [sp, #16]
 80006e0:	040b      	lsls	r3, r1, #16
 80006e2:	4649      	mov	r1, r9
 80006e4:	0409      	lsls	r1, r1, #16
 80006e6:	0c09      	lsrs	r1, r1, #16
 80006e8:	000c      	movs	r4, r1
 80006ea:	0c1b      	lsrs	r3, r3, #16
 80006ec:	435c      	muls	r4, r3
 80006ee:	0c12      	lsrs	r2, r2, #16
 80006f0:	437b      	muls	r3, r7
 80006f2:	4688      	mov	r8, r1
 80006f4:	4351      	muls	r1, r2
 80006f6:	437a      	muls	r2, r7
 80006f8:	0c27      	lsrs	r7, r4, #16
 80006fa:	46bc      	mov	ip, r7
 80006fc:	185b      	adds	r3, r3, r1
 80006fe:	4463      	add	r3, ip
 8000700:	4299      	cmp	r1, r3
 8000702:	d903      	bls.n	800070c <__aeabi_ddiv+0x2f4>
 8000704:	2180      	movs	r1, #128	@ 0x80
 8000706:	0249      	lsls	r1, r1, #9
 8000708:	468c      	mov	ip, r1
 800070a:	4462      	add	r2, ip
 800070c:	0c19      	lsrs	r1, r3, #16
 800070e:	0424      	lsls	r4, r4, #16
 8000710:	041b      	lsls	r3, r3, #16
 8000712:	0c24      	lsrs	r4, r4, #16
 8000714:	188a      	adds	r2, r1, r2
 8000716:	191c      	adds	r4, r3, r4
 8000718:	4290      	cmp	r0, r2
 800071a:	d302      	bcc.n	8000722 <__aeabi_ddiv+0x30a>
 800071c:	d116      	bne.n	800074c <__aeabi_ddiv+0x334>
 800071e:	42a5      	cmp	r5, r4
 8000720:	d214      	bcs.n	800074c <__aeabi_ddiv+0x334>
 8000722:	465b      	mov	r3, fp
 8000724:	9f00      	ldr	r7, [sp, #0]
 8000726:	3b01      	subs	r3, #1
 8000728:	444d      	add	r5, r9
 800072a:	9305      	str	r3, [sp, #20]
 800072c:	454d      	cmp	r5, r9
 800072e:	419b      	sbcs	r3, r3
 8000730:	46bc      	mov	ip, r7
 8000732:	425b      	negs	r3, r3
 8000734:	4463      	add	r3, ip
 8000736:	18c0      	adds	r0, r0, r3
 8000738:	4287      	cmp	r7, r0
 800073a:	d300      	bcc.n	800073e <__aeabi_ddiv+0x326>
 800073c:	e102      	b.n	8000944 <__aeabi_ddiv+0x52c>
 800073e:	4282      	cmp	r2, r0
 8000740:	d900      	bls.n	8000744 <__aeabi_ddiv+0x32c>
 8000742:	e129      	b.n	8000998 <__aeabi_ddiv+0x580>
 8000744:	d100      	bne.n	8000748 <__aeabi_ddiv+0x330>
 8000746:	e124      	b.n	8000992 <__aeabi_ddiv+0x57a>
 8000748:	9b05      	ldr	r3, [sp, #20]
 800074a:	469b      	mov	fp, r3
 800074c:	1b2c      	subs	r4, r5, r4
 800074e:	42a5      	cmp	r5, r4
 8000750:	41ad      	sbcs	r5, r5
 8000752:	9b00      	ldr	r3, [sp, #0]
 8000754:	1a80      	subs	r0, r0, r2
 8000756:	426d      	negs	r5, r5
 8000758:	1b40      	subs	r0, r0, r5
 800075a:	4283      	cmp	r3, r0
 800075c:	d100      	bne.n	8000760 <__aeabi_ddiv+0x348>
 800075e:	e10f      	b.n	8000980 <__aeabi_ddiv+0x568>
 8000760:	9902      	ldr	r1, [sp, #8]
 8000762:	f7ff fd69 	bl	8000238 <__aeabi_uidivmod>
 8000766:	9a03      	ldr	r2, [sp, #12]
 8000768:	040b      	lsls	r3, r1, #16
 800076a:	4342      	muls	r2, r0
 800076c:	0c21      	lsrs	r1, r4, #16
 800076e:	0005      	movs	r5, r0
 8000770:	4319      	orrs	r1, r3
 8000772:	428a      	cmp	r2, r1
 8000774:	d900      	bls.n	8000778 <__aeabi_ddiv+0x360>
 8000776:	e0cb      	b.n	8000910 <__aeabi_ddiv+0x4f8>
 8000778:	1a88      	subs	r0, r1, r2
 800077a:	9902      	ldr	r1, [sp, #8]
 800077c:	f7ff fd5c 	bl	8000238 <__aeabi_uidivmod>
 8000780:	9a03      	ldr	r2, [sp, #12]
 8000782:	0424      	lsls	r4, r4, #16
 8000784:	4342      	muls	r2, r0
 8000786:	0409      	lsls	r1, r1, #16
 8000788:	0c24      	lsrs	r4, r4, #16
 800078a:	0003      	movs	r3, r0
 800078c:	430c      	orrs	r4, r1
 800078e:	42a2      	cmp	r2, r4
 8000790:	d900      	bls.n	8000794 <__aeabi_ddiv+0x37c>
 8000792:	e0ca      	b.n	800092a <__aeabi_ddiv+0x512>
 8000794:	4641      	mov	r1, r8
 8000796:	1aa4      	subs	r4, r4, r2
 8000798:	042a      	lsls	r2, r5, #16
 800079a:	431a      	orrs	r2, r3
 800079c:	9f04      	ldr	r7, [sp, #16]
 800079e:	0413      	lsls	r3, r2, #16
 80007a0:	0c1b      	lsrs	r3, r3, #16
 80007a2:	4359      	muls	r1, r3
 80007a4:	4640      	mov	r0, r8
 80007a6:	437b      	muls	r3, r7
 80007a8:	469c      	mov	ip, r3
 80007aa:	0c15      	lsrs	r5, r2, #16
 80007ac:	4368      	muls	r0, r5
 80007ae:	0c0b      	lsrs	r3, r1, #16
 80007b0:	4484      	add	ip, r0
 80007b2:	4463      	add	r3, ip
 80007b4:	437d      	muls	r5, r7
 80007b6:	4298      	cmp	r0, r3
 80007b8:	d903      	bls.n	80007c2 <__aeabi_ddiv+0x3aa>
 80007ba:	2080      	movs	r0, #128	@ 0x80
 80007bc:	0240      	lsls	r0, r0, #9
 80007be:	4684      	mov	ip, r0
 80007c0:	4465      	add	r5, ip
 80007c2:	0c18      	lsrs	r0, r3, #16
 80007c4:	0409      	lsls	r1, r1, #16
 80007c6:	041b      	lsls	r3, r3, #16
 80007c8:	0c09      	lsrs	r1, r1, #16
 80007ca:	1940      	adds	r0, r0, r5
 80007cc:	185b      	adds	r3, r3, r1
 80007ce:	4284      	cmp	r4, r0
 80007d0:	d327      	bcc.n	8000822 <__aeabi_ddiv+0x40a>
 80007d2:	d023      	beq.n	800081c <__aeabi_ddiv+0x404>
 80007d4:	2301      	movs	r3, #1
 80007d6:	0035      	movs	r5, r6
 80007d8:	431a      	orrs	r2, r3
 80007da:	4b94      	ldr	r3, [pc, #592]	@ (8000a2c <__aeabi_ddiv+0x614>)
 80007dc:	4453      	add	r3, sl
 80007de:	2b00      	cmp	r3, #0
 80007e0:	dd60      	ble.n	80008a4 <__aeabi_ddiv+0x48c>
 80007e2:	0751      	lsls	r1, r2, #29
 80007e4:	d000      	beq.n	80007e8 <__aeabi_ddiv+0x3d0>
 80007e6:	e086      	b.n	80008f6 <__aeabi_ddiv+0x4de>
 80007e8:	002e      	movs	r6, r5
 80007ea:	08d1      	lsrs	r1, r2, #3
 80007ec:	465a      	mov	r2, fp
 80007ee:	01d2      	lsls	r2, r2, #7
 80007f0:	d506      	bpl.n	8000800 <__aeabi_ddiv+0x3e8>
 80007f2:	465a      	mov	r2, fp
 80007f4:	4b8e      	ldr	r3, [pc, #568]	@ (8000a30 <__aeabi_ddiv+0x618>)
 80007f6:	401a      	ands	r2, r3
 80007f8:	2380      	movs	r3, #128	@ 0x80
 80007fa:	4693      	mov	fp, r2
 80007fc:	00db      	lsls	r3, r3, #3
 80007fe:	4453      	add	r3, sl
 8000800:	4a8c      	ldr	r2, [pc, #560]	@ (8000a34 <__aeabi_ddiv+0x61c>)
 8000802:	4293      	cmp	r3, r2
 8000804:	dd00      	ble.n	8000808 <__aeabi_ddiv+0x3f0>
 8000806:	e680      	b.n	800050a <__aeabi_ddiv+0xf2>
 8000808:	465a      	mov	r2, fp
 800080a:	0752      	lsls	r2, r2, #29
 800080c:	430a      	orrs	r2, r1
 800080e:	4690      	mov	r8, r2
 8000810:	465a      	mov	r2, fp
 8000812:	055b      	lsls	r3, r3, #21
 8000814:	0254      	lsls	r4, r2, #9
 8000816:	0b24      	lsrs	r4, r4, #12
 8000818:	0d5b      	lsrs	r3, r3, #21
 800081a:	e669      	b.n	80004f0 <__aeabi_ddiv+0xd8>
 800081c:	0035      	movs	r5, r6
 800081e:	2b00      	cmp	r3, #0
 8000820:	d0db      	beq.n	80007da <__aeabi_ddiv+0x3c2>
 8000822:	9d00      	ldr	r5, [sp, #0]
 8000824:	1e51      	subs	r1, r2, #1
 8000826:	46ac      	mov	ip, r5
 8000828:	4464      	add	r4, ip
 800082a:	42ac      	cmp	r4, r5
 800082c:	d200      	bcs.n	8000830 <__aeabi_ddiv+0x418>
 800082e:	e09e      	b.n	800096e <__aeabi_ddiv+0x556>
 8000830:	4284      	cmp	r4, r0
 8000832:	d200      	bcs.n	8000836 <__aeabi_ddiv+0x41e>
 8000834:	e0e1      	b.n	80009fa <__aeabi_ddiv+0x5e2>
 8000836:	d100      	bne.n	800083a <__aeabi_ddiv+0x422>
 8000838:	e0ee      	b.n	8000a18 <__aeabi_ddiv+0x600>
 800083a:	000a      	movs	r2, r1
 800083c:	e7ca      	b.n	80007d4 <__aeabi_ddiv+0x3bc>
 800083e:	4542      	cmp	r2, r8
 8000840:	d900      	bls.n	8000844 <__aeabi_ddiv+0x42c>
 8000842:	e708      	b.n	8000656 <__aeabi_ddiv+0x23e>
 8000844:	464b      	mov	r3, r9
 8000846:	07dc      	lsls	r4, r3, #31
 8000848:	0858      	lsrs	r0, r3, #1
 800084a:	4643      	mov	r3, r8
 800084c:	085b      	lsrs	r3, r3, #1
 800084e:	431c      	orrs	r4, r3
 8000850:	4643      	mov	r3, r8
 8000852:	07dd      	lsls	r5, r3, #31
 8000854:	e706      	b.n	8000664 <__aeabi_ddiv+0x24c>
 8000856:	f000 fc01 	bl	800105c <__clzsi2>
 800085a:	2315      	movs	r3, #21
 800085c:	469c      	mov	ip, r3
 800085e:	4484      	add	ip, r0
 8000860:	0002      	movs	r2, r0
 8000862:	4663      	mov	r3, ip
 8000864:	3220      	adds	r2, #32
 8000866:	2b1c      	cmp	r3, #28
 8000868:	dc00      	bgt.n	800086c <__aeabi_ddiv+0x454>
 800086a:	e692      	b.n	8000592 <__aeabi_ddiv+0x17a>
 800086c:	0023      	movs	r3, r4
 800086e:	3808      	subs	r0, #8
 8000870:	4083      	lsls	r3, r0
 8000872:	4699      	mov	r9, r3
 8000874:	2300      	movs	r3, #0
 8000876:	4698      	mov	r8, r3
 8000878:	e69a      	b.n	80005b0 <__aeabi_ddiv+0x198>
 800087a:	f000 fbef 	bl	800105c <__clzsi2>
 800087e:	0002      	movs	r2, r0
 8000880:	0003      	movs	r3, r0
 8000882:	3215      	adds	r2, #21
 8000884:	3320      	adds	r3, #32
 8000886:	2a1c      	cmp	r2, #28
 8000888:	dc00      	bgt.n	800088c <__aeabi_ddiv+0x474>
 800088a:	e65f      	b.n	800054c <__aeabi_ddiv+0x134>
 800088c:	9900      	ldr	r1, [sp, #0]
 800088e:	3808      	subs	r0, #8
 8000890:	4081      	lsls	r1, r0
 8000892:	2200      	movs	r2, #0
 8000894:	468b      	mov	fp, r1
 8000896:	e666      	b.n	8000566 <__aeabi_ddiv+0x14e>
 8000898:	2200      	movs	r2, #0
 800089a:	002e      	movs	r6, r5
 800089c:	2400      	movs	r4, #0
 800089e:	4690      	mov	r8, r2
 80008a0:	4b65      	ldr	r3, [pc, #404]	@ (8000a38 <__aeabi_ddiv+0x620>)
 80008a2:	e625      	b.n	80004f0 <__aeabi_ddiv+0xd8>
 80008a4:	002e      	movs	r6, r5
 80008a6:	2101      	movs	r1, #1
 80008a8:	1ac9      	subs	r1, r1, r3
 80008aa:	2938      	cmp	r1, #56	@ 0x38
 80008ac:	dd00      	ble.n	80008b0 <__aeabi_ddiv+0x498>
 80008ae:	e61b      	b.n	80004e8 <__aeabi_ddiv+0xd0>
 80008b0:	291f      	cmp	r1, #31
 80008b2:	dc7e      	bgt.n	80009b2 <__aeabi_ddiv+0x59a>
 80008b4:	4861      	ldr	r0, [pc, #388]	@ (8000a3c <__aeabi_ddiv+0x624>)
 80008b6:	0014      	movs	r4, r2
 80008b8:	4450      	add	r0, sl
 80008ba:	465b      	mov	r3, fp
 80008bc:	4082      	lsls	r2, r0
 80008be:	4083      	lsls	r3, r0
 80008c0:	40cc      	lsrs	r4, r1
 80008c2:	1e50      	subs	r0, r2, #1
 80008c4:	4182      	sbcs	r2, r0
 80008c6:	4323      	orrs	r3, r4
 80008c8:	431a      	orrs	r2, r3
 80008ca:	465b      	mov	r3, fp
 80008cc:	40cb      	lsrs	r3, r1
 80008ce:	0751      	lsls	r1, r2, #29
 80008d0:	d009      	beq.n	80008e6 <__aeabi_ddiv+0x4ce>
 80008d2:	210f      	movs	r1, #15
 80008d4:	4011      	ands	r1, r2
 80008d6:	2904      	cmp	r1, #4
 80008d8:	d005      	beq.n	80008e6 <__aeabi_ddiv+0x4ce>
 80008da:	1d11      	adds	r1, r2, #4
 80008dc:	4291      	cmp	r1, r2
 80008de:	4192      	sbcs	r2, r2
 80008e0:	4252      	negs	r2, r2
 80008e2:	189b      	adds	r3, r3, r2
 80008e4:	000a      	movs	r2, r1
 80008e6:	0219      	lsls	r1, r3, #8
 80008e8:	d400      	bmi.n	80008ec <__aeabi_ddiv+0x4d4>
 80008ea:	e09b      	b.n	8000a24 <__aeabi_ddiv+0x60c>
 80008ec:	2200      	movs	r2, #0
 80008ee:	2301      	movs	r3, #1
 80008f0:	2400      	movs	r4, #0
 80008f2:	4690      	mov	r8, r2
 80008f4:	e5fc      	b.n	80004f0 <__aeabi_ddiv+0xd8>
 80008f6:	210f      	movs	r1, #15
 80008f8:	4011      	ands	r1, r2
 80008fa:	2904      	cmp	r1, #4
 80008fc:	d100      	bne.n	8000900 <__aeabi_ddiv+0x4e8>
 80008fe:	e773      	b.n	80007e8 <__aeabi_ddiv+0x3d0>
 8000900:	1d11      	adds	r1, r2, #4
 8000902:	4291      	cmp	r1, r2
 8000904:	4192      	sbcs	r2, r2
 8000906:	4252      	negs	r2, r2
 8000908:	002e      	movs	r6, r5
 800090a:	08c9      	lsrs	r1, r1, #3
 800090c:	4493      	add	fp, r2
 800090e:	e76d      	b.n	80007ec <__aeabi_ddiv+0x3d4>
 8000910:	9b00      	ldr	r3, [sp, #0]
 8000912:	3d01      	subs	r5, #1
 8000914:	469c      	mov	ip, r3
 8000916:	4461      	add	r1, ip
 8000918:	428b      	cmp	r3, r1
 800091a:	d900      	bls.n	800091e <__aeabi_ddiv+0x506>
 800091c:	e72c      	b.n	8000778 <__aeabi_ddiv+0x360>
 800091e:	428a      	cmp	r2, r1
 8000920:	d800      	bhi.n	8000924 <__aeabi_ddiv+0x50c>
 8000922:	e729      	b.n	8000778 <__aeabi_ddiv+0x360>
 8000924:	1e85      	subs	r5, r0, #2
 8000926:	4461      	add	r1, ip
 8000928:	e726      	b.n	8000778 <__aeabi_ddiv+0x360>
 800092a:	9900      	ldr	r1, [sp, #0]
 800092c:	3b01      	subs	r3, #1
 800092e:	468c      	mov	ip, r1
 8000930:	4464      	add	r4, ip
 8000932:	42a1      	cmp	r1, r4
 8000934:	d900      	bls.n	8000938 <__aeabi_ddiv+0x520>
 8000936:	e72d      	b.n	8000794 <__aeabi_ddiv+0x37c>
 8000938:	42a2      	cmp	r2, r4
 800093a:	d800      	bhi.n	800093e <__aeabi_ddiv+0x526>
 800093c:	e72a      	b.n	8000794 <__aeabi_ddiv+0x37c>
 800093e:	1e83      	subs	r3, r0, #2
 8000940:	4464      	add	r4, ip
 8000942:	e727      	b.n	8000794 <__aeabi_ddiv+0x37c>
 8000944:	4287      	cmp	r7, r0
 8000946:	d000      	beq.n	800094a <__aeabi_ddiv+0x532>
 8000948:	e6fe      	b.n	8000748 <__aeabi_ddiv+0x330>
 800094a:	45a9      	cmp	r9, r5
 800094c:	d900      	bls.n	8000950 <__aeabi_ddiv+0x538>
 800094e:	e6fb      	b.n	8000748 <__aeabi_ddiv+0x330>
 8000950:	e6f5      	b.n	800073e <__aeabi_ddiv+0x326>
 8000952:	42a2      	cmp	r2, r4
 8000954:	d800      	bhi.n	8000958 <__aeabi_ddiv+0x540>
 8000956:	e6b9      	b.n	80006cc <__aeabi_ddiv+0x2b4>
 8000958:	1e83      	subs	r3, r0, #2
 800095a:	4464      	add	r4, ip
 800095c:	e6b6      	b.n	80006cc <__aeabi_ddiv+0x2b4>
 800095e:	428a      	cmp	r2, r1
 8000960:	d800      	bhi.n	8000964 <__aeabi_ddiv+0x54c>
 8000962:	e69f      	b.n	80006a4 <__aeabi_ddiv+0x28c>
 8000964:	46bc      	mov	ip, r7
 8000966:	1e83      	subs	r3, r0, #2
 8000968:	4698      	mov	r8, r3
 800096a:	4461      	add	r1, ip
 800096c:	e69a      	b.n	80006a4 <__aeabi_ddiv+0x28c>
 800096e:	000a      	movs	r2, r1
 8000970:	4284      	cmp	r4, r0
 8000972:	d000      	beq.n	8000976 <__aeabi_ddiv+0x55e>
 8000974:	e72e      	b.n	80007d4 <__aeabi_ddiv+0x3bc>
 8000976:	454b      	cmp	r3, r9
 8000978:	d000      	beq.n	800097c <__aeabi_ddiv+0x564>
 800097a:	e72b      	b.n	80007d4 <__aeabi_ddiv+0x3bc>
 800097c:	0035      	movs	r5, r6
 800097e:	e72c      	b.n	80007da <__aeabi_ddiv+0x3c2>
 8000980:	4b2a      	ldr	r3, [pc, #168]	@ (8000a2c <__aeabi_ddiv+0x614>)
 8000982:	4a2f      	ldr	r2, [pc, #188]	@ (8000a40 <__aeabi_ddiv+0x628>)
 8000984:	4453      	add	r3, sl
 8000986:	4592      	cmp	sl, r2
 8000988:	db43      	blt.n	8000a12 <__aeabi_ddiv+0x5fa>
 800098a:	2201      	movs	r2, #1
 800098c:	2100      	movs	r1, #0
 800098e:	4493      	add	fp, r2
 8000990:	e72c      	b.n	80007ec <__aeabi_ddiv+0x3d4>
 8000992:	42ac      	cmp	r4, r5
 8000994:	d800      	bhi.n	8000998 <__aeabi_ddiv+0x580>
 8000996:	e6d7      	b.n	8000748 <__aeabi_ddiv+0x330>
 8000998:	2302      	movs	r3, #2
 800099a:	425b      	negs	r3, r3
 800099c:	469c      	mov	ip, r3
 800099e:	9900      	ldr	r1, [sp, #0]
 80009a0:	444d      	add	r5, r9
 80009a2:	454d      	cmp	r5, r9
 80009a4:	419b      	sbcs	r3, r3
 80009a6:	44e3      	add	fp, ip
 80009a8:	468c      	mov	ip, r1
 80009aa:	425b      	negs	r3, r3
 80009ac:	4463      	add	r3, ip
 80009ae:	18c0      	adds	r0, r0, r3
 80009b0:	e6cc      	b.n	800074c <__aeabi_ddiv+0x334>
 80009b2:	201f      	movs	r0, #31
 80009b4:	4240      	negs	r0, r0
 80009b6:	1ac3      	subs	r3, r0, r3
 80009b8:	4658      	mov	r0, fp
 80009ba:	40d8      	lsrs	r0, r3
 80009bc:	2920      	cmp	r1, #32
 80009be:	d004      	beq.n	80009ca <__aeabi_ddiv+0x5b2>
 80009c0:	4659      	mov	r1, fp
 80009c2:	4b20      	ldr	r3, [pc, #128]	@ (8000a44 <__aeabi_ddiv+0x62c>)
 80009c4:	4453      	add	r3, sl
 80009c6:	4099      	lsls	r1, r3
 80009c8:	430a      	orrs	r2, r1
 80009ca:	1e53      	subs	r3, r2, #1
 80009cc:	419a      	sbcs	r2, r3
 80009ce:	2307      	movs	r3, #7
 80009d0:	0019      	movs	r1, r3
 80009d2:	4302      	orrs	r2, r0
 80009d4:	2400      	movs	r4, #0
 80009d6:	4011      	ands	r1, r2
 80009d8:	4213      	tst	r3, r2
 80009da:	d009      	beq.n	80009f0 <__aeabi_ddiv+0x5d8>
 80009dc:	3308      	adds	r3, #8
 80009de:	4013      	ands	r3, r2
 80009e0:	2b04      	cmp	r3, #4
 80009e2:	d01d      	beq.n	8000a20 <__aeabi_ddiv+0x608>
 80009e4:	1d13      	adds	r3, r2, #4
 80009e6:	4293      	cmp	r3, r2
 80009e8:	4189      	sbcs	r1, r1
 80009ea:	001a      	movs	r2, r3
 80009ec:	4249      	negs	r1, r1
 80009ee:	0749      	lsls	r1, r1, #29
 80009f0:	08d2      	lsrs	r2, r2, #3
 80009f2:	430a      	orrs	r2, r1
 80009f4:	4690      	mov	r8, r2
 80009f6:	2300      	movs	r3, #0
 80009f8:	e57a      	b.n	80004f0 <__aeabi_ddiv+0xd8>
 80009fa:	4649      	mov	r1, r9
 80009fc:	9f00      	ldr	r7, [sp, #0]
 80009fe:	004d      	lsls	r5, r1, #1
 8000a00:	454d      	cmp	r5, r9
 8000a02:	4189      	sbcs	r1, r1
 8000a04:	46bc      	mov	ip, r7
 8000a06:	4249      	negs	r1, r1
 8000a08:	4461      	add	r1, ip
 8000a0a:	46a9      	mov	r9, r5
 8000a0c:	3a02      	subs	r2, #2
 8000a0e:	1864      	adds	r4, r4, r1
 8000a10:	e7ae      	b.n	8000970 <__aeabi_ddiv+0x558>
 8000a12:	2201      	movs	r2, #1
 8000a14:	4252      	negs	r2, r2
 8000a16:	e746      	b.n	80008a6 <__aeabi_ddiv+0x48e>
 8000a18:	4599      	cmp	r9, r3
 8000a1a:	d3ee      	bcc.n	80009fa <__aeabi_ddiv+0x5e2>
 8000a1c:	000a      	movs	r2, r1
 8000a1e:	e7aa      	b.n	8000976 <__aeabi_ddiv+0x55e>
 8000a20:	2100      	movs	r1, #0
 8000a22:	e7e5      	b.n	80009f0 <__aeabi_ddiv+0x5d8>
 8000a24:	0759      	lsls	r1, r3, #29
 8000a26:	025b      	lsls	r3, r3, #9
 8000a28:	0b1c      	lsrs	r4, r3, #12
 8000a2a:	e7e1      	b.n	80009f0 <__aeabi_ddiv+0x5d8>
 8000a2c:	000003ff 	.word	0x000003ff
 8000a30:	feffffff 	.word	0xfeffffff
 8000a34:	000007fe 	.word	0x000007fe
 8000a38:	000007ff 	.word	0x000007ff
 8000a3c:	0000041e 	.word	0x0000041e
 8000a40:	fffffc02 	.word	0xfffffc02
 8000a44:	0000043e 	.word	0x0000043e

08000a48 <__aeabi_dmul>:
 8000a48:	b5f0      	push	{r4, r5, r6, r7, lr}
 8000a4a:	4657      	mov	r7, sl
 8000a4c:	464e      	mov	r6, r9
 8000a4e:	46de      	mov	lr, fp
 8000a50:	4645      	mov	r5, r8
 8000a52:	b5e0      	push	{r5, r6, r7, lr}
 8000a54:	001f      	movs	r7, r3
 8000a56:	030b      	lsls	r3, r1, #12
 8000a58:	0b1b      	lsrs	r3, r3, #12
 8000a5a:	0016      	movs	r6, r2
 8000a5c:	469a      	mov	sl, r3
 8000a5e:	0fca      	lsrs	r2, r1, #31
 8000a60:	004b      	lsls	r3, r1, #1
 8000a62:	0004      	movs	r4, r0
 8000a64:	4691      	mov	r9, r2
 8000a66:	b085      	sub	sp, #20
 8000a68:	0d5b      	lsrs	r3, r3, #21
 8000a6a:	d100      	bne.n	8000a6e <__aeabi_dmul+0x26>
 8000a6c:	e1cf      	b.n	8000e0e <__aeabi_dmul+0x3c6>
 8000a6e:	4acd      	ldr	r2, [pc, #820]	@ (8000da4 <__aeabi_dmul+0x35c>)
 8000a70:	4293      	cmp	r3, r2
 8000a72:	d055      	beq.n	8000b20 <__aeabi_dmul+0xd8>
 8000a74:	4651      	mov	r1, sl
 8000a76:	0f42      	lsrs	r2, r0, #29
 8000a78:	00c9      	lsls	r1, r1, #3
 8000a7a:	430a      	orrs	r2, r1
 8000a7c:	2180      	movs	r1, #128	@ 0x80
 8000a7e:	0409      	lsls	r1, r1, #16
 8000a80:	4311      	orrs	r1, r2
 8000a82:	00c2      	lsls	r2, r0, #3
 8000a84:	4690      	mov	r8, r2
 8000a86:	4ac8      	ldr	r2, [pc, #800]	@ (8000da8 <__aeabi_dmul+0x360>)
 8000a88:	468a      	mov	sl, r1
 8000a8a:	4693      	mov	fp, r2
 8000a8c:	449b      	add	fp, r3
 8000a8e:	2300      	movs	r3, #0
 8000a90:	2500      	movs	r5, #0
 8000a92:	9302      	str	r3, [sp, #8]
 8000a94:	033c      	lsls	r4, r7, #12
 8000a96:	007b      	lsls	r3, r7, #1
 8000a98:	0ffa      	lsrs	r2, r7, #31
 8000a9a:	9601      	str	r6, [sp, #4]
 8000a9c:	0b24      	lsrs	r4, r4, #12
 8000a9e:	0d5b      	lsrs	r3, r3, #21
 8000aa0:	9200      	str	r2, [sp, #0]
 8000aa2:	d100      	bne.n	8000aa6 <__aeabi_dmul+0x5e>
 8000aa4:	e188      	b.n	8000db8 <__aeabi_dmul+0x370>
 8000aa6:	4abf      	ldr	r2, [pc, #764]	@ (8000da4 <__aeabi_dmul+0x35c>)
 8000aa8:	4293      	cmp	r3, r2
 8000aaa:	d100      	bne.n	8000aae <__aeabi_dmul+0x66>
 8000aac:	e092      	b.n	8000bd4 <__aeabi_dmul+0x18c>
 8000aae:	4abe      	ldr	r2, [pc, #760]	@ (8000da8 <__aeabi_dmul+0x360>)
 8000ab0:	4694      	mov	ip, r2
 8000ab2:	4463      	add	r3, ip
 8000ab4:	449b      	add	fp, r3
 8000ab6:	2d0a      	cmp	r5, #10
 8000ab8:	dc42      	bgt.n	8000b40 <__aeabi_dmul+0xf8>
 8000aba:	00e4      	lsls	r4, r4, #3
 8000abc:	0f73      	lsrs	r3, r6, #29
 8000abe:	4323      	orrs	r3, r4
 8000ac0:	2480      	movs	r4, #128	@ 0x80
 8000ac2:	4649      	mov	r1, r9
 8000ac4:	0424      	lsls	r4, r4, #16
 8000ac6:	431c      	orrs	r4, r3
 8000ac8:	00f3      	lsls	r3, r6, #3
 8000aca:	9301      	str	r3, [sp, #4]
 8000acc:	9b00      	ldr	r3, [sp, #0]
 8000ace:	2000      	movs	r0, #0
 8000ad0:	4059      	eors	r1, r3
 8000ad2:	b2cb      	uxtb	r3, r1
 8000ad4:	9303      	str	r3, [sp, #12]
 8000ad6:	2d02      	cmp	r5, #2
 8000ad8:	dc00      	bgt.n	8000adc <__aeabi_dmul+0x94>
 8000ada:	e094      	b.n	8000c06 <__aeabi_dmul+0x1be>
 8000adc:	2301      	movs	r3, #1
 8000ade:	40ab      	lsls	r3, r5
 8000ae0:	001d      	movs	r5, r3
 8000ae2:	23a6      	movs	r3, #166	@ 0xa6
 8000ae4:	002a      	movs	r2, r5
 8000ae6:	00db      	lsls	r3, r3, #3
 8000ae8:	401a      	ands	r2, r3
 8000aea:	421d      	tst	r5, r3
 8000aec:	d000      	beq.n	8000af0 <__aeabi_dmul+0xa8>
 8000aee:	e229      	b.n	8000f44 <__aeabi_dmul+0x4fc>
 8000af0:	2390      	movs	r3, #144	@ 0x90
 8000af2:	009b      	lsls	r3, r3, #2
 8000af4:	421d      	tst	r5, r3
 8000af6:	d100      	bne.n	8000afa <__aeabi_dmul+0xb2>
 8000af8:	e24d      	b.n	8000f96 <__aeabi_dmul+0x54e>
 8000afa:	2300      	movs	r3, #0
 8000afc:	2480      	movs	r4, #128	@ 0x80
 8000afe:	4699      	mov	r9, r3
 8000b00:	0324      	lsls	r4, r4, #12
 8000b02:	4ba8      	ldr	r3, [pc, #672]	@ (8000da4 <__aeabi_dmul+0x35c>)
 8000b04:	0010      	movs	r0, r2
 8000b06:	464a      	mov	r2, r9
 8000b08:	051b      	lsls	r3, r3, #20
 8000b0a:	4323      	orrs	r3, r4
 8000b0c:	07d2      	lsls	r2, r2, #31
 8000b0e:	4313      	orrs	r3, r2
 8000b10:	0019      	movs	r1, r3
 8000b12:	b005      	add	sp, #20
 8000b14:	bcf0      	pop	{r4, r5, r6, r7}
 8000b16:	46bb      	mov	fp, r7
 8000b18:	46b2      	mov	sl, r6
 8000b1a:	46a9      	mov	r9, r5
 8000b1c:	46a0      	mov	r8, r4
 8000b1e:	bdf0      	pop	{r4, r5, r6, r7, pc}
 8000b20:	4652      	mov	r2, sl
 8000b22:	4302      	orrs	r2, r0
 8000b24:	4690      	mov	r8, r2
 8000b26:	d000      	beq.n	8000b2a <__aeabi_dmul+0xe2>
 8000b28:	e1ac      	b.n	8000e84 <__aeabi_dmul+0x43c>
 8000b2a:	469b      	mov	fp, r3
 8000b2c:	2302      	movs	r3, #2
 8000b2e:	4692      	mov	sl, r2
 8000b30:	2508      	movs	r5, #8
 8000b32:	9302      	str	r3, [sp, #8]
 8000b34:	e7ae      	b.n	8000a94 <__aeabi_dmul+0x4c>
 8000b36:	9b00      	ldr	r3, [sp, #0]
 8000b38:	46a2      	mov	sl, r4
 8000b3a:	4699      	mov	r9, r3
 8000b3c:	9b01      	ldr	r3, [sp, #4]
 8000b3e:	4698      	mov	r8, r3
 8000b40:	9b02      	ldr	r3, [sp, #8]
 8000b42:	2b02      	cmp	r3, #2
 8000b44:	d100      	bne.n	8000b48 <__aeabi_dmul+0x100>
 8000b46:	e1ca      	b.n	8000ede <__aeabi_dmul+0x496>
 8000b48:	2b03      	cmp	r3, #3
 8000b4a:	d100      	bne.n	8000b4e <__aeabi_dmul+0x106>
 8000b4c:	e192      	b.n	8000e74 <__aeabi_dmul+0x42c>
 8000b4e:	2b01      	cmp	r3, #1
 8000b50:	d110      	bne.n	8000b74 <__aeabi_dmul+0x12c>
 8000b52:	2300      	movs	r3, #0
 8000b54:	2400      	movs	r4, #0
 8000b56:	2200      	movs	r2, #0
 8000b58:	e7d4      	b.n	8000b04 <__aeabi_dmul+0xbc>
 8000b5a:	2201      	movs	r2, #1
 8000b5c:	087b      	lsrs	r3, r7, #1
 8000b5e:	403a      	ands	r2, r7
 8000b60:	4313      	orrs	r3, r2
 8000b62:	4652      	mov	r2, sl
 8000b64:	07d2      	lsls	r2, r2, #31
 8000b66:	4313      	orrs	r3, r2
 8000b68:	4698      	mov	r8, r3
 8000b6a:	4653      	mov	r3, sl
 8000b6c:	085b      	lsrs	r3, r3, #1
 8000b6e:	469a      	mov	sl, r3
 8000b70:	9b03      	ldr	r3, [sp, #12]
 8000b72:	4699      	mov	r9, r3
 8000b74:	465b      	mov	r3, fp
 8000b76:	1c58      	adds	r0, r3, #1
 8000b78:	2380      	movs	r3, #128	@ 0x80
 8000b7a:	00db      	lsls	r3, r3, #3
 8000b7c:	445b      	add	r3, fp
 8000b7e:	2b00      	cmp	r3, #0
 8000b80:	dc00      	bgt.n	8000b84 <__aeabi_dmul+0x13c>
 8000b82:	e1b1      	b.n	8000ee8 <__aeabi_dmul+0x4a0>
 8000b84:	4642      	mov	r2, r8
 8000b86:	0752      	lsls	r2, r2, #29
 8000b88:	d00b      	beq.n	8000ba2 <__aeabi_dmul+0x15a>
 8000b8a:	220f      	movs	r2, #15
 8000b8c:	4641      	mov	r1, r8
 8000b8e:	400a      	ands	r2, r1
 8000b90:	2a04      	cmp	r2, #4
 8000b92:	d006      	beq.n	8000ba2 <__aeabi_dmul+0x15a>
 8000b94:	4642      	mov	r2, r8
 8000b96:	1d11      	adds	r1, r2, #4
 8000b98:	4541      	cmp	r1, r8
 8000b9a:	4192      	sbcs	r2, r2
 8000b9c:	4688      	mov	r8, r1
 8000b9e:	4252      	negs	r2, r2
 8000ba0:	4492      	add	sl, r2
 8000ba2:	4652      	mov	r2, sl
 8000ba4:	01d2      	lsls	r2, r2, #7
 8000ba6:	d506      	bpl.n	8000bb6 <__aeabi_dmul+0x16e>
 8000ba8:	4652      	mov	r2, sl
 8000baa:	4b80      	ldr	r3, [pc, #512]	@ (8000dac <__aeabi_dmul+0x364>)
 8000bac:	401a      	ands	r2, r3
 8000bae:	2380      	movs	r3, #128	@ 0x80
 8000bb0:	4692      	mov	sl, r2
 8000bb2:	00db      	lsls	r3, r3, #3
 8000bb4:	18c3      	adds	r3, r0, r3
 8000bb6:	4a7e      	ldr	r2, [pc, #504]	@ (8000db0 <__aeabi_dmul+0x368>)
 8000bb8:	4293      	cmp	r3, r2
 8000bba:	dd00      	ble.n	8000bbe <__aeabi_dmul+0x176>
 8000bbc:	e18f      	b.n	8000ede <__aeabi_dmul+0x496>
 8000bbe:	4642      	mov	r2, r8
 8000bc0:	08d1      	lsrs	r1, r2, #3
 8000bc2:	4652      	mov	r2, sl
 8000bc4:	0752      	lsls	r2, r2, #29
 8000bc6:	430a      	orrs	r2, r1
 8000bc8:	4651      	mov	r1, sl
 8000bca:	055b      	lsls	r3, r3, #21
 8000bcc:	024c      	lsls	r4, r1, #9
 8000bce:	0b24      	lsrs	r4, r4, #12
 8000bd0:	0d5b      	lsrs	r3, r3, #21
 8000bd2:	e797      	b.n	8000b04 <__aeabi_dmul+0xbc>
 8000bd4:	4b73      	ldr	r3, [pc, #460]	@ (8000da4 <__aeabi_dmul+0x35c>)
 8000bd6:	4326      	orrs	r6, r4
 8000bd8:	469c      	mov	ip, r3
 8000bda:	44e3      	add	fp, ip
 8000bdc:	2e00      	cmp	r6, #0
 8000bde:	d100      	bne.n	8000be2 <__aeabi_dmul+0x19a>
 8000be0:	e16f      	b.n	8000ec2 <__aeabi_dmul+0x47a>
 8000be2:	2303      	movs	r3, #3
 8000be4:	4649      	mov	r1, r9
 8000be6:	431d      	orrs	r5, r3
 8000be8:	9b00      	ldr	r3, [sp, #0]
 8000bea:	4059      	eors	r1, r3
 8000bec:	b2cb      	uxtb	r3, r1
 8000bee:	9303      	str	r3, [sp, #12]
 8000bf0:	2d0a      	cmp	r5, #10
 8000bf2:	dd00      	ble.n	8000bf6 <__aeabi_dmul+0x1ae>
 8000bf4:	e133      	b.n	8000e5e <__aeabi_dmul+0x416>
 8000bf6:	2301      	movs	r3, #1
 8000bf8:	40ab      	lsls	r3, r5
 8000bfa:	001d      	movs	r5, r3
 8000bfc:	2303      	movs	r3, #3
 8000bfe:	9302      	str	r3, [sp, #8]
 8000c00:	2288      	movs	r2, #136	@ 0x88
 8000c02:	422a      	tst	r2, r5
 8000c04:	d197      	bne.n	8000b36 <__aeabi_dmul+0xee>
 8000c06:	4642      	mov	r2, r8
 8000c08:	4643      	mov	r3, r8
 8000c0a:	0412      	lsls	r2, r2, #16
 8000c0c:	0c12      	lsrs	r2, r2, #16
 8000c0e:	0016      	movs	r6, r2
 8000c10:	9801      	ldr	r0, [sp, #4]
 8000c12:	0c1d      	lsrs	r5, r3, #16
 8000c14:	0c03      	lsrs	r3, r0, #16
 8000c16:	0400      	lsls	r0, r0, #16
 8000c18:	0c00      	lsrs	r0, r0, #16
 8000c1a:	4346      	muls	r6, r0
 8000c1c:	46b4      	mov	ip, r6
 8000c1e:	001e      	movs	r6, r3
 8000c20:	436e      	muls	r6, r5
 8000c22:	9600      	str	r6, [sp, #0]
 8000c24:	0016      	movs	r6, r2
 8000c26:	0007      	movs	r7, r0
 8000c28:	435e      	muls	r6, r3
 8000c2a:	4661      	mov	r1, ip
 8000c2c:	46b0      	mov	r8, r6
 8000c2e:	436f      	muls	r7, r5
 8000c30:	0c0e      	lsrs	r6, r1, #16
 8000c32:	44b8      	add	r8, r7
 8000c34:	4446      	add	r6, r8
 8000c36:	42b7      	cmp	r7, r6
 8000c38:	d905      	bls.n	8000c46 <__aeabi_dmul+0x1fe>
 8000c3a:	2180      	movs	r1, #128	@ 0x80
 8000c3c:	0249      	lsls	r1, r1, #9
 8000c3e:	4688      	mov	r8, r1
 8000c40:	9f00      	ldr	r7, [sp, #0]
 8000c42:	4447      	add	r7, r8
 8000c44:	9700      	str	r7, [sp, #0]
 8000c46:	4661      	mov	r1, ip
 8000c48:	0409      	lsls	r1, r1, #16
 8000c4a:	0c09      	lsrs	r1, r1, #16
 8000c4c:	0c37      	lsrs	r7, r6, #16
 8000c4e:	0436      	lsls	r6, r6, #16
 8000c50:	468c      	mov	ip, r1
 8000c52:	0031      	movs	r1, r6
 8000c54:	4461      	add	r1, ip
 8000c56:	9101      	str	r1, [sp, #4]
 8000c58:	0011      	movs	r1, r2
 8000c5a:	0c26      	lsrs	r6, r4, #16
 8000c5c:	0424      	lsls	r4, r4, #16
 8000c5e:	0c24      	lsrs	r4, r4, #16
 8000c60:	4361      	muls	r1, r4
 8000c62:	468c      	mov	ip, r1
 8000c64:	0021      	movs	r1, r4
 8000c66:	4369      	muls	r1, r5
 8000c68:	4689      	mov	r9, r1
 8000c6a:	4661      	mov	r1, ip
 8000c6c:	0c09      	lsrs	r1, r1, #16
 8000c6e:	4688      	mov	r8, r1
 8000c70:	4372      	muls	r2, r6
 8000c72:	444a      	add	r2, r9
 8000c74:	4442      	add	r2, r8
 8000c76:	4375      	muls	r5, r6
 8000c78:	4591      	cmp	r9, r2
 8000c7a:	d903      	bls.n	8000c84 <__aeabi_dmul+0x23c>
 8000c7c:	2180      	movs	r1, #128	@ 0x80
 8000c7e:	0249      	lsls	r1, r1, #9
 8000c80:	4688      	mov	r8, r1
 8000c82:	4445      	add	r5, r8
 8000c84:	0c11      	lsrs	r1, r2, #16
 8000c86:	4688      	mov	r8, r1
 8000c88:	4661      	mov	r1, ip
 8000c8a:	0409      	lsls	r1, r1, #16
 8000c8c:	0c09      	lsrs	r1, r1, #16
 8000c8e:	468c      	mov	ip, r1
 8000c90:	0412      	lsls	r2, r2, #16
 8000c92:	4462      	add	r2, ip
 8000c94:	18b9      	adds	r1, r7, r2
 8000c96:	9102      	str	r1, [sp, #8]
 8000c98:	4651      	mov	r1, sl
 8000c9a:	0c09      	lsrs	r1, r1, #16
 8000c9c:	468c      	mov	ip, r1
 8000c9e:	4651      	mov	r1, sl
 8000ca0:	040f      	lsls	r7, r1, #16
 8000ca2:	0c3f      	lsrs	r7, r7, #16
 8000ca4:	0039      	movs	r1, r7
 8000ca6:	4341      	muls	r1, r0
 8000ca8:	4445      	add	r5, r8
 8000caa:	4688      	mov	r8, r1
 8000cac:	4661      	mov	r1, ip
 8000cae:	4341      	muls	r1, r0
 8000cb0:	468a      	mov	sl, r1
 8000cb2:	4641      	mov	r1, r8
 8000cb4:	4660      	mov	r0, ip
 8000cb6:	0c09      	lsrs	r1, r1, #16
 8000cb8:	4689      	mov	r9, r1
 8000cba:	4358      	muls	r0, r3
 8000cbc:	437b      	muls	r3, r7
 8000cbe:	4453      	add	r3, sl
 8000cc0:	444b      	add	r3, r9
 8000cc2:	459a      	cmp	sl, r3
 8000cc4:	d903      	bls.n	8000cce <__aeabi_dmul+0x286>
 8000cc6:	2180      	movs	r1, #128	@ 0x80
 8000cc8:	0249      	lsls	r1, r1, #9
 8000cca:	4689      	mov	r9, r1
 8000ccc:	4448      	add	r0, r9
 8000cce:	0c19      	lsrs	r1, r3, #16
 8000cd0:	4689      	mov	r9, r1
 8000cd2:	4641      	mov	r1, r8
 8000cd4:	0409      	lsls	r1, r1, #16
 8000cd6:	0c09      	lsrs	r1, r1, #16
 8000cd8:	4688      	mov	r8, r1
 8000cda:	0039      	movs	r1, r7
 8000cdc:	4361      	muls	r1, r4
 8000cde:	041b      	lsls	r3, r3, #16
 8000ce0:	4443      	add	r3, r8
 8000ce2:	4688      	mov	r8, r1
 8000ce4:	4661      	mov	r1, ip
 8000ce6:	434c      	muls	r4, r1
 8000ce8:	4371      	muls	r1, r6
 8000cea:	468c      	mov	ip, r1
 8000cec:	4641      	mov	r1, r8
 8000cee:	4377      	muls	r7, r6
 8000cf0:	0c0e      	lsrs	r6, r1, #16
 8000cf2:	193f      	adds	r7, r7, r4
 8000cf4:	19f6      	adds	r6, r6, r7
 8000cf6:	4448      	add	r0, r9
 8000cf8:	42b4      	cmp	r4, r6
 8000cfa:	d903      	bls.n	8000d04 <__aeabi_dmul+0x2bc>
 8000cfc:	2180      	movs	r1, #128	@ 0x80
 8000cfe:	0249      	lsls	r1, r1, #9
 8000d00:	4689      	mov	r9, r1
 8000d02:	44cc      	add	ip, r9
 8000d04:	9902      	ldr	r1, [sp, #8]
 8000d06:	9f00      	ldr	r7, [sp, #0]
 8000d08:	4689      	mov	r9, r1
 8000d0a:	0431      	lsls	r1, r6, #16
 8000d0c:	444f      	add	r7, r9
 8000d0e:	4689      	mov	r9, r1
 8000d10:	4641      	mov	r1, r8
 8000d12:	4297      	cmp	r7, r2
 8000d14:	4192      	sbcs	r2, r2
 8000d16:	040c      	lsls	r4, r1, #16
 8000d18:	0c24      	lsrs	r4, r4, #16
 8000d1a:	444c      	add	r4, r9
 8000d1c:	18ff      	adds	r7, r7, r3
 8000d1e:	4252      	negs	r2, r2
 8000d20:	1964      	adds	r4, r4, r5
 8000d22:	18a1      	adds	r1, r4, r2
 8000d24:	429f      	cmp	r7, r3
 8000d26:	419b      	sbcs	r3, r3
 8000d28:	4688      	mov	r8, r1
 8000d2a:	4682      	mov	sl, r0
 8000d2c:	425b      	negs	r3, r3
 8000d2e:	4699      	mov	r9, r3
 8000d30:	4590      	cmp	r8, r2
 8000d32:	4192      	sbcs	r2, r2
 8000d34:	42ac      	cmp	r4, r5
 8000d36:	41a4      	sbcs	r4, r4
 8000d38:	44c2      	add	sl, r8
 8000d3a:	44d1      	add	r9, sl
 8000d3c:	4252      	negs	r2, r2
 8000d3e:	4264      	negs	r4, r4
 8000d40:	4314      	orrs	r4, r2
 8000d42:	4599      	cmp	r9, r3
 8000d44:	419b      	sbcs	r3, r3
 8000d46:	4582      	cmp	sl, r0
 8000d48:	4192      	sbcs	r2, r2
 8000d4a:	425b      	negs	r3, r3
 8000d4c:	4252      	negs	r2, r2
 8000d4e:	4313      	orrs	r3, r2
 8000d50:	464a      	mov	r2, r9
 8000d52:	0c36      	lsrs	r6, r6, #16
 8000d54:	19a4      	adds	r4, r4, r6
 8000d56:	18e3      	adds	r3, r4, r3
 8000d58:	4463      	add	r3, ip
 8000d5a:	025b      	lsls	r3, r3, #9
 8000d5c:	0dd2      	lsrs	r2, r2, #23
 8000d5e:	431a      	orrs	r2, r3
 8000d60:	9901      	ldr	r1, [sp, #4]
 8000d62:	4692      	mov	sl, r2
 8000d64:	027a      	lsls	r2, r7, #9
 8000d66:	430a      	orrs	r2, r1
 8000d68:	1e50      	subs	r0, r2, #1
 8000d6a:	4182      	sbcs	r2, r0
 8000d6c:	0dff      	lsrs	r7, r7, #23
 8000d6e:	4317      	orrs	r7, r2
 8000d70:	464a      	mov	r2, r9
 8000d72:	0252      	lsls	r2, r2, #9
 8000d74:	4317      	orrs	r7, r2
 8000d76:	46b8      	mov	r8, r7
 8000d78:	01db      	lsls	r3, r3, #7
 8000d7a:	d500      	bpl.n	8000d7e <__aeabi_dmul+0x336>
 8000d7c:	e6ed      	b.n	8000b5a <__aeabi_dmul+0x112>
 8000d7e:	4b0d      	ldr	r3, [pc, #52]	@ (8000db4 <__aeabi_dmul+0x36c>)
 8000d80:	9a03      	ldr	r2, [sp, #12]
 8000d82:	445b      	add	r3, fp
 8000d84:	4691      	mov	r9, r2
 8000d86:	2b00      	cmp	r3, #0
 8000d88:	dc00      	bgt.n	8000d8c <__aeabi_dmul+0x344>
 8000d8a:	e0ac      	b.n	8000ee6 <__aeabi_dmul+0x49e>
 8000d8c:	003a      	movs	r2, r7
 8000d8e:	0752      	lsls	r2, r2, #29
 8000d90:	d100      	bne.n	8000d94 <__aeabi_dmul+0x34c>
 8000d92:	e710      	b.n	8000bb6 <__aeabi_dmul+0x16e>
 8000d94:	220f      	movs	r2, #15
 8000d96:	4658      	mov	r0, fp
 8000d98:	403a      	ands	r2, r7
 8000d9a:	2a04      	cmp	r2, #4
 8000d9c:	d000      	beq.n	8000da0 <__aeabi_dmul+0x358>
 8000d9e:	e6f9      	b.n	8000b94 <__aeabi_dmul+0x14c>
 8000da0:	e709      	b.n	8000bb6 <__aeabi_dmul+0x16e>
 8000da2:	46c0      	nop			@ (mov r8, r8)
 8000da4:	000007ff 	.word	0x000007ff
 8000da8:	fffffc01 	.word	0xfffffc01
 8000dac:	feffffff 	.word	0xfeffffff
 8000db0:	000007fe 	.word	0x000007fe
 8000db4:	000003ff 	.word	0x000003ff
 8000db8:	0022      	movs	r2, r4
 8000dba:	4332      	orrs	r2, r6
 8000dbc:	d06f      	beq.n	8000e9e <__aeabi_dmul+0x456>
 8000dbe:	2c00      	cmp	r4, #0
 8000dc0:	d100      	bne.n	8000dc4 <__aeabi_dmul+0x37c>
 8000dc2:	e0c2      	b.n	8000f4a <__aeabi_dmul+0x502>
 8000dc4:	0020      	movs	r0, r4
 8000dc6:	f000 f949 	bl	800105c <__clzsi2>
 8000dca:	0002      	movs	r2, r0
 8000dcc:	0003      	movs	r3, r0
 8000dce:	3a0b      	subs	r2, #11
 8000dd0:	201d      	movs	r0, #29
 8000dd2:	1a82      	subs	r2, r0, r2
 8000dd4:	0030      	movs	r0, r6
 8000dd6:	0019      	movs	r1, r3
 8000dd8:	40d0      	lsrs	r0, r2
 8000dda:	3908      	subs	r1, #8
 8000ddc:	408c      	lsls	r4, r1
 8000dde:	0002      	movs	r2, r0
 8000de0:	4322      	orrs	r2, r4
 8000de2:	0034      	movs	r4, r6
 8000de4:	408c      	lsls	r4, r1
 8000de6:	4659      	mov	r1, fp
 8000de8:	1acb      	subs	r3, r1, r3
 8000dea:	4986      	ldr	r1, [pc, #536]	@ (8001004 <__aeabi_dmul+0x5bc>)
 8000dec:	468b      	mov	fp, r1
 8000dee:	449b      	add	fp, r3
 8000df0:	2d0a      	cmp	r5, #10
 8000df2:	dd00      	ble.n	8000df6 <__aeabi_dmul+0x3ae>
 8000df4:	e6a4      	b.n	8000b40 <__aeabi_dmul+0xf8>
 8000df6:	4649      	mov	r1, r9
 8000df8:	9b00      	ldr	r3, [sp, #0]
 8000dfa:	9401      	str	r4, [sp, #4]
 8000dfc:	4059      	eors	r1, r3
 8000dfe:	b2cb      	uxtb	r3, r1
 8000e00:	0014      	movs	r4, r2
 8000e02:	2000      	movs	r0, #0
 8000e04:	9303      	str	r3, [sp, #12]
 8000e06:	2d02      	cmp	r5, #2
 8000e08:	dd00      	ble.n	8000e0c <__aeabi_dmul+0x3c4>
 8000e0a:	e667      	b.n	8000adc <__aeabi_dmul+0x94>
 8000e0c:	e6fb      	b.n	8000c06 <__aeabi_dmul+0x1be>
 8000e0e:	4653      	mov	r3, sl
 8000e10:	4303      	orrs	r3, r0
 8000e12:	4698      	mov	r8, r3
 8000e14:	d03c      	beq.n	8000e90 <__aeabi_dmul+0x448>
 8000e16:	4653      	mov	r3, sl
 8000e18:	2b00      	cmp	r3, #0
 8000e1a:	d100      	bne.n	8000e1e <__aeabi_dmul+0x3d6>
 8000e1c:	e0a3      	b.n	8000f66 <__aeabi_dmul+0x51e>
 8000e1e:	4650      	mov	r0, sl
 8000e20:	f000 f91c 	bl	800105c <__clzsi2>
 8000e24:	230b      	movs	r3, #11
 8000e26:	425b      	negs	r3, r3
 8000e28:	469c      	mov	ip, r3
 8000e2a:	0002      	movs	r2, r0
 8000e2c:	4484      	add	ip, r0
 8000e2e:	0011      	movs	r1, r2
 8000e30:	4650      	mov	r0, sl
 8000e32:	3908      	subs	r1, #8
 8000e34:	4088      	lsls	r0, r1
 8000e36:	231d      	movs	r3, #29
 8000e38:	4680      	mov	r8, r0
 8000e3a:	4660      	mov	r0, ip
 8000e3c:	1a1b      	subs	r3, r3, r0
 8000e3e:	0020      	movs	r0, r4
 8000e40:	40d8      	lsrs	r0, r3
 8000e42:	0003      	movs	r3, r0
 8000e44:	4640      	mov	r0, r8
 8000e46:	4303      	orrs	r3, r0
 8000e48:	469a      	mov	sl, r3
 8000e4a:	0023      	movs	r3, r4
 8000e4c:	408b      	lsls	r3, r1
 8000e4e:	4698      	mov	r8, r3
 8000e50:	4b6c      	ldr	r3, [pc, #432]	@ (8001004 <__aeabi_dmul+0x5bc>)
 8000e52:	2500      	movs	r5, #0
 8000e54:	1a9b      	subs	r3, r3, r2
 8000e56:	469b      	mov	fp, r3
 8000e58:	2300      	movs	r3, #0
 8000e5a:	9302      	str	r3, [sp, #8]
 8000e5c:	e61a      	b.n	8000a94 <__aeabi_dmul+0x4c>
 8000e5e:	2d0f      	cmp	r5, #15
 8000e60:	d000      	beq.n	8000e64 <__aeabi_dmul+0x41c>
 8000e62:	e0c9      	b.n	8000ff8 <__aeabi_dmul+0x5b0>
 8000e64:	2380      	movs	r3, #128	@ 0x80
 8000e66:	4652      	mov	r2, sl
 8000e68:	031b      	lsls	r3, r3, #12
 8000e6a:	421a      	tst	r2, r3
 8000e6c:	d002      	beq.n	8000e74 <__aeabi_dmul+0x42c>
 8000e6e:	421c      	tst	r4, r3
 8000e70:	d100      	bne.n	8000e74 <__aeabi_dmul+0x42c>
 8000e72:	e092      	b.n	8000f9a <__aeabi_dmul+0x552>
 8000e74:	2480      	movs	r4, #128	@ 0x80
 8000e76:	4653      	mov	r3, sl
 8000e78:	0324      	lsls	r4, r4, #12
 8000e7a:	431c      	orrs	r4, r3
 8000e7c:	0324      	lsls	r4, r4, #12
 8000e7e:	4642      	mov	r2, r8
 8000e80:	0b24      	lsrs	r4, r4, #12
 8000e82:	e63e      	b.n	8000b02 <__aeabi_dmul+0xba>
 8000e84:	469b      	mov	fp, r3
 8000e86:	2303      	movs	r3, #3
 8000e88:	4680      	mov	r8, r0
 8000e8a:	250c      	movs	r5, #12
 8000e8c:	9302      	str	r3, [sp, #8]
 8000e8e:	e601      	b.n	8000a94 <__aeabi_dmul+0x4c>
 8000e90:	2300      	movs	r3, #0
 8000e92:	469a      	mov	sl, r3
 8000e94:	469b      	mov	fp, r3
 8000e96:	3301      	adds	r3, #1
 8000e98:	2504      	movs	r5, #4
 8000e9a:	9302      	str	r3, [sp, #8]
 8000e9c:	e5fa      	b.n	8000a94 <__aeabi_dmul+0x4c>
 8000e9e:	2101      	movs	r1, #1
 8000ea0:	430d      	orrs	r5, r1
 8000ea2:	2d0a      	cmp	r5, #10
 8000ea4:	dd00      	ble.n	8000ea8 <__aeabi_dmul+0x460>
 8000ea6:	e64b      	b.n	8000b40 <__aeabi_dmul+0xf8>
 8000ea8:	4649      	mov	r1, r9
 8000eaa:	9800      	ldr	r0, [sp, #0]
 8000eac:	4041      	eors	r1, r0
 8000eae:	b2c9      	uxtb	r1, r1
 8000eb0:	9103      	str	r1, [sp, #12]
 8000eb2:	2d02      	cmp	r5, #2
 8000eb4:	dc00      	bgt.n	8000eb8 <__aeabi_dmul+0x470>
 8000eb6:	e096      	b.n	8000fe6 <__aeabi_dmul+0x59e>
 8000eb8:	2300      	movs	r3, #0
 8000eba:	2400      	movs	r4, #0
 8000ebc:	2001      	movs	r0, #1
 8000ebe:	9301      	str	r3, [sp, #4]
 8000ec0:	e60c      	b.n	8000adc <__aeabi_dmul+0x94>
 8000ec2:	4649      	mov	r1, r9
 8000ec4:	2302      	movs	r3, #2
 8000ec6:	9a00      	ldr	r2, [sp, #0]
 8000ec8:	432b      	orrs	r3, r5
 8000eca:	4051      	eors	r1, r2
 8000ecc:	b2ca      	uxtb	r2, r1
 8000ece:	9203      	str	r2, [sp, #12]
 8000ed0:	2b0a      	cmp	r3, #10
 8000ed2:	dd00      	ble.n	8000ed6 <__aeabi_dmul+0x48e>
 8000ed4:	e634      	b.n	8000b40 <__aeabi_dmul+0xf8>
 8000ed6:	2d00      	cmp	r5, #0
 8000ed8:	d157      	bne.n	8000f8a <__aeabi_dmul+0x542>
 8000eda:	9b03      	ldr	r3, [sp, #12]
 8000edc:	4699      	mov	r9, r3
 8000ede:	2400      	movs	r4, #0
 8000ee0:	2200      	movs	r2, #0
 8000ee2:	4b49      	ldr	r3, [pc, #292]	@ (8001008 <__aeabi_dmul+0x5c0>)
 8000ee4:	e60e      	b.n	8000b04 <__aeabi_dmul+0xbc>
 8000ee6:	4658      	mov	r0, fp
 8000ee8:	2101      	movs	r1, #1
 8000eea:	1ac9      	subs	r1, r1, r3
 8000eec:	2938      	cmp	r1, #56	@ 0x38
 8000eee:	dd00      	ble.n	8000ef2 <__aeabi_dmul+0x4aa>
 8000ef0:	e62f      	b.n	8000b52 <__aeabi_dmul+0x10a>
 8000ef2:	291f      	cmp	r1, #31
 8000ef4:	dd56      	ble.n	8000fa4 <__aeabi_dmul+0x55c>
 8000ef6:	221f      	movs	r2, #31
 8000ef8:	4654      	mov	r4, sl
 8000efa:	4252      	negs	r2, r2
 8000efc:	1ad3      	subs	r3, r2, r3
 8000efe:	40dc      	lsrs	r4, r3
 8000f00:	2920      	cmp	r1, #32
 8000f02:	d007      	beq.n	8000f14 <__aeabi_dmul+0x4cc>
 8000f04:	4b41      	ldr	r3, [pc, #260]	@ (800100c <__aeabi_dmul+0x5c4>)
 8000f06:	4642      	mov	r2, r8
 8000f08:	469c      	mov	ip, r3
 8000f0a:	4653      	mov	r3, sl
 8000f0c:	4460      	add	r0, ip
 8000f0e:	4083      	lsls	r3, r0
 8000f10:	431a      	orrs	r2, r3
 8000f12:	4690      	mov	r8, r2
 8000f14:	4642      	mov	r2, r8
 8000f16:	2107      	movs	r1, #7
 8000f18:	1e53      	subs	r3, r2, #1
 8000f1a:	419a      	sbcs	r2, r3
 8000f1c:	000b      	movs	r3, r1
 8000f1e:	4322      	orrs	r2, r4
 8000f20:	4013      	ands	r3, r2
 8000f22:	2400      	movs	r4, #0
 8000f24:	4211      	tst	r1, r2
 8000f26:	d009      	beq.n	8000f3c <__aeabi_dmul+0x4f4>
 8000f28:	230f      	movs	r3, #15
 8000f2a:	4013      	ands	r3, r2
 8000f2c:	2b04      	cmp	r3, #4
 8000f2e:	d05d      	beq.n	8000fec <__aeabi_dmul+0x5a4>
 8000f30:	1d11      	adds	r1, r2, #4
 8000f32:	4291      	cmp	r1, r2
 8000f34:	419b      	sbcs	r3, r3
 8000f36:	000a      	movs	r2, r1
 8000f38:	425b      	negs	r3, r3
 8000f3a:	075b      	lsls	r3, r3, #29
 8000f3c:	08d2      	lsrs	r2, r2, #3
 8000f3e:	431a      	orrs	r2, r3
 8000f40:	2300      	movs	r3, #0
 8000f42:	e5df      	b.n	8000b04 <__aeabi_dmul+0xbc>
 8000f44:	9b03      	ldr	r3, [sp, #12]
 8000f46:	4699      	mov	r9, r3
 8000f48:	e5fa      	b.n	8000b40 <__aeabi_dmul+0xf8>
 8000f4a:	9801      	ldr	r0, [sp, #4]
 8000f4c:	f000 f886 	bl	800105c <__clzsi2>
 8000f50:	0002      	movs	r2, r0
 8000f52:	0003      	movs	r3, r0
 8000f54:	3215      	adds	r2, #21
 8000f56:	3320      	adds	r3, #32
 8000f58:	2a1c      	cmp	r2, #28
 8000f5a:	dc00      	bgt.n	8000f5e <__aeabi_dmul+0x516>
 8000f5c:	e738      	b.n	8000dd0 <__aeabi_dmul+0x388>
 8000f5e:	9a01      	ldr	r2, [sp, #4]
 8000f60:	3808      	subs	r0, #8
 8000f62:	4082      	lsls	r2, r0
 8000f64:	e73f      	b.n	8000de6 <__aeabi_dmul+0x39e>
 8000f66:	f000 f879 	bl	800105c <__clzsi2>
 8000f6a:	2315      	movs	r3, #21
 8000f6c:	469c      	mov	ip, r3
 8000f6e:	4484      	add	ip, r0
 8000f70:	0002      	movs	r2, r0
 8000f72:	4663      	mov	r3, ip
 8000f74:	3220      	adds	r2, #32
 8000f76:	2b1c      	cmp	r3, #28
 8000f78:	dc00      	bgt.n	8000f7c <__aeabi_dmul+0x534>
 8000f7a:	e758      	b.n	8000e2e <__aeabi_dmul+0x3e6>
 8000f7c:	2300      	movs	r3, #0
 8000f7e:	4698      	mov	r8, r3
 8000f80:	0023      	movs	r3, r4
 8000f82:	3808      	subs	r0, #8
 8000f84:	4083      	lsls	r3, r0
 8000f86:	469a      	mov	sl, r3
 8000f88:	e762      	b.n	8000e50 <__aeabi_dmul+0x408>
 8000f8a:	001d      	movs	r5, r3
 8000f8c:	2300      	movs	r3, #0
 8000f8e:	2400      	movs	r4, #0
 8000f90:	2002      	movs	r0, #2
 8000f92:	9301      	str	r3, [sp, #4]
 8000f94:	e5a2      	b.n	8000adc <__aeabi_dmul+0x94>
 8000f96:	9002      	str	r0, [sp, #8]
 8000f98:	e632      	b.n	8000c00 <__aeabi_dmul+0x1b8>
 8000f9a:	431c      	orrs	r4, r3
 8000f9c:	9b00      	ldr	r3, [sp, #0]
 8000f9e:	9a01      	ldr	r2, [sp, #4]
 8000fa0:	4699      	mov	r9, r3
 8000fa2:	e5ae      	b.n	8000b02 <__aeabi_dmul+0xba>
 8000fa4:	4b1a      	ldr	r3, [pc, #104]	@ (8001010 <__aeabi_dmul+0x5c8>)
 8000fa6:	4652      	mov	r2, sl
 8000fa8:	18c3      	adds	r3, r0, r3
 8000faa:	4640      	mov	r0, r8
 8000fac:	409a      	lsls	r2, r3
 8000fae:	40c8      	lsrs	r0, r1
 8000fb0:	4302      	orrs	r2, r0
 8000fb2:	4640      	mov	r0, r8
 8000fb4:	4098      	lsls	r0, r3
 8000fb6:	0003      	movs	r3, r0
 8000fb8:	1e58      	subs	r0, r3, #1
 8000fba:	4183      	sbcs	r3, r0
 8000fbc:	4654      	mov	r4, sl
 8000fbe:	431a      	orrs	r2, r3
 8000fc0:	40cc      	lsrs	r4, r1
 8000fc2:	0753      	lsls	r3, r2, #29
 8000fc4:	d009      	beq.n	8000fda <__aeabi_dmul+0x592>
 8000fc6:	230f      	movs	r3, #15
 8000fc8:	4013      	ands	r3, r2
 8000fca:	2b04      	cmp	r3, #4
 8000fcc:	d005      	beq.n	8000fda <__aeabi_dmul+0x592>
 8000fce:	1d13      	adds	r3, r2, #4
 8000fd0:	4293      	cmp	r3, r2
 8000fd2:	4192      	sbcs	r2, r2
 8000fd4:	4252      	negs	r2, r2
 8000fd6:	18a4      	adds	r4, r4, r2
 8000fd8:	001a      	movs	r2, r3
 8000fda:	0223      	lsls	r3, r4, #8
 8000fdc:	d508      	bpl.n	8000ff0 <__aeabi_dmul+0x5a8>
 8000fde:	2301      	movs	r3, #1
 8000fe0:	2400      	movs	r4, #0
 8000fe2:	2200      	movs	r2, #0
 8000fe4:	e58e      	b.n	8000b04 <__aeabi_dmul+0xbc>
 8000fe6:	4689      	mov	r9, r1
 8000fe8:	2400      	movs	r4, #0
 8000fea:	e58b      	b.n	8000b04 <__aeabi_dmul+0xbc>
 8000fec:	2300      	movs	r3, #0
 8000fee:	e7a5      	b.n	8000f3c <__aeabi_dmul+0x4f4>
 8000ff0:	0763      	lsls	r3, r4, #29
 8000ff2:	0264      	lsls	r4, r4, #9
 8000ff4:	0b24      	lsrs	r4, r4, #12
 8000ff6:	e7a1      	b.n	8000f3c <__aeabi_dmul+0x4f4>
 8000ff8:	9b00      	ldr	r3, [sp, #0]
 8000ffa:	46a2      	mov	sl, r4
 8000ffc:	4699      	mov	r9, r3
 8000ffe:	9b01      	ldr	r3, [sp, #4]
 8001000:	4698      	mov	r8, r3
 8001002:	e737      	b.n	8000e74 <__aeabi_dmul+0x42c>
 8001004:	fffffc0d 	.word	0xfffffc0d
 8001008:	000007ff 	.word	0x000007ff
 800100c:	0000043e 	.word	0x0000043e
 8001010:	0000041e 	.word	0x0000041e

08001014 <__aeabi_ui2d>:
 8001014:	b510      	push	{r4, lr}
 8001016:	1e04      	subs	r4, r0, #0
 8001018:	d010      	beq.n	800103c <__aeabi_ui2d+0x28>
 800101a:	f000 f81f 	bl	800105c <__clzsi2>
 800101e:	4b0e      	ldr	r3, [pc, #56]	@ (8001058 <__aeabi_ui2d+0x44>)
 8001020:	1a1b      	subs	r3, r3, r0
 8001022:	055b      	lsls	r3, r3, #21
 8001024:	0d5b      	lsrs	r3, r3, #21
 8001026:	280a      	cmp	r0, #10
 8001028:	dc0f      	bgt.n	800104a <__aeabi_ui2d+0x36>
 800102a:	220b      	movs	r2, #11
 800102c:	0021      	movs	r1, r4
 800102e:	1a12      	subs	r2, r2, r0
 8001030:	40d1      	lsrs	r1, r2
 8001032:	3015      	adds	r0, #21
 8001034:	030a      	lsls	r2, r1, #12
 8001036:	4084      	lsls	r4, r0
 8001038:	0b12      	lsrs	r2, r2, #12
 800103a:	e001      	b.n	8001040 <__aeabi_ui2d+0x2c>
 800103c:	2300      	movs	r3, #0
 800103e:	2200      	movs	r2, #0
 8001040:	051b      	lsls	r3, r3, #20
 8001042:	4313      	orrs	r3, r2
 8001044:	0020      	movs	r0, r4
 8001046:	0019      	movs	r1, r3
 8001048:	bd10      	pop	{r4, pc}
 800104a:	0022      	movs	r2, r4
 800104c:	380b      	subs	r0, #11
 800104e:	4082      	lsls	r2, r0
 8001050:	0312      	lsls	r2, r2, #12
 8001052:	2400      	movs	r4, #0
 8001054:	0b12      	lsrs	r2, r2, #12
 8001056:	e7f3      	b.n	8001040 <__aeabi_ui2d+0x2c>
 8001058:	0000041e 	.word	0x0000041e

0800105c <__clzsi2>:
 800105c:	211c      	movs	r1, #28
 800105e:	2301      	movs	r3, #1
 8001060:	041b      	lsls	r3, r3, #16
 8001062:	4298      	cmp	r0, r3
 8001064:	d301      	bcc.n	800106a <__clzsi2+0xe>
 8001066:	0c00      	lsrs	r0, r0, #16
 8001068:	3910      	subs	r1, #16
 800106a:	0a1b      	lsrs	r3, r3, #8
 800106c:	4298      	cmp	r0, r3
 800106e:	d301      	bcc.n	8001074 <__clzsi2+0x18>
 8001070:	0a00      	lsrs	r0, r0, #8
 8001072:	3908      	subs	r1, #8
 8001074:	091b      	lsrs	r3, r3, #4
 8001076:	4298      	cmp	r0, r3
 8001078:	d301      	bcc.n	800107e <__clzsi2+0x22>
 800107a:	0900      	lsrs	r0, r0, #4
 800107c:	3904      	subs	r1, #4
 800107e:	a202      	add	r2, pc, #8	@ (adr r2, 8001088 <__clzsi2+0x2c>)
 8001080:	5c10      	ldrb	r0, [r2, r0]
 8001082:	1840      	adds	r0, r0, r1
 8001084:	4770      	bx	lr
 8001086:	46c0      	nop			@ (mov r8, r8)
 8001088:	02020304 	.word	0x02020304
 800108c:	01010101 	.word	0x01010101
	...

08001098 <main>:
#define CLICK_TIME_MS 300            // Max time for a click (not hold)
#define FADE_TIME_MS 500             // Fade in/out duration
#define FADE_STEPS 50                // Number of steps in fade

int main(void)
{
 8001098:	b5b0      	push	{r4, r5, r7, lr}
 800109a:	b0a0      	sub	sp, #128	@ 0x80
 800109c:	af00      	add	r7, sp, #0
    char msg[100];

    HAL_Init();
 800109e:	f000 fee6 	bl	8001e6e <HAL_Init>
    SystemClock_Config();
 80010a2:	f000 fa07 	bl	80014b4 <SystemClock_Config>

    MX_GPIO_Init();
 80010a6:	f000 fc23 	bl	80018f0 <MX_GPIO_Init>
    MX_ADC1_Init();
 80010aa:	f000 fa51 	bl	8001550 <MX_ADC1_Init>
    MX_SPI1_Init();
 80010ae:	f000 fab7 	bl	8001620 <MX_SPI1_Init>
    MX_USART1_UART_Init();
 80010b2:	f000 fbcf 	bl	8001854 <MX_USART1_UART_Init>
    MX_TIM1_Init();
 80010b6:	f000 faf1 	bl	800169c <MX_TIM1_Init>
    MX_TIM3_Init();
 80010ba:	f000 fb4b 	bl	8001754 <MX_TIM3_Init>

    // Configure PWM
    __HAL_TIM_SET_AUTORELOAD(&htim3, 9999);
 80010be:	4b9f      	ldr	r3, [pc, #636]	@ (800133c <main+0x2a4>)
 80010c0:	681b      	ldr	r3, [r3, #0]
 80010c2:	4a9f      	ldr	r2, [pc, #636]	@ (8001340 <main+0x2a8>)
 80010c4:	62da      	str	r2, [r3, #44]	@ 0x2c
 80010c6:	4b9d      	ldr	r3, [pc, #628]	@ (800133c <main+0x2a4>)
 80010c8:	4a9d      	ldr	r2, [pc, #628]	@ (8001340 <main+0x2a8>)
 80010ca:	60da      	str	r2, [r3, #12]
    __HAL_TIM_SET_COMPARE(&htim3, TIM_CHANNEL_1, 0);
 80010cc:	4b9b      	ldr	r3, [pc, #620]	@ (800133c <main+0x2a4>)
 80010ce:	681b      	ldr	r3, [r3, #0]
 80010d0:	2200      	movs	r2, #0
 80010d2:	635a      	str	r2, [r3, #52]	@ 0x34
    HAL_TIM_PWM_Start(&htim3, TIM_CHANNEL_1);
 80010d4:	4b99      	ldr	r3, [pc, #612]	@ (800133c <main+0x2a4>)
 80010d6:	2100      	movs	r1, #0
 80010d8:	0018      	movs	r0, r3
 80010da:	f002 fc03 	bl	80038e4 <HAL_TIM_PWM_Start>

    HAL_Delay(500);
 80010de:	23fa      	movs	r3, #250	@ 0xfa
 80010e0:	005b      	lsls	r3, r3, #1
 80010e2:	0018      	movs	r0, r3
 80010e4:	f000 ff40 	bl	8001f68 <HAL_Delay>
    uart_print("\r\n=== Simple LED Controller ===\r\n");
 80010e8:	4b96      	ldr	r3, [pc, #600]	@ (8001344 <main+0x2ac>)
 80010ea:	0018      	movs	r0, r3
 80010ec:	f000 f9cc 	bl	8001488 <uart_print>
    uart_print("Click: Smooth ON/OFF\r\n");
 80010f0:	4b95      	ldr	r3, [pc, #596]	@ (8001348 <main+0x2b0>)
 80010f2:	0018      	movs	r0, r3
 80010f4:	f000 f9c8 	bl	8001488 <uart_print>
    uart_print("Hold: Ramp UP/DOWN\r\n\r\n");
 80010f8:	4b94      	ldr	r3, [pc, #592]	@ (800134c <main+0x2b4>)
 80010fa:	0018      	movs	r0, r3
 80010fc:	f000 f9c4 	bl	8001488 <uart_print>

    uint32_t current_time = 0;
 8001100:	2300      	movs	r3, #0
 8001102:	67fb      	str	r3, [r7, #124]	@ 0x7c
    last_brightness = 2999;
 8001104:	4b92      	ldr	r3, [pc, #584]	@ (8001350 <main+0x2b8>)
 8001106:	4a93      	ldr	r2, [pc, #588]	@ (8001354 <main+0x2bc>)
 8001108:	601a      	str	r2, [r3, #0]
    /* after HAL_TIM_PWM_Start(&htim3, TIM_CHANNEL_1); */
    ARR = __HAL_TIM_GET_AUTORELOAD(&htim3);          // should be 9999
 800110a:	4b8c      	ldr	r3, [pc, #560]	@ (800133c <main+0x2a4>)
 800110c:	681b      	ldr	r3, [r3, #0]
 800110e:	6ada      	ldr	r2, [r3, #44]	@ 0x2c
 8001110:	4b91      	ldr	r3, [pc, #580]	@ (8001358 <main+0x2c0>)
 8001112:	601a      	str	r2, [r3, #0]
    min_ramp_brightness = (ARR + 1) * 50 / 1000;   // 5% of ARR
 8001114:	4b90      	ldr	r3, [pc, #576]	@ (8001358 <main+0x2c0>)
 8001116:	681b      	ldr	r3, [r3, #0]
 8001118:	3301      	adds	r3, #1
 800111a:	2232      	movs	r2, #50	@ 0x32
 800111c:	4353      	muls	r3, r2
 800111e:	22fa      	movs	r2, #250	@ 0xfa
 8001120:	0091      	lsls	r1, r2, #2
 8001122:	0018      	movs	r0, r3
 8001124:	f7ff f802 	bl	800012c <__udivsi3>
 8001128:	0003      	movs	r3, r0
 800112a:	001a      	movs	r2, r3
 800112c:	4b8b      	ldr	r3, [pc, #556]	@ (800135c <main+0x2c4>)
 800112e:	601a      	str	r2, [r3, #0]
//    if (min_ramp_brightness == 0) min_ramp_brightness = 1; // safety

    while (1)
    {
        uint32_t now = HAL_GetTick();
 8001130:	f000 ff10 	bl	8001f54 <HAL_GetTick>
 8001134:	0003      	movs	r3, r0
 8001136:	67bb      	str	r3, [r7, #120]	@ 0x78
        GPIO_PinState bs = HAL_GPIO_ReadPin(Button_GPIO_Port, Button_Pin);
 8001138:	2577      	movs	r5, #119	@ 0x77
 800113a:	197c      	adds	r4, r7, r5
 800113c:	23a0      	movs	r3, #160	@ 0xa0
 800113e:	05db      	lsls	r3, r3, #23
 8001140:	2101      	movs	r1, #1
 8001142:	0018      	movs	r0, r3
 8001144:	f001 fddc 	bl	8002d00 <HAL_GPIO_ReadPin>
 8001148:	0003      	movs	r3, r0
 800114a:	7023      	strb	r3, [r4, #0]

        /* --- BUTTON PRESSED (edge) --- */
        if (bs == GPIO_PIN_RESET && !button_pressed)
 800114c:	197b      	adds	r3, r7, r5
 800114e:	781b      	ldrb	r3, [r3, #0]
 8001150:	2b00      	cmp	r3, #0
 8001152:	d110      	bne.n	8001176 <main+0xde>
 8001154:	4b82      	ldr	r3, [pc, #520]	@ (8001360 <main+0x2c8>)
 8001156:	781b      	ldrb	r3, [r3, #0]
 8001158:	2b00      	cmp	r3, #0
 800115a:	d10c      	bne.n	8001176 <main+0xde>
        {
            button_pressed = 1;
 800115c:	4b80      	ldr	r3, [pc, #512]	@ (8001360 <main+0x2c8>)
 800115e:	2201      	movs	r2, #1
 8001160:	701a      	strb	r2, [r3, #0]
            button_press_time = now;
 8001162:	4b80      	ldr	r3, [pc, #512]	@ (8001364 <main+0x2cc>)
 8001164:	6fba      	ldr	r2, [r7, #120]	@ 0x78
 8001166:	601a      	str	r2, [r3, #0]
            hold_started = 0;    // will become 1 once hold threshold passed
 8001168:	4b7f      	ldr	r3, [pc, #508]	@ (8001368 <main+0x2d0>)
 800116a:	2200      	movs	r2, #0
 800116c:	701a      	strb	r2, [r3, #0]
            // do NOT flip direction here; flip when hold actually starts
            uart_print("Button PRESSED\r\n");
 800116e:	4b7f      	ldr	r3, [pc, #508]	@ (800136c <main+0x2d4>)
 8001170:	0018      	movs	r0, r3
 8001172:	f000 f989 	bl	8001488 <uart_print>
        }

        /* --- BUTTON RELEASED (edge) --- */
        if (bs == GPIO_PIN_SET && button_pressed)
 8001176:	2377      	movs	r3, #119	@ 0x77
 8001178:	18fb      	adds	r3, r7, r3
 800117a:	781b      	ldrb	r3, [r3, #0]
 800117c:	2b01      	cmp	r3, #1
 800117e:	d146      	bne.n	800120e <main+0x176>
 8001180:	4b77      	ldr	r3, [pc, #476]	@ (8001360 <main+0x2c8>)
 8001182:	781b      	ldrb	r3, [r3, #0]
 8001184:	2b00      	cmp	r3, #0
 8001186:	d042      	beq.n	800120e <main+0x176>
        {
            uint32_t press_duration = now - button_press_time;
 8001188:	4b76      	ldr	r3, [pc, #472]	@ (8001364 <main+0x2cc>)
 800118a:	681b      	ldr	r3, [r3, #0]
 800118c:	6fba      	ldr	r2, [r7, #120]	@ 0x78
 800118e:	1ad3      	subs	r3, r2, r3
 8001190:	673b      	str	r3, [r7, #112]	@ 0x70
            button_pressed = 0;
 8001192:	4b73      	ldr	r3, [pc, #460]	@ (8001360 <main+0x2c8>)
 8001194:	2200      	movs	r2, #0
 8001196:	701a      	strb	r2, [r3, #0]

            // Release clears the at_extreme so next hold can ramp again
            at_extreme = 0;
 8001198:	4b75      	ldr	r3, [pc, #468]	@ (8001370 <main+0x2d8>)
 800119a:	2200      	movs	r2, #0
 800119c:	701a      	strb	r2, [r3, #0]
            hold_started = 0;
 800119e:	4b72      	ldr	r3, [pc, #456]	@ (8001368 <main+0x2d0>)
 80011a0:	2200      	movs	r2, #0
 80011a2:	701a      	strb	r2, [r3, #0]

            sprintf(msg, "Button RELEASED (%lums)\r\n", press_duration);
 80011a4:	6f3a      	ldr	r2, [r7, #112]	@ 0x70
 80011a6:	4973      	ldr	r1, [pc, #460]	@ (8001374 <main+0x2dc>)
 80011a8:	1d3b      	adds	r3, r7, #4
 80011aa:	0018      	movs	r0, r3
 80011ac:	f004 f83e 	bl	800522c <siprintf>
            uart_print(msg);
 80011b0:	1d3b      	adds	r3, r7, #4
 80011b2:	0018      	movs	r0, r3
 80011b4:	f000 f968 	bl	8001488 <uart_print>

            if (press_duration < CLICK_TIME_MS)
 80011b8:	6f3a      	ldr	r2, [r7, #112]	@ 0x70
 80011ba:	2396      	movs	r3, #150	@ 0x96
 80011bc:	005b      	lsls	r3, r3, #1
 80011be:	429a      	cmp	r2, r3
 80011c0:	d225      	bcs.n	800120e <main+0x176>
            {
                // short click -> toggle ON/OFF with fade
                if (is_on)
 80011c2:	4b6d      	ldr	r3, [pc, #436]	@ (8001378 <main+0x2e0>)
 80011c4:	781b      	ldrb	r3, [r3, #0]
 80011c6:	2b00      	cmp	r3, #0
 80011c8:	d011      	beq.n	80011ee <main+0x156>
                {
                    uart_print(">> CLICK: Fading OFF\r\n");
 80011ca:	4b6c      	ldr	r3, [pc, #432]	@ (800137c <main+0x2e4>)
 80011cc:	0018      	movs	r0, r3
 80011ce:	f000 f95b 	bl	8001488 <uart_print>
                    last_brightness = current_brightness;
 80011d2:	4b6b      	ldr	r3, [pc, #428]	@ (8001380 <main+0x2e8>)
 80011d4:	681a      	ldr	r2, [r3, #0]
 80011d6:	4b5e      	ldr	r3, [pc, #376]	@ (8001350 <main+0x2b8>)
 80011d8:	601a      	str	r2, [r3, #0]
                    smooth_fade_to(0);
 80011da:	2000      	movs	r0, #0
 80011dc:	f000 f8e4 	bl	80013a8 <smooth_fade_to>
                    current_brightness = 0;
 80011e0:	4b67      	ldr	r3, [pc, #412]	@ (8001380 <main+0x2e8>)
 80011e2:	2200      	movs	r2, #0
 80011e4:	601a      	str	r2, [r3, #0]
                    is_on = 0;
 80011e6:	4b64      	ldr	r3, [pc, #400]	@ (8001378 <main+0x2e0>)
 80011e8:	2200      	movs	r2, #0
 80011ea:	701a      	strb	r2, [r3, #0]
 80011ec:	e00f      	b.n	800120e <main+0x176>
                }
                else
                {
                    uart_print(">> CLICK: Fading ON\r\n");
 80011ee:	4b65      	ldr	r3, [pc, #404]	@ (8001384 <main+0x2ec>)
 80011f0:	0018      	movs	r0, r3
 80011f2:	f000 f949 	bl	8001488 <uart_print>
                    smooth_fade_to(last_brightness);
 80011f6:	4b56      	ldr	r3, [pc, #344]	@ (8001350 <main+0x2b8>)
 80011f8:	681b      	ldr	r3, [r3, #0]
 80011fa:	0018      	movs	r0, r3
 80011fc:	f000 f8d4 	bl	80013a8 <smooth_fade_to>
                    current_brightness = last_brightness;
 8001200:	4b53      	ldr	r3, [pc, #332]	@ (8001350 <main+0x2b8>)
 8001202:	681a      	ldr	r2, [r3, #0]
 8001204:	4b5e      	ldr	r3, [pc, #376]	@ (8001380 <main+0x2e8>)
 8001206:	601a      	str	r2, [r3, #0]
                    is_on = 1;
 8001208:	4b5b      	ldr	r3, [pc, #364]	@ (8001378 <main+0x2e0>)
 800120a:	2201      	movs	r2, #1
 800120c:	701a      	strb	r2, [r3, #0]
                // do not flip here
            }
        }

        /* --- BUTTON HELD (after crossing CLICK_TIME_MS) --- */
        if (button_pressed && !hold_started)
 800120e:	4b54      	ldr	r3, [pc, #336]	@ (8001360 <main+0x2c8>)
 8001210:	781b      	ldrb	r3, [r3, #0]
 8001212:	2b00      	cmp	r3, #0
 8001214:	d039      	beq.n	800128a <main+0x1f2>
 8001216:	4b54      	ldr	r3, [pc, #336]	@ (8001368 <main+0x2d0>)
 8001218:	781b      	ldrb	r3, [r3, #0]
 800121a:	2b00      	cmp	r3, #0
 800121c:	d135      	bne.n	800128a <main+0x1f2>
        {
            if ((now - button_press_time) > CLICK_TIME_MS)
 800121e:	4b51      	ldr	r3, [pc, #324]	@ (8001364 <main+0x2cc>)
 8001220:	681b      	ldr	r3, [r3, #0]
 8001222:	6fba      	ldr	r2, [r7, #120]	@ 0x78
 8001224:	1ad2      	subs	r2, r2, r3
 8001226:	2396      	movs	r3, #150	@ 0x96
 8001228:	005b      	lsls	r3, r3, #1
 800122a:	429a      	cmp	r2, r3
 800122c:	d92d      	bls.n	800128a <main+0x1f2>
            {
                hold_started = 1;
 800122e:	4b4e      	ldr	r3, [pc, #312]	@ (8001368 <main+0x2d0>)
 8001230:	2201      	movs	r2, #1
 8001232:	701a      	strb	r2, [r3, #0]

                // FIX: determine correct direction (no wrong first-time flip)
                if (current_brightness <= min_ramp_brightness)
 8001234:	4b52      	ldr	r3, [pc, #328]	@ (8001380 <main+0x2e8>)
 8001236:	681a      	ldr	r2, [r3, #0]
 8001238:	4b48      	ldr	r3, [pc, #288]	@ (800135c <main+0x2c4>)
 800123a:	681b      	ldr	r3, [r3, #0]
 800123c:	429a      	cmp	r2, r3
 800123e:	d803      	bhi.n	8001248 <main+0x1b0>
                {
                    ramp_direction = 1;  // force ramp UP
 8001240:	4b51      	ldr	r3, [pc, #324]	@ (8001388 <main+0x2f0>)
 8001242:	2201      	movs	r2, #1
 8001244:	701a      	strb	r2, [r3, #0]
 8001246:	e010      	b.n	800126a <main+0x1d2>
                }
                else if (current_brightness >= max_brightness)
 8001248:	4b4d      	ldr	r3, [pc, #308]	@ (8001380 <main+0x2e8>)
 800124a:	681a      	ldr	r2, [r3, #0]
 800124c:	4b4f      	ldr	r3, [pc, #316]	@ (800138c <main+0x2f4>)
 800124e:	681b      	ldr	r3, [r3, #0]
 8001250:	429a      	cmp	r2, r3
 8001252:	d303      	bcc.n	800125c <main+0x1c4>
                {
                    ramp_direction = 0;  // force ramp DOWN
 8001254:	4b4c      	ldr	r3, [pc, #304]	@ (8001388 <main+0x2f0>)
 8001256:	2200      	movs	r2, #0
 8001258:	701a      	strb	r2, [r3, #0]
 800125a:	e006      	b.n	800126a <main+0x1d2>
                }
                else
                {
                    ramp_direction ^= 1; // normal toggle
 800125c:	4b4a      	ldr	r3, [pc, #296]	@ (8001388 <main+0x2f0>)
 800125e:	781b      	ldrb	r3, [r3, #0]
 8001260:	2201      	movs	r2, #1
 8001262:	4053      	eors	r3, r2
 8001264:	b2da      	uxtb	r2, r3
 8001266:	4b48      	ldr	r3, [pc, #288]	@ (8001388 <main+0x2f0>)
 8001268:	701a      	strb	r2, [r3, #0]
                }

                sprintf(msg, ">> HOLD started, direction now %s\r\n",
                        ramp_direction ? "UP" : "DOWN");
 800126a:	4b47      	ldr	r3, [pc, #284]	@ (8001388 <main+0x2f0>)
 800126c:	781b      	ldrb	r3, [r3, #0]
                sprintf(msg, ">> HOLD started, direction now %s\r\n",
 800126e:	2b00      	cmp	r3, #0
 8001270:	d001      	beq.n	8001276 <main+0x1de>
 8001272:	4b47      	ldr	r3, [pc, #284]	@ (8001390 <main+0x2f8>)
 8001274:	e000      	b.n	8001278 <main+0x1e0>
 8001276:	4b47      	ldr	r3, [pc, #284]	@ (8001394 <main+0x2fc>)
 8001278:	4947      	ldr	r1, [pc, #284]	@ (8001398 <main+0x300>)
 800127a:	1d38      	adds	r0, r7, #4
 800127c:	001a      	movs	r2, r3
 800127e:	f003 ffd5 	bl	800522c <siprintf>
                uart_print(msg);
 8001282:	1d3b      	adds	r3, r7, #4
 8001284:	0018      	movs	r0, r3
 8001286:	f000 f8ff 	bl	8001488 <uart_print>
            }
        }

        /* --- If hold is active and not at extreme, perform ramping --- */
        if (hold_started && !at_extreme)
 800128a:	4b37      	ldr	r3, [pc, #220]	@ (8001368 <main+0x2d0>)
 800128c:	781b      	ldrb	r3, [r3, #0]
 800128e:	2b00      	cmp	r3, #0
 8001290:	d050      	beq.n	8001334 <main+0x29c>
 8001292:	4b37      	ldr	r3, [pc, #220]	@ (8001370 <main+0x2d8>)
 8001294:	781b      	ldrb	r3, [r3, #0]
 8001296:	2b00      	cmp	r3, #0
 8001298:	d14c      	bne.n	8001334 <main+0x29c>
        {
            if (ramp_direction == 1) // ramp UP
 800129a:	4b3b      	ldr	r3, [pc, #236]	@ (8001388 <main+0x2f0>)
 800129c:	781b      	ldrb	r3, [r3, #0]
 800129e:	2b01      	cmp	r3, #1
 80012a0:	d11c      	bne.n	80012dc <main+0x244>
            {
                // increase by step
                uint32_t step = 100; // tune step size for speed
 80012a2:	2364      	movs	r3, #100	@ 0x64
 80012a4:	66bb      	str	r3, [r7, #104]	@ 0x68
                if (current_brightness + step >= max_brightness)
 80012a6:	4b36      	ldr	r3, [pc, #216]	@ (8001380 <main+0x2e8>)
 80012a8:	681a      	ldr	r2, [r3, #0]
 80012aa:	6ebb      	ldr	r3, [r7, #104]	@ 0x68
 80012ac:	18d2      	adds	r2, r2, r3
 80012ae:	4b37      	ldr	r3, [pc, #220]	@ (800138c <main+0x2f4>)
 80012b0:	681b      	ldr	r3, [r3, #0]
 80012b2:	429a      	cmp	r2, r3
 80012b4:	d30b      	bcc.n	80012ce <main+0x236>
                {
                    current_brightness = max_brightness;
 80012b6:	4b35      	ldr	r3, [pc, #212]	@ (800138c <main+0x2f4>)
 80012b8:	681a      	ldr	r2, [r3, #0]
 80012ba:	4b31      	ldr	r3, [pc, #196]	@ (8001380 <main+0x2e8>)
 80012bc:	601a      	str	r2, [r3, #0]
                    at_extreme = 1;
 80012be:	4b2c      	ldr	r3, [pc, #176]	@ (8001370 <main+0x2d8>)
 80012c0:	2201      	movs	r2, #1
 80012c2:	701a      	strb	r2, [r3, #0]
                    // prepare next direction for the next hold
                    // but do NOT flip now  flipping occurs at next hold start
                    uart_print(">> HOLD: MAX reached, stop until release\r\n");
 80012c4:	4b35      	ldr	r3, [pc, #212]	@ (800139c <main+0x304>)
 80012c6:	0018      	movs	r0, r3
 80012c8:	f000 f8de 	bl	8001488 <uart_print>
 80012cc:	e022      	b.n	8001314 <main+0x27c>
                }
                else
                {
                    current_brightness += step;
 80012ce:	4b2c      	ldr	r3, [pc, #176]	@ (8001380 <main+0x2e8>)
 80012d0:	681a      	ldr	r2, [r3, #0]
 80012d2:	6ebb      	ldr	r3, [r7, #104]	@ 0x68
 80012d4:	18d2      	adds	r2, r2, r3
 80012d6:	4b2a      	ldr	r3, [pc, #168]	@ (8001380 <main+0x2e8>)
 80012d8:	601a      	str	r2, [r3, #0]
 80012da:	e01b      	b.n	8001314 <main+0x27c>
                }
            }
            else // ramp DOWN
            {
                uint32_t step = 100;
 80012dc:	2364      	movs	r3, #100	@ 0x64
 80012de:	66fb      	str	r3, [r7, #108]	@ 0x6c
                if (current_brightness <= min_ramp_brightness + step)
 80012e0:	4b1e      	ldr	r3, [pc, #120]	@ (800135c <main+0x2c4>)
 80012e2:	681a      	ldr	r2, [r3, #0]
 80012e4:	6efb      	ldr	r3, [r7, #108]	@ 0x6c
 80012e6:	18d2      	adds	r2, r2, r3
 80012e8:	4b25      	ldr	r3, [pc, #148]	@ (8001380 <main+0x2e8>)
 80012ea:	681b      	ldr	r3, [r3, #0]
 80012ec:	429a      	cmp	r2, r3
 80012ee:	d30b      	bcc.n	8001308 <main+0x270>
                {
                    current_brightness = min_ramp_brightness;
 80012f0:	4b1a      	ldr	r3, [pc, #104]	@ (800135c <main+0x2c4>)
 80012f2:	681a      	ldr	r2, [r3, #0]
 80012f4:	4b22      	ldr	r3, [pc, #136]	@ (8001380 <main+0x2e8>)
 80012f6:	601a      	str	r2, [r3, #0]
                    at_extreme = 1;
 80012f8:	4b1d      	ldr	r3, [pc, #116]	@ (8001370 <main+0x2d8>)
 80012fa:	2201      	movs	r2, #1
 80012fc:	701a      	strb	r2, [r3, #0]
                    uart_print(">> HOLD: MIN reached (0.5%), stop until release\r\n");
 80012fe:	4b28      	ldr	r3, [pc, #160]	@ (80013a0 <main+0x308>)
 8001300:	0018      	movs	r0, r3
 8001302:	f000 f8c1 	bl	8001488 <uart_print>
 8001306:	e005      	b.n	8001314 <main+0x27c>
                }
                else
                {
                    current_brightness -= step;
 8001308:	4b1d      	ldr	r3, [pc, #116]	@ (8001380 <main+0x2e8>)
 800130a:	681a      	ldr	r2, [r3, #0]
 800130c:	6efb      	ldr	r3, [r7, #108]	@ 0x6c
 800130e:	1ad2      	subs	r2, r2, r3
 8001310:	4b1b      	ldr	r3, [pc, #108]	@ (8001380 <main+0x2e8>)
 8001312:	601a      	str	r2, [r3, #0]
                }
            }

            // apply to timer and remember
            target_brightness = current_brightness;
 8001314:	4b1a      	ldr	r3, [pc, #104]	@ (8001380 <main+0x2e8>)
 8001316:	681a      	ldr	r2, [r3, #0]
 8001318:	4b22      	ldr	r3, [pc, #136]	@ (80013a4 <main+0x30c>)
 800131a:	601a      	str	r2, [r3, #0]
            last_brightness = current_brightness;
 800131c:	4b18      	ldr	r3, [pc, #96]	@ (8001380 <main+0x2e8>)
 800131e:	681a      	ldr	r2, [r3, #0]
 8001320:	4b0b      	ldr	r3, [pc, #44]	@ (8001350 <main+0x2b8>)
 8001322:	601a      	str	r2, [r3, #0]
            __HAL_TIM_SET_COMPARE(&htim3, TIM_CHANNEL_1, current_brightness);
 8001324:	4b05      	ldr	r3, [pc, #20]	@ (800133c <main+0x2a4>)
 8001326:	681b      	ldr	r3, [r3, #0]
 8001328:	4a15      	ldr	r2, [pc, #84]	@ (8001380 <main+0x2e8>)
 800132a:	6812      	ldr	r2, [r2, #0]
 800132c:	635a      	str	r2, [r3, #52]	@ 0x34

            HAL_Delay(10); // ramp speed (tune as needed)
 800132e:	200a      	movs	r0, #10
 8001330:	f000 fe1a 	bl	8001f68 <HAL_Delay>
        }

        HAL_Delay(5); // small loop delay for debounce and cpu relief
 8001334:	2005      	movs	r0, #5
 8001336:	f000 fe17 	bl	8001f68 <HAL_Delay>
    {
 800133a:	e6f9      	b.n	8001130 <main+0x98>
 800133c:	20000198 	.word	0x20000198
 8001340:	0000270f 	.word	0x0000270f
 8001344:	08005b7c 	.word	0x08005b7c
 8001348:	08005ba0 	.word	0x08005ba0
 800134c:	08005bb8 	.word	0x08005bb8
 8001350:	20000290 	.word	0x20000290
 8001354:	00000bb7 	.word	0x00000bb7
 8001358:	2000028c 	.word	0x2000028c
 800135c:	20000294 	.word	0x20000294
 8001360:	20000280 	.word	0x20000280
 8001364:	20000284 	.word	0x20000284
 8001368:	20000289 	.word	0x20000289
 800136c:	08005bd0 	.word	0x08005bd0
 8001370:	20000288 	.word	0x20000288
 8001374:	08005be4 	.word	0x08005be4
 8001378:	20000278 	.word	0x20000278
 800137c:	08005c00 	.word	0x08005c00
 8001380:	2000027c 	.word	0x2000027c
 8001384:	08005c18 	.word	0x08005c18
 8001388:	20000008 	.word	0x20000008
 800138c:	20000004 	.word	0x20000004
 8001390:	08005c30 	.word	0x08005c30
 8001394:	08005c34 	.word	0x08005c34
 8001398:	08005c3c 	.word	0x08005c3c
 800139c:	08005c60 	.word	0x08005c60
 80013a0:	08005c8c 	.word	0x08005c8c
 80013a4:	20000000 	.word	0x20000000

080013a8 <smooth_fade_to>:
    }

}

void smooth_fade_to(uint32_t target)
{
 80013a8:	b5b0      	push	{r4, r5, r7, lr}
 80013aa:	b09c      	sub	sp, #112	@ 0x70
 80013ac:	af02      	add	r7, sp, #8
 80013ae:	6078      	str	r0, [r7, #4]
    char msg[80];
    uint32_t start_brightness = current_brightness;
 80013b0:	4b2f      	ldr	r3, [pc, #188]	@ (8001470 <smooth_fade_to+0xc8>)
 80013b2:	681b      	ldr	r3, [r3, #0]
 80013b4:	663b      	str	r3, [r7, #96]	@ 0x60
    int32_t brightness_diff = (int32_t)target - (int32_t)start_brightness;
 80013b6:	687a      	ldr	r2, [r7, #4]
 80013b8:	6e3b      	ldr	r3, [r7, #96]	@ 0x60
 80013ba:	1ad3      	subs	r3, r2, r3
 80013bc:	65fb      	str	r3, [r7, #92]	@ 0x5c
    uint32_t step_delay = FADE_TIME_MS / FADE_STEPS;
 80013be:	230a      	movs	r3, #10
 80013c0:	65bb      	str	r3, [r7, #88]	@ 0x58

    sprintf(msg, "Fading from %lu to %lu\r\n", start_brightness, target);
 80013c2:	687b      	ldr	r3, [r7, #4]
 80013c4:	6e3a      	ldr	r2, [r7, #96]	@ 0x60
 80013c6:	492b      	ldr	r1, [pc, #172]	@ (8001474 <smooth_fade_to+0xcc>)
 80013c8:	2408      	movs	r4, #8
 80013ca:	1938      	adds	r0, r7, r4
 80013cc:	f003 ff2e 	bl	800522c <siprintf>
    uart_print(msg);
 80013d0:	193b      	adds	r3, r7, r4
 80013d2:	0018      	movs	r0, r3
 80013d4:	f000 f858 	bl	8001488 <uart_print>

    for (int i = 1; i <= FADE_STEPS; i++)
 80013d8:	2301      	movs	r3, #1
 80013da:	667b      	str	r3, [r7, #100]	@ 0x64
 80013dc:	e018      	b.n	8001410 <smooth_fade_to+0x68>
    {
        current_brightness = start_brightness + (brightness_diff * i / FADE_STEPS);
 80013de:	6dfb      	ldr	r3, [r7, #92]	@ 0x5c
 80013e0:	6e7a      	ldr	r2, [r7, #100]	@ 0x64
 80013e2:	4353      	muls	r3, r2
 80013e4:	2132      	movs	r1, #50	@ 0x32
 80013e6:	0018      	movs	r0, r3
 80013e8:	f7fe ff2a 	bl	8000240 <__divsi3>
 80013ec:	0003      	movs	r3, r0
 80013ee:	001a      	movs	r2, r3
 80013f0:	6e3b      	ldr	r3, [r7, #96]	@ 0x60
 80013f2:	18d2      	adds	r2, r2, r3
 80013f4:	4b1e      	ldr	r3, [pc, #120]	@ (8001470 <smooth_fade_to+0xc8>)
 80013f6:	601a      	str	r2, [r3, #0]
        __HAL_TIM_SET_COMPARE(&htim3, TIM_CHANNEL_1, current_brightness);
 80013f8:	4b1f      	ldr	r3, [pc, #124]	@ (8001478 <smooth_fade_to+0xd0>)
 80013fa:	681b      	ldr	r3, [r3, #0]
 80013fc:	4a1c      	ldr	r2, [pc, #112]	@ (8001470 <smooth_fade_to+0xc8>)
 80013fe:	6812      	ldr	r2, [r2, #0]
 8001400:	635a      	str	r2, [r3, #52]	@ 0x34
        HAL_Delay(step_delay);
 8001402:	6dbb      	ldr	r3, [r7, #88]	@ 0x58
 8001404:	0018      	movs	r0, r3
 8001406:	f000 fdaf 	bl	8001f68 <HAL_Delay>
    for (int i = 1; i <= FADE_STEPS; i++)
 800140a:	6e7b      	ldr	r3, [r7, #100]	@ 0x64
 800140c:	3301      	adds	r3, #1
 800140e:	667b      	str	r3, [r7, #100]	@ 0x64
 8001410:	6e7b      	ldr	r3, [r7, #100]	@ 0x64
 8001412:	2b32      	cmp	r3, #50	@ 0x32
 8001414:	dde3      	ble.n	80013de <smooth_fade_to+0x36>
    }

    current_brightness = target;
 8001416:	4b16      	ldr	r3, [pc, #88]	@ (8001470 <smooth_fade_to+0xc8>)
 8001418:	687a      	ldr	r2, [r7, #4]
 800141a:	601a      	str	r2, [r3, #0]
    __HAL_TIM_SET_COMPARE(&htim3, TIM_CHANNEL_1, current_brightness);
 800141c:	4b16      	ldr	r3, [pc, #88]	@ (8001478 <smooth_fade_to+0xd0>)
 800141e:	681b      	ldr	r3, [r3, #0]
 8001420:	4a13      	ldr	r2, [pc, #76]	@ (8001470 <smooth_fade_to+0xc8>)
 8001422:	6812      	ldr	r2, [r2, #0]
 8001424:	635a      	str	r2, [r3, #52]	@ 0x34

    sprintf(msg, "Fade complete at %lu (%.1f%%)\r\n",
 8001426:	4b12      	ldr	r3, [pc, #72]	@ (8001470 <smooth_fade_to+0xc8>)
 8001428:	681c      	ldr	r4, [r3, #0]
            current_brightness, (current_brightness * 100.0) / 48000.0);
 800142a:	4b11      	ldr	r3, [pc, #68]	@ (8001470 <smooth_fade_to+0xc8>)
 800142c:	681b      	ldr	r3, [r3, #0]
 800142e:	0018      	movs	r0, r3
 8001430:	f7ff fdf0 	bl	8001014 <__aeabi_ui2d>
 8001434:	2200      	movs	r2, #0
 8001436:	4b11      	ldr	r3, [pc, #68]	@ (800147c <smooth_fade_to+0xd4>)
 8001438:	f7ff fb06 	bl	8000a48 <__aeabi_dmul>
 800143c:	0002      	movs	r2, r0
 800143e:	000b      	movs	r3, r1
 8001440:	0010      	movs	r0, r2
 8001442:	0019      	movs	r1, r3
    sprintf(msg, "Fade complete at %lu (%.1f%%)\r\n",
 8001444:	2200      	movs	r2, #0
 8001446:	4b0e      	ldr	r3, [pc, #56]	@ (8001480 <smooth_fade_to+0xd8>)
 8001448:	f7fe ffe6 	bl	8000418 <__aeabi_ddiv>
 800144c:	0002      	movs	r2, r0
 800144e:	000b      	movs	r3, r1
 8001450:	490c      	ldr	r1, [pc, #48]	@ (8001484 <smooth_fade_to+0xdc>)
 8001452:	2508      	movs	r5, #8
 8001454:	1978      	adds	r0, r7, r5
 8001456:	9200      	str	r2, [sp, #0]
 8001458:	9301      	str	r3, [sp, #4]
 800145a:	0022      	movs	r2, r4
 800145c:	f003 fee6 	bl	800522c <siprintf>
    uart_print(msg);
 8001460:	197b      	adds	r3, r7, r5
 8001462:	0018      	movs	r0, r3
 8001464:	f000 f810 	bl	8001488 <uart_print>
}
 8001468:	46c0      	nop			@ (mov r8, r8)
 800146a:	46bd      	mov	sp, r7
 800146c:	b01a      	add	sp, #104	@ 0x68
 800146e:	bdb0      	pop	{r4, r5, r7, pc}
 8001470:	2000027c 	.word	0x2000027c
 8001474:	08005cc0 	.word	0x08005cc0
 8001478:	20000198 	.word	0x20000198
 800147c:	40590000 	.word	0x40590000
 8001480:	40e77000 	.word	0x40e77000
 8001484:	08005cdc 	.word	0x08005cdc

08001488 <uart_print>:
        j++;
    }
}

void uart_print(const char* str)
{
 8001488:	b580      	push	{r7, lr}
 800148a:	b082      	sub	sp, #8
 800148c:	af00      	add	r7, sp, #0
 800148e:	6078      	str	r0, [r7, #4]
    HAL_UART_Transmit(&huart1, (uint8_t*)str, strlen(str), 1000);
 8001490:	687b      	ldr	r3, [r7, #4]
 8001492:	0018      	movs	r0, r3
 8001494:	f7fe fe38 	bl	8000108 <strlen>
 8001498:	0003      	movs	r3, r0
 800149a:	b29a      	uxth	r2, r3
 800149c:	23fa      	movs	r3, #250	@ 0xfa
 800149e:	009b      	lsls	r3, r3, #2
 80014a0:	6879      	ldr	r1, [r7, #4]
 80014a2:	4803      	ldr	r0, [pc, #12]	@ (80014b0 <uart_print+0x28>)
 80014a4:	f003 f952 	bl	800474c <HAL_UART_Transmit>
}
 80014a8:	46c0      	nop			@ (mov r8, r8)
 80014aa:	46bd      	mov	sp, r7
 80014ac:	b002      	add	sp, #8
 80014ae:	bd80      	pop	{r7, pc}
 80014b0:	200001e4 	.word	0x200001e4

080014b4 <SystemClock_Config>:

void SystemClock_Config(void)
{
 80014b4:	b590      	push	{r4, r7, lr}
 80014b6:	b08d      	sub	sp, #52	@ 0x34
 80014b8:	af00      	add	r7, sp, #0
    RCC_OscInitTypeDef RCC_OscInitStruct = {0};
 80014ba:	2414      	movs	r4, #20
 80014bc:	193b      	adds	r3, r7, r4
 80014be:	0018      	movs	r0, r3
 80014c0:	231c      	movs	r3, #28
 80014c2:	001a      	movs	r2, r3
 80014c4:	2100      	movs	r1, #0
 80014c6:	f003 fed3 	bl	8005270 <memset>
    RCC_ClkInitTypeDef RCC_ClkInitStruct = {0};
 80014ca:	003b      	movs	r3, r7
 80014cc:	0018      	movs	r0, r3
 80014ce:	2314      	movs	r3, #20
 80014d0:	001a      	movs	r2, r3
 80014d2:	2100      	movs	r1, #0
 80014d4:	f003 fecc 	bl	8005270 <memset>

    __HAL_FLASH_SET_LATENCY(FLASH_LATENCY_1);
 80014d8:	4b1c      	ldr	r3, [pc, #112]	@ (800154c <SystemClock_Config+0x98>)
 80014da:	681b      	ldr	r3, [r3, #0]
 80014dc:	2207      	movs	r2, #7
 80014de:	4393      	bics	r3, r2
 80014e0:	001a      	movs	r2, r3
 80014e2:	4b1a      	ldr	r3, [pc, #104]	@ (800154c <SystemClock_Config+0x98>)
 80014e4:	2101      	movs	r1, #1
 80014e6:	430a      	orrs	r2, r1
 80014e8:	601a      	str	r2, [r3, #0]

    RCC_OscInitStruct.OscillatorType = RCC_OSCILLATORTYPE_HSI;
 80014ea:	193b      	adds	r3, r7, r4
 80014ec:	2202      	movs	r2, #2
 80014ee:	601a      	str	r2, [r3, #0]
    RCC_OscInitStruct.HSIState = RCC_HSI_ON;
 80014f0:	193b      	adds	r3, r7, r4
 80014f2:	2280      	movs	r2, #128	@ 0x80
 80014f4:	0052      	lsls	r2, r2, #1
 80014f6:	60da      	str	r2, [r3, #12]
    RCC_OscInitStruct.HSIDiv = RCC_HSI_DIV1;
 80014f8:	193b      	adds	r3, r7, r4
 80014fa:	2200      	movs	r2, #0
 80014fc:	611a      	str	r2, [r3, #16]
    RCC_OscInitStruct.HSICalibrationValue = RCC_HSICALIBRATION_DEFAULT;
 80014fe:	193b      	adds	r3, r7, r4
 8001500:	2240      	movs	r2, #64	@ 0x40
 8001502:	615a      	str	r2, [r3, #20]
    if (HAL_RCC_OscConfig(&RCC_OscInitStruct) != HAL_OK)
 8001504:	193b      	adds	r3, r7, r4
 8001506:	0018      	movs	r0, r3
 8001508:	f001 fc34 	bl	8002d74 <HAL_RCC_OscConfig>
 800150c:	1e03      	subs	r3, r0, #0
 800150e:	d001      	beq.n	8001514 <SystemClock_Config+0x60>
    {
        Error_Handler();
 8001510:	f000 fa68 	bl	80019e4 <Error_Handler>
    }

    RCC_ClkInitStruct.ClockType = RCC_CLOCKTYPE_HCLK | RCC_CLOCKTYPE_SYSCLK | RCC_CLOCKTYPE_PCLK1;
 8001514:	003b      	movs	r3, r7
 8001516:	2207      	movs	r2, #7
 8001518:	601a      	str	r2, [r3, #0]
    RCC_ClkInitStruct.SYSCLKSource = RCC_SYSCLKSOURCE_HSI;
 800151a:	003b      	movs	r3, r7
 800151c:	2200      	movs	r2, #0
 800151e:	605a      	str	r2, [r3, #4]
    RCC_ClkInitStruct.SYSCLKDivider = RCC_SYSCLK_DIV1;
 8001520:	003b      	movs	r3, r7
 8001522:	2200      	movs	r2, #0
 8001524:	609a      	str	r2, [r3, #8]
    RCC_ClkInitStruct.AHBCLKDivider = RCC_HCLK_DIV1;
 8001526:	003b      	movs	r3, r7
 8001528:	2200      	movs	r2, #0
 800152a:	60da      	str	r2, [r3, #12]
    RCC_ClkInitStruct.APB1CLKDivider = RCC_APB1_DIV1;
 800152c:	003b      	movs	r3, r7
 800152e:	2200      	movs	r2, #0
 8001530:	611a      	str	r2, [r3, #16]

    if (HAL_RCC_ClockConfig(&RCC_ClkInitStruct, FLASH_LATENCY_1) != HAL_OK)
 8001532:	003b      	movs	r3, r7
 8001534:	2101      	movs	r1, #1
 8001536:	0018      	movs	r0, r3
 8001538:	f001 fe00 	bl	800313c <HAL_RCC_ClockConfig>
 800153c:	1e03      	subs	r3, r0, #0
 800153e:	d001      	beq.n	8001544 <SystemClock_Config+0x90>
    {
        Error_Handler();
 8001540:	f000 fa50 	bl	80019e4 <Error_Handler>
    }
}
 8001544:	46c0      	nop			@ (mov r8, r8)
 8001546:	46bd      	mov	sp, r7
 8001548:	b00d      	add	sp, #52	@ 0x34
 800154a:	bd90      	pop	{r4, r7, pc}
 800154c:	40022000 	.word	0x40022000

08001550 <MX_ADC1_Init>:

static void MX_ADC1_Init(void)
{
 8001550:	b580      	push	{r7, lr}
 8001552:	b084      	sub	sp, #16
 8001554:	af00      	add	r7, sp, #0
    ADC_ChannelConfTypeDef sConfig = {0};
 8001556:	1d3b      	adds	r3, r7, #4
 8001558:	0018      	movs	r0, r3
 800155a:	230c      	movs	r3, #12
 800155c:	001a      	movs	r2, r3
 800155e:	2100      	movs	r1, #0
 8001560:	f003 fe86 	bl	8005270 <memset>
    hadc1.Instance = ADC1;
 8001564:	4b2b      	ldr	r3, [pc, #172]	@ (8001614 <MX_ADC1_Init+0xc4>)
 8001566:	4a2c      	ldr	r2, [pc, #176]	@ (8001618 <MX_ADC1_Init+0xc8>)
 8001568:	601a      	str	r2, [r3, #0]
    hadc1.Init.ClockPrescaler = ADC_CLOCK_SYNC_PCLK_DIV2;
 800156a:	4b2a      	ldr	r3, [pc, #168]	@ (8001614 <MX_ADC1_Init+0xc4>)
 800156c:	2280      	movs	r2, #128	@ 0x80
 800156e:	05d2      	lsls	r2, r2, #23
 8001570:	605a      	str	r2, [r3, #4]
    hadc1.Init.Resolution = ADC_RESOLUTION_12B;
 8001572:	4b28      	ldr	r3, [pc, #160]	@ (8001614 <MX_ADC1_Init+0xc4>)
 8001574:	2200      	movs	r2, #0
 8001576:	609a      	str	r2, [r3, #8]
    hadc1.Init.DataAlign = ADC_DATAALIGN_RIGHT;
 8001578:	4b26      	ldr	r3, [pc, #152]	@ (8001614 <MX_ADC1_Init+0xc4>)
 800157a:	2200      	movs	r2, #0
 800157c:	60da      	str	r2, [r3, #12]
    hadc1.Init.ScanConvMode = ADC_SCAN_SEQ_FIXED;
 800157e:	4b25      	ldr	r3, [pc, #148]	@ (8001614 <MX_ADC1_Init+0xc4>)
 8001580:	2280      	movs	r2, #128	@ 0x80
 8001582:	0612      	lsls	r2, r2, #24
 8001584:	611a      	str	r2, [r3, #16]
    hadc1.Init.EOCSelection = ADC_EOC_SINGLE_CONV;
 8001586:	4b23      	ldr	r3, [pc, #140]	@ (8001614 <MX_ADC1_Init+0xc4>)
 8001588:	2204      	movs	r2, #4
 800158a:	615a      	str	r2, [r3, #20]
    hadc1.Init.LowPowerAutoWait = DISABLE;
 800158c:	4b21      	ldr	r3, [pc, #132]	@ (8001614 <MX_ADC1_Init+0xc4>)
 800158e:	2200      	movs	r2, #0
 8001590:	761a      	strb	r2, [r3, #24]
    hadc1.Init.LowPowerAutoPowerOff = DISABLE;
 8001592:	4b20      	ldr	r3, [pc, #128]	@ (8001614 <MX_ADC1_Init+0xc4>)
 8001594:	2200      	movs	r2, #0
 8001596:	765a      	strb	r2, [r3, #25]
    hadc1.Init.ContinuousConvMode = DISABLE;
 8001598:	4b1e      	ldr	r3, [pc, #120]	@ (8001614 <MX_ADC1_Init+0xc4>)
 800159a:	2200      	movs	r2, #0
 800159c:	769a      	strb	r2, [r3, #26]
    hadc1.Init.NbrOfConversion = 1;
 800159e:	4b1d      	ldr	r3, [pc, #116]	@ (8001614 <MX_ADC1_Init+0xc4>)
 80015a0:	2201      	movs	r2, #1
 80015a2:	61da      	str	r2, [r3, #28]
    hadc1.Init.DiscontinuousConvMode = DISABLE;
 80015a4:	4b1b      	ldr	r3, [pc, #108]	@ (8001614 <MX_ADC1_Init+0xc4>)
 80015a6:	2220      	movs	r2, #32
 80015a8:	2100      	movs	r1, #0
 80015aa:	5499      	strb	r1, [r3, r2]
    hadc1.Init.ExternalTrigConv = ADC_SOFTWARE_START;
 80015ac:	4b19      	ldr	r3, [pc, #100]	@ (8001614 <MX_ADC1_Init+0xc4>)
 80015ae:	2200      	movs	r2, #0
 80015b0:	625a      	str	r2, [r3, #36]	@ 0x24
    hadc1.Init.ExternalTrigConvEdge = ADC_EXTERNALTRIGCONVEDGE_NONE;
 80015b2:	4b18      	ldr	r3, [pc, #96]	@ (8001614 <MX_ADC1_Init+0xc4>)
 80015b4:	2200      	movs	r2, #0
 80015b6:	629a      	str	r2, [r3, #40]	@ 0x28
    hadc1.Init.DMAContinuousRequests = DISABLE;
 80015b8:	4b16      	ldr	r3, [pc, #88]	@ (8001614 <MX_ADC1_Init+0xc4>)
 80015ba:	222c      	movs	r2, #44	@ 0x2c
 80015bc:	2100      	movs	r1, #0
 80015be:	5499      	strb	r1, [r3, r2]
    hadc1.Init.Overrun = ADC_OVR_DATA_PRESERVED;
 80015c0:	4b14      	ldr	r3, [pc, #80]	@ (8001614 <MX_ADC1_Init+0xc4>)
 80015c2:	2200      	movs	r2, #0
 80015c4:	631a      	str	r2, [r3, #48]	@ 0x30
    hadc1.Init.SamplingTimeCommon1 = ADC_SAMPLETIME_1CYCLE_5;
 80015c6:	4b13      	ldr	r3, [pc, #76]	@ (8001614 <MX_ADC1_Init+0xc4>)
 80015c8:	2200      	movs	r2, #0
 80015ca:	635a      	str	r2, [r3, #52]	@ 0x34
    hadc1.Init.OversamplingMode = DISABLE;
 80015cc:	4b11      	ldr	r3, [pc, #68]	@ (8001614 <MX_ADC1_Init+0xc4>)
 80015ce:	223c      	movs	r2, #60	@ 0x3c
 80015d0:	2100      	movs	r1, #0
 80015d2:	5499      	strb	r1, [r3, r2]
    hadc1.Init.TriggerFrequencyMode = ADC_TRIGGER_FREQ_HIGH;
 80015d4:	4b0f      	ldr	r3, [pc, #60]	@ (8001614 <MX_ADC1_Init+0xc4>)
 80015d6:	2200      	movs	r2, #0
 80015d8:	64da      	str	r2, [r3, #76]	@ 0x4c
    if (HAL_ADC_Init(&hadc1) != HAL_OK) { Error_Handler(); }
 80015da:	4b0e      	ldr	r3, [pc, #56]	@ (8001614 <MX_ADC1_Init+0xc4>)
 80015dc:	0018      	movs	r0, r3
 80015de:	f000 fdf5 	bl	80021cc <HAL_ADC_Init>
 80015e2:	1e03      	subs	r3, r0, #0
 80015e4:	d001      	beq.n	80015ea <MX_ADC1_Init+0x9a>
 80015e6:	f000 f9fd 	bl	80019e4 <Error_Handler>
    sConfig.Channel = ADC_CHANNEL_8;
 80015ea:	1d3b      	adds	r3, r7, #4
 80015ec:	4a0b      	ldr	r2, [pc, #44]	@ (800161c <MX_ADC1_Init+0xcc>)
 80015ee:	601a      	str	r2, [r3, #0]
    sConfig.Rank = ADC_RANK_CHANNEL_NUMBER;
 80015f0:	1d3b      	adds	r3, r7, #4
 80015f2:	2201      	movs	r2, #1
 80015f4:	605a      	str	r2, [r3, #4]
    if (HAL_ADC_ConfigChannel(&hadc1, &sConfig) != HAL_OK) { Error_Handler(); }
 80015f6:	1d3a      	adds	r2, r7, #4
 80015f8:	4b06      	ldr	r3, [pc, #24]	@ (8001614 <MX_ADC1_Init+0xc4>)
 80015fa:	0011      	movs	r1, r2
 80015fc:	0018      	movs	r0, r3
 80015fe:	f000 ff8b 	bl	8002518 <HAL_ADC_ConfigChannel>
 8001602:	1e03      	subs	r3, r0, #0
 8001604:	d001      	beq.n	800160a <MX_ADC1_Init+0xba>
 8001606:	f000 f9ed 	bl	80019e4 <Error_Handler>
}
 800160a:	46c0      	nop			@ (mov r8, r8)
 800160c:	46bd      	mov	sp, r7
 800160e:	b004      	add	sp, #16
 8001610:	bd80      	pop	{r7, pc}
 8001612:	46c0      	nop			@ (mov r8, r8)
 8001614:	20000084 	.word	0x20000084
 8001618:	40012400 	.word	0x40012400
 800161c:	20000100 	.word	0x20000100

08001620 <MX_SPI1_Init>:

static void MX_SPI1_Init(void)
{
 8001620:	b580      	push	{r7, lr}
 8001622:	af00      	add	r7, sp, #0
    hspi1.Instance = SPI1;
 8001624:	4b1b      	ldr	r3, [pc, #108]	@ (8001694 <MX_SPI1_Init+0x74>)
 8001626:	4a1c      	ldr	r2, [pc, #112]	@ (8001698 <MX_SPI1_Init+0x78>)
 8001628:	601a      	str	r2, [r3, #0]
    hspi1.Init.Mode = SPI_MODE_MASTER;
 800162a:	4b1a      	ldr	r3, [pc, #104]	@ (8001694 <MX_SPI1_Init+0x74>)
 800162c:	2282      	movs	r2, #130	@ 0x82
 800162e:	0052      	lsls	r2, r2, #1
 8001630:	605a      	str	r2, [r3, #4]
    hspi1.Init.Direction = SPI_DIRECTION_2LINES;
 8001632:	4b18      	ldr	r3, [pc, #96]	@ (8001694 <MX_SPI1_Init+0x74>)
 8001634:	2200      	movs	r2, #0
 8001636:	609a      	str	r2, [r3, #8]
    hspi1.Init.DataSize = SPI_DATASIZE_8BIT;
 8001638:	4b16      	ldr	r3, [pc, #88]	@ (8001694 <MX_SPI1_Init+0x74>)
 800163a:	22e0      	movs	r2, #224	@ 0xe0
 800163c:	00d2      	lsls	r2, r2, #3
 800163e:	60da      	str	r2, [r3, #12]
    hspi1.Init.CLKPolarity = SPI_POLARITY_LOW;
 8001640:	4b14      	ldr	r3, [pc, #80]	@ (8001694 <MX_SPI1_Init+0x74>)
 8001642:	2200      	movs	r2, #0
 8001644:	611a      	str	r2, [r3, #16]
    hspi1.Init.CLKPhase = SPI_PHASE_1EDGE;
 8001646:	4b13      	ldr	r3, [pc, #76]	@ (8001694 <MX_SPI1_Init+0x74>)
 8001648:	2200      	movs	r2, #0
 800164a:	615a      	str	r2, [r3, #20]
    hspi1.Init.NSS = SPI_NSS_HARD_OUTPUT;
 800164c:	4b11      	ldr	r3, [pc, #68]	@ (8001694 <MX_SPI1_Init+0x74>)
 800164e:	2280      	movs	r2, #128	@ 0x80
 8001650:	02d2      	lsls	r2, r2, #11
 8001652:	619a      	str	r2, [r3, #24]
    hspi1.Init.BaudRatePrescaler = SPI_BAUDRATEPRESCALER_8;
 8001654:	4b0f      	ldr	r3, [pc, #60]	@ (8001694 <MX_SPI1_Init+0x74>)
 8001656:	2210      	movs	r2, #16
 8001658:	61da      	str	r2, [r3, #28]
    hspi1.Init.FirstBit = SPI_FIRSTBIT_MSB;
 800165a:	4b0e      	ldr	r3, [pc, #56]	@ (8001694 <MX_SPI1_Init+0x74>)
 800165c:	2200      	movs	r2, #0
 800165e:	621a      	str	r2, [r3, #32]
    hspi1.Init.TIMode = SPI_TIMODE_DISABLE;
 8001660:	4b0c      	ldr	r3, [pc, #48]	@ (8001694 <MX_SPI1_Init+0x74>)
 8001662:	2200      	movs	r2, #0
 8001664:	625a      	str	r2, [r3, #36]	@ 0x24
    hspi1.Init.CRCCalculation = SPI_CRCCALCULATION_DISABLE;
 8001666:	4b0b      	ldr	r3, [pc, #44]	@ (8001694 <MX_SPI1_Init+0x74>)
 8001668:	2200      	movs	r2, #0
 800166a:	629a      	str	r2, [r3, #40]	@ 0x28
    hspi1.Init.CRCPolynomial = 7;
 800166c:	4b09      	ldr	r3, [pc, #36]	@ (8001694 <MX_SPI1_Init+0x74>)
 800166e:	2207      	movs	r2, #7
 8001670:	62da      	str	r2, [r3, #44]	@ 0x2c
    hspi1.Init.CRCLength = SPI_CRC_LENGTH_DATASIZE;
 8001672:	4b08      	ldr	r3, [pc, #32]	@ (8001694 <MX_SPI1_Init+0x74>)
 8001674:	2200      	movs	r2, #0
 8001676:	631a      	str	r2, [r3, #48]	@ 0x30
    hspi1.Init.NSSPMode = SPI_NSS_PULSE_ENABLE;
 8001678:	4b06      	ldr	r3, [pc, #24]	@ (8001694 <MX_SPI1_Init+0x74>)
 800167a:	2208      	movs	r2, #8
 800167c:	635a      	str	r2, [r3, #52]	@ 0x34
    if (HAL_SPI_Init(&hspi1) != HAL_OK) { Error_Handler(); }
 800167e:	4b05      	ldr	r3, [pc, #20]	@ (8001694 <MX_SPI1_Init+0x74>)
 8001680:	0018      	movs	r0, r3
 8001682:	f001 ffbf 	bl	8003604 <HAL_SPI_Init>
 8001686:	1e03      	subs	r3, r0, #0
 8001688:	d001      	beq.n	800168e <MX_SPI1_Init+0x6e>
 800168a:	f000 f9ab 	bl	80019e4 <Error_Handler>
}
 800168e:	46c0      	nop			@ (mov r8, r8)
 8001690:	46bd      	mov	sp, r7
 8001692:	bd80      	pop	{r7, pc}
 8001694:	200000e8 	.word	0x200000e8
 8001698:	40013000 	.word	0x40013000

0800169c <MX_TIM1_Init>:

static void MX_TIM1_Init(void)
{
 800169c:	b580      	push	{r7, lr}
 800169e:	b088      	sub	sp, #32
 80016a0:	af00      	add	r7, sp, #0
    TIM_ClockConfigTypeDef sClockSourceConfig = {0};
 80016a2:	2310      	movs	r3, #16
 80016a4:	18fb      	adds	r3, r7, r3
 80016a6:	0018      	movs	r0, r3
 80016a8:	2310      	movs	r3, #16
 80016aa:	001a      	movs	r2, r3
 80016ac:	2100      	movs	r1, #0
 80016ae:	f003 fddf 	bl	8005270 <memset>
    TIM_MasterConfigTypeDef sMasterConfig = {0};
 80016b2:	1d3b      	adds	r3, r7, #4
 80016b4:	0018      	movs	r0, r3
 80016b6:	230c      	movs	r3, #12
 80016b8:	001a      	movs	r2, r3
 80016ba:	2100      	movs	r1, #0
 80016bc:	f003 fdd8 	bl	8005270 <memset>
    htim1.Instance = TIM1;
 80016c0:	4b21      	ldr	r3, [pc, #132]	@ (8001748 <MX_TIM1_Init+0xac>)
 80016c2:	4a22      	ldr	r2, [pc, #136]	@ (800174c <MX_TIM1_Init+0xb0>)
 80016c4:	601a      	str	r2, [r3, #0]
    htim1.Init.Prescaler = 0;
 80016c6:	4b20      	ldr	r3, [pc, #128]	@ (8001748 <MX_TIM1_Init+0xac>)
 80016c8:	2200      	movs	r2, #0
 80016ca:	605a      	str	r2, [r3, #4]
    htim1.Init.CounterMode = TIM_COUNTERMODE_UP;
 80016cc:	4b1e      	ldr	r3, [pc, #120]	@ (8001748 <MX_TIM1_Init+0xac>)
 80016ce:	2200      	movs	r2, #0
 80016d0:	609a      	str	r2, [r3, #8]
    htim1.Init.Period = 65535;
 80016d2:	4b1d      	ldr	r3, [pc, #116]	@ (8001748 <MX_TIM1_Init+0xac>)
 80016d4:	4a1e      	ldr	r2, [pc, #120]	@ (8001750 <MX_TIM1_Init+0xb4>)
 80016d6:	60da      	str	r2, [r3, #12]
    htim1.Init.ClockDivision = TIM_CLOCKDIVISION_DIV1;
 80016d8:	4b1b      	ldr	r3, [pc, #108]	@ (8001748 <MX_TIM1_Init+0xac>)
 80016da:	2200      	movs	r2, #0
 80016dc:	611a      	str	r2, [r3, #16]
    htim1.Init.RepetitionCounter = 0;
 80016de:	4b1a      	ldr	r3, [pc, #104]	@ (8001748 <MX_TIM1_Init+0xac>)
 80016e0:	2200      	movs	r2, #0
 80016e2:	615a      	str	r2, [r3, #20]
    htim1.Init.AutoReloadPreload = TIM_AUTORELOAD_PRELOAD_DISABLE;
 80016e4:	4b18      	ldr	r3, [pc, #96]	@ (8001748 <MX_TIM1_Init+0xac>)
 80016e6:	2200      	movs	r2, #0
 80016e8:	619a      	str	r2, [r3, #24]
    if (HAL_TIM_Base_Init(&htim1) != HAL_OK) { Error_Handler(); }
 80016ea:	4b17      	ldr	r3, [pc, #92]	@ (8001748 <MX_TIM1_Init+0xac>)
 80016ec:	0018      	movs	r0, r3
 80016ee:	f002 f841 	bl	8003774 <HAL_TIM_Base_Init>
 80016f2:	1e03      	subs	r3, r0, #0
 80016f4:	d001      	beq.n	80016fa <MX_TIM1_Init+0x5e>
 80016f6:	f000 f975 	bl	80019e4 <Error_Handler>
    sClockSourceConfig.ClockSource = TIM_CLOCKSOURCE_INTERNAL;
 80016fa:	2110      	movs	r1, #16
 80016fc:	187b      	adds	r3, r7, r1
 80016fe:	2280      	movs	r2, #128	@ 0x80
 8001700:	0152      	lsls	r2, r2, #5
 8001702:	601a      	str	r2, [r3, #0]
    if (HAL_TIM_ConfigClockSource(&htim1, &sClockSourceConfig) != HAL_OK) { Error_Handler(); }
 8001704:	187a      	adds	r2, r7, r1
 8001706:	4b10      	ldr	r3, [pc, #64]	@ (8001748 <MX_TIM1_Init+0xac>)
 8001708:	0011      	movs	r1, r2
 800170a:	0018      	movs	r0, r3
 800170c:	f002 fac2 	bl	8003c94 <HAL_TIM_ConfigClockSource>
 8001710:	1e03      	subs	r3, r0, #0
 8001712:	d001      	beq.n	8001718 <MX_TIM1_Init+0x7c>
 8001714:	f000 f966 	bl	80019e4 <Error_Handler>
    sMasterConfig.MasterOutputTrigger = TIM_TRGO_RESET;
 8001718:	1d3b      	adds	r3, r7, #4
 800171a:	2200      	movs	r2, #0
 800171c:	601a      	str	r2, [r3, #0]
    sMasterConfig.MasterOutputTrigger2 = TIM_TRGO2_RESET;
 800171e:	1d3b      	adds	r3, r7, #4
 8001720:	2200      	movs	r2, #0
 8001722:	605a      	str	r2, [r3, #4]
    sMasterConfig.MasterSlaveMode = TIM_MASTERSLAVEMODE_DISABLE;
 8001724:	1d3b      	adds	r3, r7, #4
 8001726:	2200      	movs	r2, #0
 8001728:	609a      	str	r2, [r3, #8]
    if (HAL_TIMEx_MasterConfigSynchronization(&htim1, &sMasterConfig) != HAL_OK) { Error_Handler(); }
 800172a:	1d3a      	adds	r2, r7, #4
 800172c:	4b06      	ldr	r3, [pc, #24]	@ (8001748 <MX_TIM1_Init+0xac>)
 800172e:	0011      	movs	r1, r2
 8001730:	0018      	movs	r0, r3
 8001732:	f002 ff53 	bl	80045dc <HAL_TIMEx_MasterConfigSynchronization>
 8001736:	1e03      	subs	r3, r0, #0
 8001738:	d001      	beq.n	800173e <MX_TIM1_Init+0xa2>
 800173a:	f000 f953 	bl	80019e4 <Error_Handler>
}
 800173e:	46c0      	nop			@ (mov r8, r8)
 8001740:	46bd      	mov	sp, r7
 8001742:	b008      	add	sp, #32
 8001744:	bd80      	pop	{r7, pc}
 8001746:	46c0      	nop			@ (mov r8, r8)
 8001748:	2000014c 	.word	0x2000014c
 800174c:	40012c00 	.word	0x40012c00
 8001750:	0000ffff 	.word	0x0000ffff

08001754 <MX_TIM3_Init>:

static void MX_TIM3_Init(void)
{
 8001754:	b580      	push	{r7, lr}
 8001756:	b08e      	sub	sp, #56	@ 0x38
 8001758:	af00      	add	r7, sp, #0
    TIM_ClockConfigTypeDef sClockSourceConfig = {0};
 800175a:	2328      	movs	r3, #40	@ 0x28
 800175c:	18fb      	adds	r3, r7, r3
 800175e:	0018      	movs	r0, r3
 8001760:	2310      	movs	r3, #16
 8001762:	001a      	movs	r2, r3
 8001764:	2100      	movs	r1, #0
 8001766:	f003 fd83 	bl	8005270 <memset>
    TIM_MasterConfigTypeDef sMasterConfig = {0};
 800176a:	231c      	movs	r3, #28
 800176c:	18fb      	adds	r3, r7, r3
 800176e:	0018      	movs	r0, r3
 8001770:	230c      	movs	r3, #12
 8001772:	001a      	movs	r2, r3
 8001774:	2100      	movs	r1, #0
 8001776:	f003 fd7b 	bl	8005270 <memset>
    TIM_OC_InitTypeDef sConfigOC = {0};
 800177a:	003b      	movs	r3, r7
 800177c:	0018      	movs	r0, r3
 800177e:	231c      	movs	r3, #28
 8001780:	001a      	movs	r2, r3
 8001782:	2100      	movs	r1, #0
 8001784:	f003 fd74 	bl	8005270 <memset>
    htim3.Instance = TIM3;
 8001788:	4b2f      	ldr	r3, [pc, #188]	@ (8001848 <MX_TIM3_Init+0xf4>)
 800178a:	4a30      	ldr	r2, [pc, #192]	@ (800184c <MX_TIM3_Init+0xf8>)
 800178c:	601a      	str	r2, [r3, #0]
    htim3.Init.Prescaler = 0;
 800178e:	4b2e      	ldr	r3, [pc, #184]	@ (8001848 <MX_TIM3_Init+0xf4>)
 8001790:	2200      	movs	r2, #0
 8001792:	605a      	str	r2, [r3, #4]
    htim3.Init.CounterMode = TIM_COUNTERMODE_UP;
 8001794:	4b2c      	ldr	r3, [pc, #176]	@ (8001848 <MX_TIM3_Init+0xf4>)
 8001796:	2200      	movs	r2, #0
 8001798:	609a      	str	r2, [r3, #8]
    htim3.Init.Period = 11999;
 800179a:	4b2b      	ldr	r3, [pc, #172]	@ (8001848 <MX_TIM3_Init+0xf4>)
 800179c:	4a2c      	ldr	r2, [pc, #176]	@ (8001850 <MX_TIM3_Init+0xfc>)
 800179e:	60da      	str	r2, [r3, #12]
    htim3.Init.ClockDivision = TIM_CLOCKDIVISION_DIV1;
 80017a0:	4b29      	ldr	r3, [pc, #164]	@ (8001848 <MX_TIM3_Init+0xf4>)
 80017a2:	2200      	movs	r2, #0
 80017a4:	611a      	str	r2, [r3, #16]
    htim3.Init.AutoReloadPreload = TIM_AUTORELOAD_PRELOAD_DISABLE;
 80017a6:	4b28      	ldr	r3, [pc, #160]	@ (8001848 <MX_TIM3_Init+0xf4>)
 80017a8:	2200      	movs	r2, #0
 80017aa:	619a      	str	r2, [r3, #24]
    if (HAL_TIM_Base_Init(&htim3) != HAL_OK) { Error_Handler(); }
 80017ac:	4b26      	ldr	r3, [pc, #152]	@ (8001848 <MX_TIM3_Init+0xf4>)
 80017ae:	0018      	movs	r0, r3
 80017b0:	f001 ffe0 	bl	8003774 <HAL_TIM_Base_Init>
 80017b4:	1e03      	subs	r3, r0, #0
 80017b6:	d001      	beq.n	80017bc <MX_TIM3_Init+0x68>
 80017b8:	f000 f914 	bl	80019e4 <Error_Handler>
    sClockSourceConfig.ClockSource = TIM_CLOCKSOURCE_INTERNAL;
 80017bc:	2128      	movs	r1, #40	@ 0x28
 80017be:	187b      	adds	r3, r7, r1
 80017c0:	2280      	movs	r2, #128	@ 0x80
 80017c2:	0152      	lsls	r2, r2, #5
 80017c4:	601a      	str	r2, [r3, #0]
    if (HAL_TIM_ConfigClockSource(&htim3, &sClockSourceConfig) != HAL_OK) { Error_Handler(); }
 80017c6:	187a      	adds	r2, r7, r1
 80017c8:	4b1f      	ldr	r3, [pc, #124]	@ (8001848 <MX_TIM3_Init+0xf4>)
 80017ca:	0011      	movs	r1, r2
 80017cc:	0018      	movs	r0, r3
 80017ce:	f002 fa61 	bl	8003c94 <HAL_TIM_ConfigClockSource>
 80017d2:	1e03      	subs	r3, r0, #0
 80017d4:	d001      	beq.n	80017da <MX_TIM3_Init+0x86>
 80017d6:	f000 f905 	bl	80019e4 <Error_Handler>
    if (HAL_TIM_PWM_Init(&htim3) != HAL_OK) { Error_Handler(); }
 80017da:	4b1b      	ldr	r3, [pc, #108]	@ (8001848 <MX_TIM3_Init+0xf4>)
 80017dc:	0018      	movs	r0, r3
 80017de:	f002 f821 	bl	8003824 <HAL_TIM_PWM_Init>
 80017e2:	1e03      	subs	r3, r0, #0
 80017e4:	d001      	beq.n	80017ea <MX_TIM3_Init+0x96>
 80017e6:	f000 f8fd 	bl	80019e4 <Error_Handler>
    sMasterConfig.MasterOutputTrigger = TIM_TRGO_RESET;
 80017ea:	211c      	movs	r1, #28
 80017ec:	187b      	adds	r3, r7, r1
 80017ee:	2200      	movs	r2, #0
 80017f0:	601a      	str	r2, [r3, #0]
    sMasterConfig.MasterSlaveMode = TIM_MASTERSLAVEMODE_DISABLE;
 80017f2:	187b      	adds	r3, r7, r1
 80017f4:	2200      	movs	r2, #0
 80017f6:	609a      	str	r2, [r3, #8]
    if (HAL_TIMEx_MasterConfigSynchronization(&htim3, &sMasterConfig) != HAL_OK) { Error_Handler(); }
 80017f8:	187a      	adds	r2, r7, r1
 80017fa:	4b13      	ldr	r3, [pc, #76]	@ (8001848 <MX_TIM3_Init+0xf4>)
 80017fc:	0011      	movs	r1, r2
 80017fe:	0018      	movs	r0, r3
 8001800:	f002 feec 	bl	80045dc <HAL_TIMEx_MasterConfigSynchronization>
 8001804:	1e03      	subs	r3, r0, #0
 8001806:	d001      	beq.n	800180c <MX_TIM3_Init+0xb8>
 8001808:	f000 f8ec 	bl	80019e4 <Error_Handler>
    sConfigOC.OCMode = TIM_OCMODE_PWM1;
 800180c:	003b      	movs	r3, r7
 800180e:	2260      	movs	r2, #96	@ 0x60
 8001810:	601a      	str	r2, [r3, #0]
    sConfigOC.Pulse = 0;
 8001812:	003b      	movs	r3, r7
 8001814:	2200      	movs	r2, #0
 8001816:	605a      	str	r2, [r3, #4]
    sConfigOC.OCPolarity = TIM_OCPOLARITY_HIGH;
 8001818:	003b      	movs	r3, r7
 800181a:	2200      	movs	r2, #0
 800181c:	609a      	str	r2, [r3, #8]
    sConfigOC.OCFastMode = TIM_OCFAST_DISABLE;
 800181e:	003b      	movs	r3, r7
 8001820:	2200      	movs	r2, #0
 8001822:	611a      	str	r2, [r3, #16]
    if (HAL_TIM_PWM_ConfigChannel(&htim3, &sConfigOC, TIM_CHANNEL_1) != HAL_OK) { Error_Handler(); }
 8001824:	0039      	movs	r1, r7
 8001826:	4b08      	ldr	r3, [pc, #32]	@ (8001848 <MX_TIM3_Init+0xf4>)
 8001828:	2200      	movs	r2, #0
 800182a:	0018      	movs	r0, r3
 800182c:	f002 f932 	bl	8003a94 <HAL_TIM_PWM_ConfigChannel>
 8001830:	1e03      	subs	r3, r0, #0
 8001832:	d001      	beq.n	8001838 <MX_TIM3_Init+0xe4>
 8001834:	f000 f8d6 	bl	80019e4 <Error_Handler>
    HAL_TIM_MspPostInit(&htim3);
 8001838:	4b03      	ldr	r3, [pc, #12]	@ (8001848 <MX_TIM3_Init+0xf4>)
 800183a:	0018      	movs	r0, r3
 800183c:	f000 f9f2 	bl	8001c24 <HAL_TIM_MspPostInit>
}
 8001840:	46c0      	nop			@ (mov r8, r8)
 8001842:	46bd      	mov	sp, r7
 8001844:	b00e      	add	sp, #56	@ 0x38
 8001846:	bd80      	pop	{r7, pc}
 8001848:	20000198 	.word	0x20000198
 800184c:	40000400 	.word	0x40000400
 8001850:	00002edf 	.word	0x00002edf

08001854 <MX_USART1_UART_Init>:

static void MX_USART1_UART_Init(void)
{
 8001854:	b580      	push	{r7, lr}
 8001856:	af00      	add	r7, sp, #0
    huart1.Instance = USART1;
 8001858:	4b23      	ldr	r3, [pc, #140]	@ (80018e8 <MX_USART1_UART_Init+0x94>)
 800185a:	4a24      	ldr	r2, [pc, #144]	@ (80018ec <MX_USART1_UART_Init+0x98>)
 800185c:	601a      	str	r2, [r3, #0]
    huart1.Init.BaudRate = 115200;
 800185e:	4b22      	ldr	r3, [pc, #136]	@ (80018e8 <MX_USART1_UART_Init+0x94>)
 8001860:	22e1      	movs	r2, #225	@ 0xe1
 8001862:	0252      	lsls	r2, r2, #9
 8001864:	605a      	str	r2, [r3, #4]
    huart1.Init.WordLength = UART_WORDLENGTH_8B;
 8001866:	4b20      	ldr	r3, [pc, #128]	@ (80018e8 <MX_USART1_UART_Init+0x94>)
 8001868:	2200      	movs	r2, #0
 800186a:	609a      	str	r2, [r3, #8]
    huart1.Init.StopBits = UART_STOPBITS_1;
 800186c:	4b1e      	ldr	r3, [pc, #120]	@ (80018e8 <MX_USART1_UART_Init+0x94>)
 800186e:	2200      	movs	r2, #0
 8001870:	60da      	str	r2, [r3, #12]
    huart1.Init.Parity = UART_PARITY_NONE;
 8001872:	4b1d      	ldr	r3, [pc, #116]	@ (80018e8 <MX_USART1_UART_Init+0x94>)
 8001874:	2200      	movs	r2, #0
 8001876:	611a      	str	r2, [r3, #16]
    huart1.Init.Mode = UART_MODE_TX_RX;
 8001878:	4b1b      	ldr	r3, [pc, #108]	@ (80018e8 <MX_USART1_UART_Init+0x94>)
 800187a:	220c      	movs	r2, #12
 800187c:	615a      	str	r2, [r3, #20]
    huart1.Init.HwFlowCtl = UART_HWCONTROL_NONE;
 800187e:	4b1a      	ldr	r3, [pc, #104]	@ (80018e8 <MX_USART1_UART_Init+0x94>)
 8001880:	2200      	movs	r2, #0
 8001882:	619a      	str	r2, [r3, #24]
    huart1.Init.OverSampling = UART_OVERSAMPLING_16;
 8001884:	4b18      	ldr	r3, [pc, #96]	@ (80018e8 <MX_USART1_UART_Init+0x94>)
 8001886:	2200      	movs	r2, #0
 8001888:	61da      	str	r2, [r3, #28]
    huart1.Init.OneBitSampling = UART_ONE_BIT_SAMPLE_DISABLE;
 800188a:	4b17      	ldr	r3, [pc, #92]	@ (80018e8 <MX_USART1_UART_Init+0x94>)
 800188c:	2200      	movs	r2, #0
 800188e:	621a      	str	r2, [r3, #32]
    huart1.Init.ClockPrescaler = UART_PRESCALER_DIV1;
 8001890:	4b15      	ldr	r3, [pc, #84]	@ (80018e8 <MX_USART1_UART_Init+0x94>)
 8001892:	2200      	movs	r2, #0
 8001894:	625a      	str	r2, [r3, #36]	@ 0x24
    huart1.AdvancedInit.AdvFeatureInit = UART_ADVFEATURE_NO_INIT;
 8001896:	4b14      	ldr	r3, [pc, #80]	@ (80018e8 <MX_USART1_UART_Init+0x94>)
 8001898:	2200      	movs	r2, #0
 800189a:	629a      	str	r2, [r3, #40]	@ 0x28
    if (HAL_UART_Init(&huart1) != HAL_OK) { Error_Handler(); }
 800189c:	4b12      	ldr	r3, [pc, #72]	@ (80018e8 <MX_USART1_UART_Init+0x94>)
 800189e:	0018      	movs	r0, r3
 80018a0:	f002 fefe 	bl	80046a0 <HAL_UART_Init>
 80018a4:	1e03      	subs	r3, r0, #0
 80018a6:	d001      	beq.n	80018ac <MX_USART1_UART_Init+0x58>
 80018a8:	f000 f89c 	bl	80019e4 <Error_Handler>
    if (HAL_UARTEx_SetTxFifoThreshold(&huart1, UART_TXFIFO_THRESHOLD_1_8) != HAL_OK) { Error_Handler(); }
 80018ac:	4b0e      	ldr	r3, [pc, #56]	@ (80018e8 <MX_USART1_UART_Init+0x94>)
 80018ae:	2100      	movs	r1, #0
 80018b0:	0018      	movs	r0, r3
 80018b2:	f003 fbdb 	bl	800506c <HAL_UARTEx_SetTxFifoThreshold>
 80018b6:	1e03      	subs	r3, r0, #0
 80018b8:	d001      	beq.n	80018be <MX_USART1_UART_Init+0x6a>
 80018ba:	f000 f893 	bl	80019e4 <Error_Handler>
    if (HAL_UARTEx_SetRxFifoThreshold(&huart1, UART_RXFIFO_THRESHOLD_1_8) != HAL_OK) { Error_Handler(); }
 80018be:	4b0a      	ldr	r3, [pc, #40]	@ (80018e8 <MX_USART1_UART_Init+0x94>)
 80018c0:	2100      	movs	r1, #0
 80018c2:	0018      	movs	r0, r3
 80018c4:	f003 fc12 	bl	80050ec <HAL_UARTEx_SetRxFifoThreshold>
 80018c8:	1e03      	subs	r3, r0, #0
 80018ca:	d001      	beq.n	80018d0 <MX_USART1_UART_Init+0x7c>
 80018cc:	f000 f88a 	bl	80019e4 <Error_Handler>
    if (HAL_UARTEx_DisableFifoMode(&huart1) != HAL_OK) { Error_Handler(); }
 80018d0:	4b05      	ldr	r3, [pc, #20]	@ (80018e8 <MX_USART1_UART_Init+0x94>)
 80018d2:	0018      	movs	r0, r3
 80018d4:	f003 fb90 	bl	8004ff8 <HAL_UARTEx_DisableFifoMode>
 80018d8:	1e03      	subs	r3, r0, #0
 80018da:	d001      	beq.n	80018e0 <MX_USART1_UART_Init+0x8c>
 80018dc:	f000 f882 	bl	80019e4 <Error_Handler>
}
 80018e0:	46c0      	nop			@ (mov r8, r8)
 80018e2:	46bd      	mov	sp, r7
 80018e4:	bd80      	pop	{r7, pc}
 80018e6:	46c0      	nop			@ (mov r8, r8)
 80018e8:	200001e4 	.word	0x200001e4
 80018ec:	40013800 	.word	0x40013800

080018f0 <MX_GPIO_Init>:

static void MX_GPIO_Init(void)
{
 80018f0:	b590      	push	{r4, r7, lr}
 80018f2:	b089      	sub	sp, #36	@ 0x24
 80018f4:	af00      	add	r7, sp, #0
    GPIO_InitTypeDef GPIO_InitStruct = {0};
 80018f6:	240c      	movs	r4, #12
 80018f8:	193b      	adds	r3, r7, r4
 80018fa:	0018      	movs	r0, r3
 80018fc:	2314      	movs	r3, #20
 80018fe:	001a      	movs	r2, r3
 8001900:	2100      	movs	r1, #0
 8001902:	f003 fcb5 	bl	8005270 <memset>
    __HAL_RCC_GPIOF_CLK_ENABLE();
 8001906:	4b35      	ldr	r3, [pc, #212]	@ (80019dc <MX_GPIO_Init+0xec>)
 8001908:	6b5a      	ldr	r2, [r3, #52]	@ 0x34
 800190a:	4b34      	ldr	r3, [pc, #208]	@ (80019dc <MX_GPIO_Init+0xec>)
 800190c:	2120      	movs	r1, #32
 800190e:	430a      	orrs	r2, r1
 8001910:	635a      	str	r2, [r3, #52]	@ 0x34
 8001912:	4b32      	ldr	r3, [pc, #200]	@ (80019dc <MX_GPIO_Init+0xec>)
 8001914:	6b5b      	ldr	r3, [r3, #52]	@ 0x34
 8001916:	2220      	movs	r2, #32
 8001918:	4013      	ands	r3, r2
 800191a:	60bb      	str	r3, [r7, #8]
 800191c:	68bb      	ldr	r3, [r7, #8]
    __HAL_RCC_GPIOA_CLK_ENABLE();
 800191e:	4b2f      	ldr	r3, [pc, #188]	@ (80019dc <MX_GPIO_Init+0xec>)
 8001920:	6b5a      	ldr	r2, [r3, #52]	@ 0x34
 8001922:	4b2e      	ldr	r3, [pc, #184]	@ (80019dc <MX_GPIO_Init+0xec>)
 8001924:	2101      	movs	r1, #1
 8001926:	430a      	orrs	r2, r1
 8001928:	635a      	str	r2, [r3, #52]	@ 0x34
 800192a:	4b2c      	ldr	r3, [pc, #176]	@ (80019dc <MX_GPIO_Init+0xec>)
 800192c:	6b5b      	ldr	r3, [r3, #52]	@ 0x34
 800192e:	2201      	movs	r2, #1
 8001930:	4013      	ands	r3, r2
 8001932:	607b      	str	r3, [r7, #4]
 8001934:	687b      	ldr	r3, [r7, #4]
    __HAL_RCC_GPIOB_CLK_ENABLE();
 8001936:	4b29      	ldr	r3, [pc, #164]	@ (80019dc <MX_GPIO_Init+0xec>)
 8001938:	6b5a      	ldr	r2, [r3, #52]	@ 0x34
 800193a:	4b28      	ldr	r3, [pc, #160]	@ (80019dc <MX_GPIO_Init+0xec>)
 800193c:	2102      	movs	r1, #2
 800193e:	430a      	orrs	r2, r1
 8001940:	635a      	str	r2, [r3, #52]	@ 0x34
 8001942:	4b26      	ldr	r3, [pc, #152]	@ (80019dc <MX_GPIO_Init+0xec>)
 8001944:	6b5b      	ldr	r3, [r3, #52]	@ 0x34
 8001946:	2202      	movs	r2, #2
 8001948:	4013      	ands	r3, r2
 800194a:	603b      	str	r3, [r7, #0]
 800194c:	683b      	ldr	r3, [r7, #0]
    HAL_GPIO_WritePin(Led_GPIO_Port, Led_Pin, GPIO_PIN_RESET);
 800194e:	2380      	movs	r3, #128	@ 0x80
 8001950:	005b      	lsls	r3, r3, #1
 8001952:	4823      	ldr	r0, [pc, #140]	@ (80019e0 <MX_GPIO_Init+0xf0>)
 8001954:	2200      	movs	r2, #0
 8001956:	0019      	movs	r1, r3
 8001958:	f001 f9ef 	bl	8002d3a <HAL_GPIO_WritePin>
    GPIO_InitStruct.Pin = Button_Pin;
 800195c:	193b      	adds	r3, r7, r4
 800195e:	2201      	movs	r2, #1
 8001960:	601a      	str	r2, [r3, #0]
    GPIO_InitStruct.Mode = GPIO_MODE_INPUT;
 8001962:	193b      	adds	r3, r7, r4
 8001964:	2200      	movs	r2, #0
 8001966:	605a      	str	r2, [r3, #4]
    GPIO_InitStruct.Pull = GPIO_PULLUP;
 8001968:	193b      	adds	r3, r7, r4
 800196a:	2201      	movs	r2, #1
 800196c:	609a      	str	r2, [r3, #8]
    HAL_GPIO_Init(Button_GPIO_Port, &GPIO_InitStruct);
 800196e:	193a      	adds	r2, r7, r4
 8001970:	23a0      	movs	r3, #160	@ 0xa0
 8001972:	05db      	lsls	r3, r3, #23
 8001974:	0011      	movs	r1, r2
 8001976:	0018      	movs	r0, r3
 8001978:	f001 f858 	bl	8002a2c <HAL_GPIO_Init>
    GPIO_InitStruct.Pin = Led_Pin;
 800197c:	0021      	movs	r1, r4
 800197e:	187b      	adds	r3, r7, r1
 8001980:	2280      	movs	r2, #128	@ 0x80
 8001982:	0052      	lsls	r2, r2, #1
 8001984:	601a      	str	r2, [r3, #0]
    GPIO_InitStruct.Mode = GPIO_MODE_OUTPUT_PP;
 8001986:	000c      	movs	r4, r1
 8001988:	193b      	adds	r3, r7, r4
 800198a:	2201      	movs	r2, #1
 800198c:	605a      	str	r2, [r3, #4]
    GPIO_InitStruct.Pull = GPIO_NOPULL;
 800198e:	193b      	adds	r3, r7, r4
 8001990:	2200      	movs	r2, #0
 8001992:	609a      	str	r2, [r3, #8]
    GPIO_InitStruct.Speed = GPIO_SPEED_FREQ_LOW;
 8001994:	193b      	adds	r3, r7, r4
 8001996:	2200      	movs	r2, #0
 8001998:	60da      	str	r2, [r3, #12]
    HAL_GPIO_Init(Led_GPIO_Port, &GPIO_InitStruct);
 800199a:	193b      	adds	r3, r7, r4
 800199c:	4a10      	ldr	r2, [pc, #64]	@ (80019e0 <MX_GPIO_Init+0xf0>)
 800199e:	0019      	movs	r1, r3
 80019a0:	0010      	movs	r0, r2
 80019a2:	f001 f843 	bl	8002a2c <HAL_GPIO_Init>
    GPIO_InitStruct.Pin = GPIO_PIN_3;
 80019a6:	0021      	movs	r1, r4
 80019a8:	187b      	adds	r3, r7, r1
 80019aa:	2208      	movs	r2, #8
 80019ac:	601a      	str	r2, [r3, #0]
    GPIO_InitStruct.Mode = GPIO_MODE_AF_PP;
 80019ae:	187b      	adds	r3, r7, r1
 80019b0:	2202      	movs	r2, #2
 80019b2:	605a      	str	r2, [r3, #4]
    GPIO_InitStruct.Pull = GPIO_NOPULL;
 80019b4:	187b      	adds	r3, r7, r1
 80019b6:	2200      	movs	r2, #0
 80019b8:	609a      	str	r2, [r3, #8]
    GPIO_InitStruct.Speed = GPIO_SPEED_FREQ_LOW;
 80019ba:	187b      	adds	r3, r7, r1
 80019bc:	2200      	movs	r2, #0
 80019be:	60da      	str	r2, [r3, #12]
    GPIO_InitStruct.Alternate = GPIO_AF1_USART2;
 80019c0:	187b      	adds	r3, r7, r1
 80019c2:	2201      	movs	r2, #1
 80019c4:	611a      	str	r2, [r3, #16]
    HAL_GPIO_Init(GPIOA, &GPIO_InitStruct);
 80019c6:	187a      	adds	r2, r7, r1
 80019c8:	23a0      	movs	r3, #160	@ 0xa0
 80019ca:	05db      	lsls	r3, r3, #23
 80019cc:	0011      	movs	r1, r2
 80019ce:	0018      	movs	r0, r3
 80019d0:	f001 f82c 	bl	8002a2c <HAL_GPIO_Init>
}
 80019d4:	46c0      	nop			@ (mov r8, r8)
 80019d6:	46bd      	mov	sp, r7
 80019d8:	b009      	add	sp, #36	@ 0x24
 80019da:	bd90      	pop	{r4, r7, pc}
 80019dc:	40021000 	.word	0x40021000
 80019e0:	50000400 	.word	0x50000400

080019e4 <Error_Handler>:

void Error_Handler(void)
{
 80019e4:	b580      	push	{r7, lr}
 80019e6:	af00      	add	r7, sp, #0
  \details Disables IRQ interrupts by setting special-purpose register PRIMASK.
           Can only be executed in Privileged modes.
 */
__STATIC_FORCEINLINE void __disable_irq(void)
{
  __ASM volatile ("cpsid i" : : : "memory");
 80019e8:	b672      	cpsid	i
}
 80019ea:	46c0      	nop			@ (mov r8, r8)
    __disable_irq();
    while (1) { }
 80019ec:	46c0      	nop			@ (mov r8, r8)
 80019ee:	e7fd      	b.n	80019ec <Error_Handler+0x8>

080019f0 <HAL_MspInit>:
void HAL_TIM_MspPostInit(TIM_HandleTypeDef *htim);
                    /**
  * Initializes the Global MSP.
  */
void HAL_MspInit(void)
{
 80019f0:	b580      	push	{r7, lr}
 80019f2:	b082      	sub	sp, #8
 80019f4:	af00      	add	r7, sp, #0

  /* USER CODE BEGIN MspInit 0 */

  /* USER CODE END MspInit 0 */

  __HAL_RCC_SYSCFG_CLK_ENABLE();
 80019f6:	4b12      	ldr	r3, [pc, #72]	@ (8001a40 <HAL_MspInit+0x50>)
 80019f8:	6c1a      	ldr	r2, [r3, #64]	@ 0x40
 80019fa:	4b11      	ldr	r3, [pc, #68]	@ (8001a40 <HAL_MspInit+0x50>)
 80019fc:	2101      	movs	r1, #1
 80019fe:	430a      	orrs	r2, r1
 8001a00:	641a      	str	r2, [r3, #64]	@ 0x40
 8001a02:	4b0f      	ldr	r3, [pc, #60]	@ (8001a40 <HAL_MspInit+0x50>)
 8001a04:	6c1b      	ldr	r3, [r3, #64]	@ 0x40
 8001a06:	2201      	movs	r2, #1
 8001a08:	4013      	ands	r3, r2
 8001a0a:	607b      	str	r3, [r7, #4]
 8001a0c:	687b      	ldr	r3, [r7, #4]
  __HAL_RCC_PWR_CLK_ENABLE();
 8001a0e:	4b0c      	ldr	r3, [pc, #48]	@ (8001a40 <HAL_MspInit+0x50>)
 8001a10:	6bda      	ldr	r2, [r3, #60]	@ 0x3c
 8001a12:	4b0b      	ldr	r3, [pc, #44]	@ (8001a40 <HAL_MspInit+0x50>)
 8001a14:	2180      	movs	r1, #128	@ 0x80
 8001a16:	0549      	lsls	r1, r1, #21
 8001a18:	430a      	orrs	r2, r1
 8001a1a:	63da      	str	r2, [r3, #60]	@ 0x3c
 8001a1c:	4b08      	ldr	r3, [pc, #32]	@ (8001a40 <HAL_MspInit+0x50>)
 8001a1e:	6bda      	ldr	r2, [r3, #60]	@ 0x3c
 8001a20:	2380      	movs	r3, #128	@ 0x80
 8001a22:	055b      	lsls	r3, r3, #21
 8001a24:	4013      	ands	r3, r2
 8001a26:	603b      	str	r3, [r7, #0]
 8001a28:	683b      	ldr	r3, [r7, #0]

  /* System interrupt init*/

  HAL_SYSCFG_EnableRemap(SYSCFG_REMAP_PA11);
 8001a2a:	2008      	movs	r0, #8
 8001a2c:	f000 fac0 	bl	8001fb0 <HAL_SYSCFG_EnableRemap>
  HAL_SYSCFG_EnableRemap(SYSCFG_REMAP_PA12);
 8001a30:	2010      	movs	r0, #16
 8001a32:	f000 fabd 	bl	8001fb0 <HAL_SYSCFG_EnableRemap>

  /* USER CODE BEGIN MspInit 1 */

  /* USER CODE END MspInit 1 */
}
 8001a36:	46c0      	nop			@ (mov r8, r8)
 8001a38:	46bd      	mov	sp, r7
 8001a3a:	b002      	add	sp, #8
 8001a3c:	bd80      	pop	{r7, pc}
 8001a3e:	46c0      	nop			@ (mov r8, r8)
 8001a40:	40021000 	.word	0x40021000

08001a44 <HAL_ADC_MspInit>:
  * This function configures the hardware resources used in this example
  * @param hadc: ADC handle pointer
  * @retval None
  */
void HAL_ADC_MspInit(ADC_HandleTypeDef* hadc)
{
 8001a44:	b590      	push	{r4, r7, lr}
 8001a46:	b091      	sub	sp, #68	@ 0x44
 8001a48:	af00      	add	r7, sp, #0
 8001a4a:	6078      	str	r0, [r7, #4]
  GPIO_InitTypeDef GPIO_InitStruct = {0};
 8001a4c:	232c      	movs	r3, #44	@ 0x2c
 8001a4e:	18fb      	adds	r3, r7, r3
 8001a50:	0018      	movs	r0, r3
 8001a52:	2314      	movs	r3, #20
 8001a54:	001a      	movs	r2, r3
 8001a56:	2100      	movs	r1, #0
 8001a58:	f003 fc0a 	bl	8005270 <memset>
  RCC_PeriphCLKInitTypeDef PeriphClkInit = {0};
 8001a5c:	2410      	movs	r4, #16
 8001a5e:	193b      	adds	r3, r7, r4
 8001a60:	0018      	movs	r0, r3
 8001a62:	231c      	movs	r3, #28
 8001a64:	001a      	movs	r2, r3
 8001a66:	2100      	movs	r1, #0
 8001a68:	f003 fc02 	bl	8005270 <memset>
  if(hadc->Instance==ADC1)
 8001a6c:	687b      	ldr	r3, [r7, #4]
 8001a6e:	681b      	ldr	r3, [r3, #0]
 8001a70:	4a20      	ldr	r2, [pc, #128]	@ (8001af4 <HAL_ADC_MspInit+0xb0>)
 8001a72:	4293      	cmp	r3, r2
 8001a74:	d139      	bne.n	8001aea <HAL_ADC_MspInit+0xa6>

    /* USER CODE END ADC1_MspInit 0 */

  /** Initializes the peripherals clocks
  */
    PeriphClkInit.PeriphClockSelection = RCC_PERIPHCLK_ADC;
 8001a76:	193b      	adds	r3, r7, r4
 8001a78:	2220      	movs	r2, #32
 8001a7a:	601a      	str	r2, [r3, #0]
    PeriphClkInit.AdcClockSelection = RCC_ADCCLKSOURCE_SYSCLK;
 8001a7c:	193b      	adds	r3, r7, r4
 8001a7e:	2200      	movs	r2, #0
 8001a80:	615a      	str	r2, [r3, #20]
    if (HAL_RCCEx_PeriphCLKConfig(&PeriphClkInit) != HAL_OK)
 8001a82:	193b      	adds	r3, r7, r4
 8001a84:	0018      	movs	r0, r3
 8001a86:	f001 fcd1 	bl	800342c <HAL_RCCEx_PeriphCLKConfig>
 8001a8a:	1e03      	subs	r3, r0, #0
 8001a8c:	d001      	beq.n	8001a92 <HAL_ADC_MspInit+0x4e>
    {
      Error_Handler();
 8001a8e:	f7ff ffa9 	bl	80019e4 <Error_Handler>
    }

    /* Peripheral clock enable */
    __HAL_RCC_ADC_CLK_ENABLE();
 8001a92:	4b19      	ldr	r3, [pc, #100]	@ (8001af8 <HAL_ADC_MspInit+0xb4>)
 8001a94:	6c1a      	ldr	r2, [r3, #64]	@ 0x40
 8001a96:	4b18      	ldr	r3, [pc, #96]	@ (8001af8 <HAL_ADC_MspInit+0xb4>)
 8001a98:	2180      	movs	r1, #128	@ 0x80
 8001a9a:	0349      	lsls	r1, r1, #13
 8001a9c:	430a      	orrs	r2, r1
 8001a9e:	641a      	str	r2, [r3, #64]	@ 0x40
 8001aa0:	4b15      	ldr	r3, [pc, #84]	@ (8001af8 <HAL_ADC_MspInit+0xb4>)
 8001aa2:	6c1a      	ldr	r2, [r3, #64]	@ 0x40
 8001aa4:	2380      	movs	r3, #128	@ 0x80
 8001aa6:	035b      	lsls	r3, r3, #13
 8001aa8:	4013      	ands	r3, r2
 8001aaa:	60fb      	str	r3, [r7, #12]
 8001aac:	68fb      	ldr	r3, [r7, #12]

    __HAL_RCC_GPIOA_CLK_ENABLE();
 8001aae:	4b12      	ldr	r3, [pc, #72]	@ (8001af8 <HAL_ADC_MspInit+0xb4>)
 8001ab0:	6b5a      	ldr	r2, [r3, #52]	@ 0x34
 8001ab2:	4b11      	ldr	r3, [pc, #68]	@ (8001af8 <HAL_ADC_MspInit+0xb4>)
 8001ab4:	2101      	movs	r1, #1
 8001ab6:	430a      	orrs	r2, r1
 8001ab8:	635a      	str	r2, [r3, #52]	@ 0x34
 8001aba:	4b0f      	ldr	r3, [pc, #60]	@ (8001af8 <HAL_ADC_MspInit+0xb4>)
 8001abc:	6b5b      	ldr	r3, [r3, #52]	@ 0x34
 8001abe:	2201      	movs	r2, #1
 8001ac0:	4013      	ands	r3, r2
 8001ac2:	60bb      	str	r3, [r7, #8]
 8001ac4:	68bb      	ldr	r3, [r7, #8]
    /**ADC1 GPIO Configuration
    PA8     ------> ADC1_IN8
    */
    GPIO_InitStruct.Pin = Joystick_Pin;
 8001ac6:	212c      	movs	r1, #44	@ 0x2c
 8001ac8:	187b      	adds	r3, r7, r1
 8001aca:	2280      	movs	r2, #128	@ 0x80
 8001acc:	0052      	lsls	r2, r2, #1
 8001ace:	601a      	str	r2, [r3, #0]
    GPIO_InitStruct.Mode = GPIO_MODE_ANALOG;
 8001ad0:	187b      	adds	r3, r7, r1
 8001ad2:	2203      	movs	r2, #3
 8001ad4:	605a      	str	r2, [r3, #4]
    GPIO_InitStruct.Pull = GPIO_NOPULL;
 8001ad6:	187b      	adds	r3, r7, r1
 8001ad8:	2200      	movs	r2, #0
 8001ada:	609a      	str	r2, [r3, #8]
    HAL_GPIO_Init(Joystick_GPIO_Port, &GPIO_InitStruct);
 8001adc:	187a      	adds	r2, r7, r1
 8001ade:	23a0      	movs	r3, #160	@ 0xa0
 8001ae0:	05db      	lsls	r3, r3, #23
 8001ae2:	0011      	movs	r1, r2
 8001ae4:	0018      	movs	r0, r3
 8001ae6:	f000 ffa1 	bl	8002a2c <HAL_GPIO_Init>

    /* USER CODE END ADC1_MspInit 1 */

  }

}
 8001aea:	46c0      	nop			@ (mov r8, r8)
 8001aec:	46bd      	mov	sp, r7
 8001aee:	b011      	add	sp, #68	@ 0x44
 8001af0:	bd90      	pop	{r4, r7, pc}
 8001af2:	46c0      	nop			@ (mov r8, r8)
 8001af4:	40012400 	.word	0x40012400
 8001af8:	40021000 	.word	0x40021000

08001afc <HAL_SPI_MspInit>:
  * This function configures the hardware resources used in this example
  * @param hspi: SPI handle pointer
  * @retval None
  */
void HAL_SPI_MspInit(SPI_HandleTypeDef* hspi)
{
 8001afc:	b590      	push	{r4, r7, lr}
 8001afe:	b091      	sub	sp, #68	@ 0x44
 8001b00:	af00      	add	r7, sp, #0
 8001b02:	6078      	str	r0, [r7, #4]
  GPIO_InitTypeDef GPIO_InitStruct = {0};
 8001b04:	232c      	movs	r3, #44	@ 0x2c
 8001b06:	18fb      	adds	r3, r7, r3
 8001b08:	0018      	movs	r0, r3
 8001b0a:	2314      	movs	r3, #20
 8001b0c:	001a      	movs	r2, r3
 8001b0e:	2100      	movs	r1, #0
 8001b10:	f003 fbae 	bl	8005270 <memset>
  RCC_PeriphCLKInitTypeDef PeriphClkInit = {0};
 8001b14:	2410      	movs	r4, #16
 8001b16:	193b      	adds	r3, r7, r4
 8001b18:	0018      	movs	r0, r3
 8001b1a:	231c      	movs	r3, #28
 8001b1c:	001a      	movs	r2, r3
 8001b1e:	2100      	movs	r1, #0
 8001b20:	f003 fba6 	bl	8005270 <memset>
  if(hspi->Instance==SPI1)
 8001b24:	687b      	ldr	r3, [r7, #4]
 8001b26:	681b      	ldr	r3, [r3, #0]
 8001b28:	4a22      	ldr	r2, [pc, #136]	@ (8001bb4 <HAL_SPI_MspInit+0xb8>)
 8001b2a:	4293      	cmp	r3, r2
 8001b2c:	d13e      	bne.n	8001bac <HAL_SPI_MspInit+0xb0>

    /* USER CODE END SPI1_MspInit 0 */

  /** Initializes the peripherals clocks
  */
    PeriphClkInit.PeriphClockSelection = RCC_PERIPHCLK_I2S1;
 8001b2e:	193b      	adds	r3, r7, r4
 8001b30:	2204      	movs	r2, #4
 8001b32:	601a      	str	r2, [r3, #0]
    PeriphClkInit.I2s1ClockSelection = RCC_I2S1CLKSOURCE_SYSCLK;
 8001b34:	193b      	adds	r3, r7, r4
 8001b36:	2200      	movs	r2, #0
 8001b38:	611a      	str	r2, [r3, #16]
    if (HAL_RCCEx_PeriphCLKConfig(&PeriphClkInit) != HAL_OK)
 8001b3a:	193b      	adds	r3, r7, r4
 8001b3c:	0018      	movs	r0, r3
 8001b3e:	f001 fc75 	bl	800342c <HAL_RCCEx_PeriphCLKConfig>
 8001b42:	1e03      	subs	r3, r0, #0
 8001b44:	d001      	beq.n	8001b4a <HAL_SPI_MspInit+0x4e>
    {
      Error_Handler();
 8001b46:	f7ff ff4d 	bl	80019e4 <Error_Handler>
    }

    /* Peripheral clock enable */
    __HAL_RCC_SPI1_CLK_ENABLE();
 8001b4a:	4b1b      	ldr	r3, [pc, #108]	@ (8001bb8 <HAL_SPI_MspInit+0xbc>)
 8001b4c:	6c1a      	ldr	r2, [r3, #64]	@ 0x40
 8001b4e:	4b1a      	ldr	r3, [pc, #104]	@ (8001bb8 <HAL_SPI_MspInit+0xbc>)
 8001b50:	2180      	movs	r1, #128	@ 0x80
 8001b52:	0149      	lsls	r1, r1, #5
 8001b54:	430a      	orrs	r2, r1
 8001b56:	641a      	str	r2, [r3, #64]	@ 0x40
 8001b58:	4b17      	ldr	r3, [pc, #92]	@ (8001bb8 <HAL_SPI_MspInit+0xbc>)
 8001b5a:	6c1a      	ldr	r2, [r3, #64]	@ 0x40
 8001b5c:	2380      	movs	r3, #128	@ 0x80
 8001b5e:	015b      	lsls	r3, r3, #5
 8001b60:	4013      	ands	r3, r2
 8001b62:	60fb      	str	r3, [r7, #12]
 8001b64:	68fb      	ldr	r3, [r7, #12]

    __HAL_RCC_GPIOA_CLK_ENABLE();
 8001b66:	4b14      	ldr	r3, [pc, #80]	@ (8001bb8 <HAL_SPI_MspInit+0xbc>)
 8001b68:	6b5a      	ldr	r2, [r3, #52]	@ 0x34
 8001b6a:	4b13      	ldr	r3, [pc, #76]	@ (8001bb8 <HAL_SPI_MspInit+0xbc>)
 8001b6c:	2101      	movs	r1, #1
 8001b6e:	430a      	orrs	r2, r1
 8001b70:	635a      	str	r2, [r3, #52]	@ 0x34
 8001b72:	4b11      	ldr	r3, [pc, #68]	@ (8001bb8 <HAL_SPI_MspInit+0xbc>)
 8001b74:	6b5b      	ldr	r3, [r3, #52]	@ 0x34
 8001b76:	2201      	movs	r2, #1
 8001b78:	4013      	ands	r3, r2
 8001b7a:	60bb      	str	r3, [r7, #8]
 8001b7c:	68bb      	ldr	r3, [r7, #8]
    PA4     ------> SPI1_NSS
    PA5     ------> SPI1_SCK
    PA6     ------> SPI1_MISO
    PA7     ------> SPI1_MOSI
    */
    GPIO_InitStruct.Pin = GPIO_PIN_4|GPIO_PIN_5|GPIO_PIN_6|GPIO_PIN_7;
 8001b7e:	212c      	movs	r1, #44	@ 0x2c
 8001b80:	187b      	adds	r3, r7, r1
 8001b82:	22f0      	movs	r2, #240	@ 0xf0
 8001b84:	601a      	str	r2, [r3, #0]
    GPIO_InitStruct.Mode = GPIO_MODE_AF_PP;
 8001b86:	187b      	adds	r3, r7, r1
 8001b88:	2202      	movs	r2, #2
 8001b8a:	605a      	str	r2, [r3, #4]
    GPIO_InitStruct.Pull = GPIO_NOPULL;
 8001b8c:	187b      	adds	r3, r7, r1
 8001b8e:	2200      	movs	r2, #0
 8001b90:	609a      	str	r2, [r3, #8]
    GPIO_InitStruct.Speed = GPIO_SPEED_FREQ_LOW;
 8001b92:	187b      	adds	r3, r7, r1
 8001b94:	2200      	movs	r2, #0
 8001b96:	60da      	str	r2, [r3, #12]
    GPIO_InitStruct.Alternate = GPIO_AF0_SPI1;
 8001b98:	187b      	adds	r3, r7, r1
 8001b9a:	2200      	movs	r2, #0
 8001b9c:	611a      	str	r2, [r3, #16]
    HAL_GPIO_Init(GPIOA, &GPIO_InitStruct);
 8001b9e:	187a      	adds	r2, r7, r1
 8001ba0:	23a0      	movs	r3, #160	@ 0xa0
 8001ba2:	05db      	lsls	r3, r3, #23
 8001ba4:	0011      	movs	r1, r2
 8001ba6:	0018      	movs	r0, r3
 8001ba8:	f000 ff40 	bl	8002a2c <HAL_GPIO_Init>

    /* USER CODE END SPI1_MspInit 1 */

  }

}
 8001bac:	46c0      	nop			@ (mov r8, r8)
 8001bae:	46bd      	mov	sp, r7
 8001bb0:	b011      	add	sp, #68	@ 0x44
 8001bb2:	bd90      	pop	{r4, r7, pc}
 8001bb4:	40013000 	.word	0x40013000
 8001bb8:	40021000 	.word	0x40021000

08001bbc <HAL_TIM_Base_MspInit>:
  * This function configures the hardware resources used in this example
  * @param htim_base: TIM_Base handle pointer
  * @retval None
  */
void HAL_TIM_Base_MspInit(TIM_HandleTypeDef* htim_base)
{
 8001bbc:	b580      	push	{r7, lr}
 8001bbe:	b084      	sub	sp, #16
 8001bc0:	af00      	add	r7, sp, #0
 8001bc2:	6078      	str	r0, [r7, #4]
  if(htim_base->Instance==TIM1)
 8001bc4:	687b      	ldr	r3, [r7, #4]
 8001bc6:	681b      	ldr	r3, [r3, #0]
 8001bc8:	4a13      	ldr	r2, [pc, #76]	@ (8001c18 <HAL_TIM_Base_MspInit+0x5c>)
 8001bca:	4293      	cmp	r3, r2
 8001bcc:	d10e      	bne.n	8001bec <HAL_TIM_Base_MspInit+0x30>
  {
    /* USER CODE BEGIN TIM1_MspInit 0 */

    /* USER CODE END TIM1_MspInit 0 */
    /* Peripheral clock enable */
    __HAL_RCC_TIM1_CLK_ENABLE();
 8001bce:	4b13      	ldr	r3, [pc, #76]	@ (8001c1c <HAL_TIM_Base_MspInit+0x60>)
 8001bd0:	6c1a      	ldr	r2, [r3, #64]	@ 0x40
 8001bd2:	4b12      	ldr	r3, [pc, #72]	@ (8001c1c <HAL_TIM_Base_MspInit+0x60>)
 8001bd4:	2180      	movs	r1, #128	@ 0x80
 8001bd6:	0109      	lsls	r1, r1, #4
 8001bd8:	430a      	orrs	r2, r1
 8001bda:	641a      	str	r2, [r3, #64]	@ 0x40
 8001bdc:	4b0f      	ldr	r3, [pc, #60]	@ (8001c1c <HAL_TIM_Base_MspInit+0x60>)
 8001bde:	6c1a      	ldr	r2, [r3, #64]	@ 0x40
 8001be0:	2380      	movs	r3, #128	@ 0x80
 8001be2:	011b      	lsls	r3, r3, #4
 8001be4:	4013      	ands	r3, r2
 8001be6:	60fb      	str	r3, [r7, #12]
 8001be8:	68fb      	ldr	r3, [r7, #12]
    /* USER CODE BEGIN TIM3_MspInit 1 */

    /* USER CODE END TIM3_MspInit 1 */
  }

}
 8001bea:	e010      	b.n	8001c0e <HAL_TIM_Base_MspInit+0x52>
  else if(htim_base->Instance==TIM3)
 8001bec:	687b      	ldr	r3, [r7, #4]
 8001bee:	681b      	ldr	r3, [r3, #0]
 8001bf0:	4a0b      	ldr	r2, [pc, #44]	@ (8001c20 <HAL_TIM_Base_MspInit+0x64>)
 8001bf2:	4293      	cmp	r3, r2
 8001bf4:	d10b      	bne.n	8001c0e <HAL_TIM_Base_MspInit+0x52>
    __HAL_RCC_TIM3_CLK_ENABLE();
 8001bf6:	4b09      	ldr	r3, [pc, #36]	@ (8001c1c <HAL_TIM_Base_MspInit+0x60>)
 8001bf8:	6bda      	ldr	r2, [r3, #60]	@ 0x3c
 8001bfa:	4b08      	ldr	r3, [pc, #32]	@ (8001c1c <HAL_TIM_Base_MspInit+0x60>)
 8001bfc:	2102      	movs	r1, #2
 8001bfe:	430a      	orrs	r2, r1
 8001c00:	63da      	str	r2, [r3, #60]	@ 0x3c
 8001c02:	4b06      	ldr	r3, [pc, #24]	@ (8001c1c <HAL_TIM_Base_MspInit+0x60>)
 8001c04:	6bdb      	ldr	r3, [r3, #60]	@ 0x3c
 8001c06:	2202      	movs	r2, #2
 8001c08:	4013      	ands	r3, r2
 8001c0a:	60bb      	str	r3, [r7, #8]
 8001c0c:	68bb      	ldr	r3, [r7, #8]
}
 8001c0e:	46c0      	nop			@ (mov r8, r8)
 8001c10:	46bd      	mov	sp, r7
 8001c12:	b004      	add	sp, #16
 8001c14:	bd80      	pop	{r7, pc}
 8001c16:	46c0      	nop			@ (mov r8, r8)
 8001c18:	40012c00 	.word	0x40012c00
 8001c1c:	40021000 	.word	0x40021000
 8001c20:	40000400 	.word	0x40000400

08001c24 <HAL_TIM_MspPostInit>:

void HAL_TIM_MspPostInit(TIM_HandleTypeDef* htim)
{
 8001c24:	b590      	push	{r4, r7, lr}
 8001c26:	b089      	sub	sp, #36	@ 0x24
 8001c28:	af00      	add	r7, sp, #0
 8001c2a:	6078      	str	r0, [r7, #4]
  GPIO_InitTypeDef GPIO_InitStruct = {0};
 8001c2c:	240c      	movs	r4, #12
 8001c2e:	193b      	adds	r3, r7, r4
 8001c30:	0018      	movs	r0, r3
 8001c32:	2314      	movs	r3, #20
 8001c34:	001a      	movs	r2, r3
 8001c36:	2100      	movs	r1, #0
 8001c38:	f003 fb1a 	bl	8005270 <memset>
  if(htim->Instance==TIM3)
 8001c3c:	687b      	ldr	r3, [r7, #4]
 8001c3e:	681b      	ldr	r3, [r3, #0]
 8001c40:	4a14      	ldr	r2, [pc, #80]	@ (8001c94 <HAL_TIM_MspPostInit+0x70>)
 8001c42:	4293      	cmp	r3, r2
 8001c44:	d121      	bne.n	8001c8a <HAL_TIM_MspPostInit+0x66>
  {
    /* USER CODE BEGIN TIM3_MspPostInit 0 */

    /* USER CODE END TIM3_MspPostInit 0 */

    __HAL_RCC_GPIOB_CLK_ENABLE();
 8001c46:	4b14      	ldr	r3, [pc, #80]	@ (8001c98 <HAL_TIM_MspPostInit+0x74>)
 8001c48:	6b5a      	ldr	r2, [r3, #52]	@ 0x34
 8001c4a:	4b13      	ldr	r3, [pc, #76]	@ (8001c98 <HAL_TIM_MspPostInit+0x74>)
 8001c4c:	2102      	movs	r1, #2
 8001c4e:	430a      	orrs	r2, r1
 8001c50:	635a      	str	r2, [r3, #52]	@ 0x34
 8001c52:	4b11      	ldr	r3, [pc, #68]	@ (8001c98 <HAL_TIM_MspPostInit+0x74>)
 8001c54:	6b5b      	ldr	r3, [r3, #52]	@ 0x34
 8001c56:	2202      	movs	r2, #2
 8001c58:	4013      	ands	r3, r2
 8001c5a:	60bb      	str	r3, [r7, #8]
 8001c5c:	68bb      	ldr	r3, [r7, #8]
    /**TIM3 GPIO Configuration
    PB6     ------> TIM3_CH1
    */
    GPIO_InitStruct.Pin = GPIO_PIN_6;
 8001c5e:	0021      	movs	r1, r4
 8001c60:	187b      	adds	r3, r7, r1
 8001c62:	2240      	movs	r2, #64	@ 0x40
 8001c64:	601a      	str	r2, [r3, #0]
    GPIO_InitStruct.Mode = GPIO_MODE_AF_PP;
 8001c66:	187b      	adds	r3, r7, r1
 8001c68:	2202      	movs	r2, #2
 8001c6a:	605a      	str	r2, [r3, #4]
    GPIO_InitStruct.Pull = GPIO_NOPULL;
 8001c6c:	187b      	adds	r3, r7, r1
 8001c6e:	2200      	movs	r2, #0
 8001c70:	609a      	str	r2, [r3, #8]
    GPIO_InitStruct.Speed = GPIO_SPEED_FREQ_LOW;
 8001c72:	187b      	adds	r3, r7, r1
 8001c74:	2200      	movs	r2, #0
 8001c76:	60da      	str	r2, [r3, #12]
    GPIO_InitStruct.Alternate = GPIO_AF12_TIM3;
 8001c78:	187b      	adds	r3, r7, r1
 8001c7a:	220c      	movs	r2, #12
 8001c7c:	611a      	str	r2, [r3, #16]
    HAL_GPIO_Init(GPIOB, &GPIO_InitStruct);
 8001c7e:	187b      	adds	r3, r7, r1
 8001c80:	4a06      	ldr	r2, [pc, #24]	@ (8001c9c <HAL_TIM_MspPostInit+0x78>)
 8001c82:	0019      	movs	r1, r3
 8001c84:	0010      	movs	r0, r2
 8001c86:	f000 fed1 	bl	8002a2c <HAL_GPIO_Init>
    /* USER CODE BEGIN TIM3_MspPostInit 1 */

    /* USER CODE END TIM3_MspPostInit 1 */
  }

}
 8001c8a:	46c0      	nop			@ (mov r8, r8)
 8001c8c:	46bd      	mov	sp, r7
 8001c8e:	b009      	add	sp, #36	@ 0x24
 8001c90:	bd90      	pop	{r4, r7, pc}
 8001c92:	46c0      	nop			@ (mov r8, r8)
 8001c94:	40000400 	.word	0x40000400
 8001c98:	40021000 	.word	0x40021000
 8001c9c:	50000400 	.word	0x50000400

08001ca0 <HAL_UART_MspInit>:
  * This function configures the hardware resources used in this example
  * @param huart: UART handle pointer
  * @retval None
  */
void HAL_UART_MspInit(UART_HandleTypeDef* huart)
{
 8001ca0:	b590      	push	{r4, r7, lr}
 8001ca2:	b091      	sub	sp, #68	@ 0x44
 8001ca4:	af00      	add	r7, sp, #0
 8001ca6:	6078      	str	r0, [r7, #4]
  GPIO_InitTypeDef GPIO_InitStruct = {0};
 8001ca8:	232c      	movs	r3, #44	@ 0x2c
 8001caa:	18fb      	adds	r3, r7, r3
 8001cac:	0018      	movs	r0, r3
 8001cae:	2314      	movs	r3, #20
 8001cb0:	001a      	movs	r2, r3
 8001cb2:	2100      	movs	r1, #0
 8001cb4:	f003 fadc 	bl	8005270 <memset>
  RCC_PeriphCLKInitTypeDef PeriphClkInit = {0};
 8001cb8:	2410      	movs	r4, #16
 8001cba:	193b      	adds	r3, r7, r4
 8001cbc:	0018      	movs	r0, r3
 8001cbe:	231c      	movs	r3, #28
 8001cc0:	001a      	movs	r2, r3
 8001cc2:	2100      	movs	r1, #0
 8001cc4:	f003 fad4 	bl	8005270 <memset>
  if(huart->Instance==USART1)
 8001cc8:	687b      	ldr	r3, [r7, #4]
 8001cca:	681b      	ldr	r3, [r3, #0]
 8001ccc:	4a23      	ldr	r2, [pc, #140]	@ (8001d5c <HAL_UART_MspInit+0xbc>)
 8001cce:	4293      	cmp	r3, r2
 8001cd0:	d13f      	bne.n	8001d52 <HAL_UART_MspInit+0xb2>

    /* USER CODE END USART1_MspInit 0 */

  /** Initializes the peripherals clocks
  */
    PeriphClkInit.PeriphClockSelection = RCC_PERIPHCLK_USART1;
 8001cd2:	193b      	adds	r3, r7, r4
 8001cd4:	2201      	movs	r2, #1
 8001cd6:	601a      	str	r2, [r3, #0]
    PeriphClkInit.Usart1ClockSelection = RCC_USART1CLKSOURCE_PCLK1;
 8001cd8:	193b      	adds	r3, r7, r4
 8001cda:	2200      	movs	r2, #0
 8001cdc:	609a      	str	r2, [r3, #8]
    if (HAL_RCCEx_PeriphCLKConfig(&PeriphClkInit) != HAL_OK)
 8001cde:	193b      	adds	r3, r7, r4
 8001ce0:	0018      	movs	r0, r3
 8001ce2:	f001 fba3 	bl	800342c <HAL_RCCEx_PeriphCLKConfig>
 8001ce6:	1e03      	subs	r3, r0, #0
 8001ce8:	d001      	beq.n	8001cee <HAL_UART_MspInit+0x4e>
    {
      Error_Handler();
 8001cea:	f7ff fe7b 	bl	80019e4 <Error_Handler>
    }

    /* Peripheral clock enable */
    __HAL_RCC_USART1_CLK_ENABLE();
 8001cee:	4b1c      	ldr	r3, [pc, #112]	@ (8001d60 <HAL_UART_MspInit+0xc0>)
 8001cf0:	6c1a      	ldr	r2, [r3, #64]	@ 0x40
 8001cf2:	4b1b      	ldr	r3, [pc, #108]	@ (8001d60 <HAL_UART_MspInit+0xc0>)
 8001cf4:	2180      	movs	r1, #128	@ 0x80
 8001cf6:	01c9      	lsls	r1, r1, #7
 8001cf8:	430a      	orrs	r2, r1
 8001cfa:	641a      	str	r2, [r3, #64]	@ 0x40
 8001cfc:	4b18      	ldr	r3, [pc, #96]	@ (8001d60 <HAL_UART_MspInit+0xc0>)
 8001cfe:	6c1a      	ldr	r2, [r3, #64]	@ 0x40
 8001d00:	2380      	movs	r3, #128	@ 0x80
 8001d02:	01db      	lsls	r3, r3, #7
 8001d04:	4013      	ands	r3, r2
 8001d06:	60fb      	str	r3, [r7, #12]
 8001d08:	68fb      	ldr	r3, [r7, #12]

    __HAL_RCC_GPIOA_CLK_ENABLE();
 8001d0a:	4b15      	ldr	r3, [pc, #84]	@ (8001d60 <HAL_UART_MspInit+0xc0>)
 8001d0c:	6b5a      	ldr	r2, [r3, #52]	@ 0x34
 8001d0e:	4b14      	ldr	r3, [pc, #80]	@ (8001d60 <HAL_UART_MspInit+0xc0>)
 8001d10:	2101      	movs	r1, #1
 8001d12:	430a      	orrs	r2, r1
 8001d14:	635a      	str	r2, [r3, #52]	@ 0x34
 8001d16:	4b12      	ldr	r3, [pc, #72]	@ (8001d60 <HAL_UART_MspInit+0xc0>)
 8001d18:	6b5b      	ldr	r3, [r3, #52]	@ 0x34
 8001d1a:	2201      	movs	r2, #1
 8001d1c:	4013      	ands	r3, r2
 8001d1e:	60bb      	str	r3, [r7, #8]
 8001d20:	68bb      	ldr	r3, [r7, #8]
    /**USART1 GPIO Configuration
    PA9 [PA11]     ------> USART1_TX
    PA10 [PA12]     ------> USART1_RX
    */
    GPIO_InitStruct.Pin = GPIO_PIN_9|GPIO_PIN_10;
 8001d22:	212c      	movs	r1, #44	@ 0x2c
 8001d24:	187b      	adds	r3, r7, r1
 8001d26:	22c0      	movs	r2, #192	@ 0xc0
 8001d28:	00d2      	lsls	r2, r2, #3
 8001d2a:	601a      	str	r2, [r3, #0]
    GPIO_InitStruct.Mode = GPIO_MODE_AF_PP;
 8001d2c:	187b      	adds	r3, r7, r1
 8001d2e:	2202      	movs	r2, #2
 8001d30:	605a      	str	r2, [r3, #4]
    GPIO_InitStruct.Pull = GPIO_NOPULL;
 8001d32:	187b      	adds	r3, r7, r1
 8001d34:	2200      	movs	r2, #0
 8001d36:	609a      	str	r2, [r3, #8]
    GPIO_InitStruct.Speed = GPIO_SPEED_FREQ_LOW;
 8001d38:	187b      	adds	r3, r7, r1
 8001d3a:	2200      	movs	r2, #0
 8001d3c:	60da      	str	r2, [r3, #12]
    GPIO_InitStruct.Alternate = GPIO_AF1_USART1;
 8001d3e:	187b      	adds	r3, r7, r1
 8001d40:	2201      	movs	r2, #1
 8001d42:	611a      	str	r2, [r3, #16]
    HAL_GPIO_Init(GPIOA, &GPIO_InitStruct);
 8001d44:	187a      	adds	r2, r7, r1
 8001d46:	23a0      	movs	r3, #160	@ 0xa0
 8001d48:	05db      	lsls	r3, r3, #23
 8001d4a:	0011      	movs	r1, r2
 8001d4c:	0018      	movs	r0, r3
 8001d4e:	f000 fe6d 	bl	8002a2c <HAL_GPIO_Init>

    /* USER CODE END USART1_MspInit 1 */

  }

}
 8001d52:	46c0      	nop			@ (mov r8, r8)
 8001d54:	46bd      	mov	sp, r7
 8001d56:	b011      	add	sp, #68	@ 0x44
 8001d58:	bd90      	pop	{r4, r7, pc}
 8001d5a:	46c0      	nop			@ (mov r8, r8)
 8001d5c:	40013800 	.word	0x40013800
 8001d60:	40021000 	.word	0x40021000

08001d64 <NMI_Handler>:
/******************************************************************************/
/**
  * @brief This function handles Non maskable interrupt.
  */
void NMI_Handler(void)
{
 8001d64:	b580      	push	{r7, lr}
 8001d66:	af00      	add	r7, sp, #0
  /* USER CODE BEGIN NonMaskableInt_IRQn 0 */

  /* USER CODE END NonMaskableInt_IRQn 0 */
  /* USER CODE BEGIN NonMaskableInt_IRQn 1 */
   while (1)
 8001d68:	46c0      	nop			@ (mov r8, r8)
 8001d6a:	e7fd      	b.n	8001d68 <NMI_Handler+0x4>

08001d6c <HardFault_Handler>:

/**
  * @brief This function handles Hard fault interrupt.
  */
void HardFault_Handler(void)
{
 8001d6c:	b580      	push	{r7, lr}
 8001d6e:	af00      	add	r7, sp, #0
  /* USER CODE BEGIN HardFault_IRQn 0 */

  /* USER CODE END HardFault_IRQn 0 */
  while (1)
 8001d70:	46c0      	nop			@ (mov r8, r8)
 8001d72:	e7fd      	b.n	8001d70 <HardFault_Handler+0x4>

08001d74 <SVC_Handler>:

/**
  * @brief This function handles System service call via SWI instruction.
  */
void SVC_Handler(void)
{
 8001d74:	b580      	push	{r7, lr}
 8001d76:	af00      	add	r7, sp, #0

  /* USER CODE END SVC_IRQn 0 */
  /* USER CODE BEGIN SVC_IRQn 1 */

  /* USER CODE END SVC_IRQn 1 */
}
 8001d78:	46c0      	nop			@ (mov r8, r8)
 8001d7a:	46bd      	mov	sp, r7
 8001d7c:	bd80      	pop	{r7, pc}

08001d7e <PendSV_Handler>:

/**
  * @brief This function handles Pendable request for system service.
  */
void PendSV_Handler(void)
{
 8001d7e:	b580      	push	{r7, lr}
 8001d80:	af00      	add	r7, sp, #0

  /* USER CODE END PendSV_IRQn 0 */
  /* USER CODE BEGIN PendSV_IRQn 1 */

  /* USER CODE END PendSV_IRQn 1 */
}
 8001d82:	46c0      	nop			@ (mov r8, r8)
 8001d84:	46bd      	mov	sp, r7
 8001d86:	bd80      	pop	{r7, pc}

08001d88 <SysTick_Handler>:

/**
  * @brief This function handles System tick timer.
  */
void SysTick_Handler(void)
{
 8001d88:	b580      	push	{r7, lr}
 8001d8a:	af00      	add	r7, sp, #0
  /* USER CODE BEGIN SysTick_IRQn 0 */

  /* USER CODE END SysTick_IRQn 0 */
  HAL_IncTick();
 8001d8c:	f000 f8d0 	bl	8001f30 <HAL_IncTick>
  /* USER CODE BEGIN SysTick_IRQn 1 */

  /* USER CODE END SysTick_IRQn 1 */
}
 8001d90:	46c0      	nop			@ (mov r8, r8)
 8001d92:	46bd      	mov	sp, r7
 8001d94:	bd80      	pop	{r7, pc}
	...

08001d98 <_sbrk>:
 *
 * @param incr Memory size
 * @return Pointer to allocated memory
 */
void *_sbrk(ptrdiff_t incr)
{
 8001d98:	b580      	push	{r7, lr}
 8001d9a:	b086      	sub	sp, #24
 8001d9c:	af00      	add	r7, sp, #0
 8001d9e:	6078      	str	r0, [r7, #4]
  extern uint8_t _end; /* Symbol defined in the linker script */
  extern uint8_t _estack; /* Symbol defined in the linker script */
  extern uint32_t _Min_Stack_Size; /* Symbol defined in the linker script */
  const uint32_t stack_limit = (uint32_t)&_estack - (uint32_t)&_Min_Stack_Size;
 8001da0:	4a14      	ldr	r2, [pc, #80]	@ (8001df4 <_sbrk+0x5c>)
 8001da2:	4b15      	ldr	r3, [pc, #84]	@ (8001df8 <_sbrk+0x60>)
 8001da4:	1ad3      	subs	r3, r2, r3
 8001da6:	617b      	str	r3, [r7, #20]
  const uint8_t *max_heap = (uint8_t *)stack_limit;
 8001da8:	697b      	ldr	r3, [r7, #20]
 8001daa:	613b      	str	r3, [r7, #16]
  uint8_t *prev_heap_end;

  /* Initialize heap end at first call */
  if (NULL == __sbrk_heap_end)
 8001dac:	4b13      	ldr	r3, [pc, #76]	@ (8001dfc <_sbrk+0x64>)
 8001dae:	681b      	ldr	r3, [r3, #0]
 8001db0:	2b00      	cmp	r3, #0
 8001db2:	d102      	bne.n	8001dba <_sbrk+0x22>
  {
    __sbrk_heap_end = &_end;
 8001db4:	4b11      	ldr	r3, [pc, #68]	@ (8001dfc <_sbrk+0x64>)
 8001db6:	4a12      	ldr	r2, [pc, #72]	@ (8001e00 <_sbrk+0x68>)
 8001db8:	601a      	str	r2, [r3, #0]
  }

  /* Protect heap from growing into the reserved MSP stack */
  if (__sbrk_heap_end + incr > max_heap)
 8001dba:	4b10      	ldr	r3, [pc, #64]	@ (8001dfc <_sbrk+0x64>)
 8001dbc:	681a      	ldr	r2, [r3, #0]
 8001dbe:	687b      	ldr	r3, [r7, #4]
 8001dc0:	18d3      	adds	r3, r2, r3
 8001dc2:	693a      	ldr	r2, [r7, #16]
 8001dc4:	429a      	cmp	r2, r3
 8001dc6:	d207      	bcs.n	8001dd8 <_sbrk+0x40>
  {
    errno = ENOMEM;
 8001dc8:	f003 fa5a 	bl	8005280 <__errno>
 8001dcc:	0003      	movs	r3, r0
 8001dce:	220c      	movs	r2, #12
 8001dd0:	601a      	str	r2, [r3, #0]
    return (void *)-1;
 8001dd2:	2301      	movs	r3, #1
 8001dd4:	425b      	negs	r3, r3
 8001dd6:	e009      	b.n	8001dec <_sbrk+0x54>
  }

  prev_heap_end = __sbrk_heap_end;
 8001dd8:	4b08      	ldr	r3, [pc, #32]	@ (8001dfc <_sbrk+0x64>)
 8001dda:	681b      	ldr	r3, [r3, #0]
 8001ddc:	60fb      	str	r3, [r7, #12]
  __sbrk_heap_end += incr;
 8001dde:	4b07      	ldr	r3, [pc, #28]	@ (8001dfc <_sbrk+0x64>)
 8001de0:	681a      	ldr	r2, [r3, #0]
 8001de2:	687b      	ldr	r3, [r7, #4]
 8001de4:	18d2      	adds	r2, r2, r3
 8001de6:	4b05      	ldr	r3, [pc, #20]	@ (8001dfc <_sbrk+0x64>)
 8001de8:	601a      	str	r2, [r3, #0]

  return (void *)prev_heap_end;
 8001dea:	68fb      	ldr	r3, [r7, #12]
}
 8001dec:	0018      	movs	r0, r3
 8001dee:	46bd      	mov	sp, r7
 8001df0:	b006      	add	sp, #24
 8001df2:	bd80      	pop	{r7, pc}
 8001df4:	20001800 	.word	0x20001800
 8001df8:	00000400 	.word	0x00000400
 8001dfc:	20000298 	.word	0x20000298
 8001e00:	200003e8 	.word	0x200003e8

08001e04 <SystemInit>:
  * @brief  Setup the microcontroller system.
  * @param  None
  * @retval None
  */
void SystemInit(void)
{
 8001e04:	b580      	push	{r7, lr}
 8001e06:	af00      	add	r7, sp, #0
  
  /* Configure the Vector Table location add offset address ------------------*/
#ifdef VECT_TAB_SRAM
  SCB->VTOR = SRAM_BASE | VECT_TAB_OFFSET; /* Vector Table Relocation in Internal SRAM */
#else
  SCB->VTOR = FLASH_BASE | VECT_TAB_OFFSET; /* Vector Table Relocation in Internal FLASH */
 8001e08:	4b03      	ldr	r3, [pc, #12]	@ (8001e18 <SystemInit+0x14>)
 8001e0a:	2280      	movs	r2, #128	@ 0x80
 8001e0c:	0512      	lsls	r2, r2, #20
 8001e0e:	609a      	str	r2, [r3, #8]
#endif
}
 8001e10:	46c0      	nop			@ (mov r8, r8)
 8001e12:	46bd      	mov	sp, r7
 8001e14:	bd80      	pop	{r7, pc}
 8001e16:	46c0      	nop			@ (mov r8, r8)
 8001e18:	e000ed00 	.word	0xe000ed00

08001e1c <Reset_Handler>:

  .section .text.Reset_Handler
  .weak Reset_Handler
  .type Reset_Handler, %function
Reset_Handler:
  ldr   r0, =_estack
 8001e1c:	480d      	ldr	r0, [pc, #52]	@ (8001e54 <LoopForever+0x2>)
  mov   sp, r0          /* set stack pointer */
 8001e1e:	4685      	mov	sp, r0
/* Call the clock system initialization function.*/
  bl  SystemInit
 8001e20:	f7ff fff0 	bl	8001e04 <SystemInit>

/* Copy the data segment initializers from flash to SRAM */
  movs r1, #0
 8001e24:	2100      	movs	r1, #0
  b LoopCopyDataInit
 8001e26:	e003      	b.n	8001e30 <LoopCopyDataInit>

08001e28 <CopyDataInit>:

CopyDataInit:
  ldr r3, =_sidata
 8001e28:	4b0b      	ldr	r3, [pc, #44]	@ (8001e58 <LoopForever+0x6>)
  ldr r3, [r3, r1]
 8001e2a:	585b      	ldr	r3, [r3, r1]
  str r3, [r0, r1]
 8001e2c:	5043      	str	r3, [r0, r1]
  adds r1, r1, #4
 8001e2e:	3104      	adds	r1, #4

08001e30 <LoopCopyDataInit>:

LoopCopyDataInit:
  ldr r0, =_sdata
 8001e30:	480a      	ldr	r0, [pc, #40]	@ (8001e5c <LoopForever+0xa>)
  ldr r3, =_edata
 8001e32:	4b0b      	ldr	r3, [pc, #44]	@ (8001e60 <LoopForever+0xe>)
  adds r2, r0, r1
 8001e34:	1842      	adds	r2, r0, r1
  cmp r2, r3
 8001e36:	429a      	cmp	r2, r3
  bcc CopyDataInit
 8001e38:	d3f6      	bcc.n	8001e28 <CopyDataInit>
  ldr r2, =_sbss
 8001e3a:	4a0a      	ldr	r2, [pc, #40]	@ (8001e64 <LoopForever+0x12>)
  b LoopFillZerobss
 8001e3c:	e002      	b.n	8001e44 <LoopFillZerobss>

08001e3e <FillZerobss>:
/* Zero fill the bss segment. */
FillZerobss:
  movs r3, #0
 8001e3e:	2300      	movs	r3, #0
  str  r3, [r2]
 8001e40:	6013      	str	r3, [r2, #0]
  adds r2, r2, #4
 8001e42:	3204      	adds	r2, #4

08001e44 <LoopFillZerobss>:


LoopFillZerobss:
  ldr r3, = _ebss
 8001e44:	4b08      	ldr	r3, [pc, #32]	@ (8001e68 <LoopForever+0x16>)
  cmp r2, r3
 8001e46:	429a      	cmp	r2, r3
  bcc FillZerobss
 8001e48:	d3f9      	bcc.n	8001e3e <FillZerobss>


/* Call static constructors */
  bl __libc_init_array
 8001e4a:	f003 fa1f 	bl	800528c <__libc_init_array>
/* Call the application's entry point.*/
  bl main
 8001e4e:	f7ff f923 	bl	8001098 <main>

08001e52 <LoopForever>:

LoopForever:
    b LoopForever
 8001e52:	e7fe      	b.n	8001e52 <LoopForever>
  ldr   r0, =_estack
 8001e54:	20001800 	.word	0x20001800
  ldr r3, =_sidata
 8001e58:	08005e54 	.word	0x08005e54
  ldr r0, =_sdata
 8001e5c:	20000000 	.word	0x20000000
  ldr r3, =_edata
 8001e60:	20000068 	.word	0x20000068
  ldr r2, =_sbss
 8001e64:	20000068 	.word	0x20000068
  ldr r3, = _ebss
 8001e68:	200003e8 	.word	0x200003e8

08001e6c <ADC1_IRQHandler>:
 * @retval : None
*/
    .section .text.Default_Handler,"ax",%progbits
Default_Handler:
Infinite_Loop:
  b Infinite_Loop
 8001e6c:	e7fe      	b.n	8001e6c <ADC1_IRQHandler>

08001e6e <HAL_Init>:
  *         each 1ms in the SysTick_Handler() interrupt handler.
  *
  * @retval HAL status
  */
HAL_StatusTypeDef HAL_Init(void)
{
 8001e6e:	b580      	push	{r7, lr}
 8001e70:	b082      	sub	sp, #8
 8001e72:	af00      	add	r7, sp, #0
  HAL_StatusTypeDef  status = HAL_OK;
 8001e74:	1dfb      	adds	r3, r7, #7
 8001e76:	2200      	movs	r2, #0
 8001e78:	701a      	strb	r2, [r3, #0]
#if (PREFETCH_ENABLE != 0U)
  __HAL_FLASH_PREFETCH_BUFFER_ENABLE();
#endif /* PREFETCH_ENABLE */

  /* Use SysTick as time base source and configure 1ms tick (default clock after Reset is HSI) */
  if (HAL_InitTick(TICK_INT_PRIORITY) != HAL_OK)
 8001e7a:	2003      	movs	r0, #3
 8001e7c:	f000 f80e 	bl	8001e9c <HAL_InitTick>
 8001e80:	1e03      	subs	r3, r0, #0
 8001e82:	d003      	beq.n	8001e8c <HAL_Init+0x1e>
  {
    status = HAL_ERROR;
 8001e84:	1dfb      	adds	r3, r7, #7
 8001e86:	2201      	movs	r2, #1
 8001e88:	701a      	strb	r2, [r3, #0]
 8001e8a:	e001      	b.n	8001e90 <HAL_Init+0x22>
  }
  else
  {
    /* Init the low level hardware */
    HAL_MspInit();
 8001e8c:	f7ff fdb0 	bl	80019f0 <HAL_MspInit>
  }

  /* Return function status */
  return status;
 8001e90:	1dfb      	adds	r3, r7, #7
 8001e92:	781b      	ldrb	r3, [r3, #0]
}
 8001e94:	0018      	movs	r0, r3
 8001e96:	46bd      	mov	sp, r7
 8001e98:	b002      	add	sp, #8
 8001e9a:	bd80      	pop	{r7, pc}

08001e9c <HAL_InitTick>:
  *       implementation  in user file.
  * @param TickPriority Tick interrupt priority.
  * @retval HAL status
  */
__weak HAL_StatusTypeDef HAL_InitTick(uint32_t TickPriority)
{
 8001e9c:	b590      	push	{r4, r7, lr}
 8001e9e:	b085      	sub	sp, #20
 8001ea0:	af00      	add	r7, sp, #0
 8001ea2:	6078      	str	r0, [r7, #4]
  HAL_StatusTypeDef  status = HAL_OK;
 8001ea4:	230f      	movs	r3, #15
 8001ea6:	18fb      	adds	r3, r7, r3
 8001ea8:	2200      	movs	r2, #0
 8001eaa:	701a      	strb	r2, [r3, #0]

  if ((uint32_t)uwTickFreq != 0UL)
 8001eac:	4b1d      	ldr	r3, [pc, #116]	@ (8001f24 <HAL_InitTick+0x88>)
 8001eae:	781b      	ldrb	r3, [r3, #0]
 8001eb0:	2b00      	cmp	r3, #0
 8001eb2:	d02b      	beq.n	8001f0c <HAL_InitTick+0x70>
  {
    /*Configure the SysTick to have interrupt in 1ms time basis*/
    if (HAL_SYSTICK_Config(SystemCoreClock / (1000UL / (uint32_t)uwTickFreq)) == 0U)
 8001eb4:	4b1c      	ldr	r3, [pc, #112]	@ (8001f28 <HAL_InitTick+0x8c>)
 8001eb6:	681c      	ldr	r4, [r3, #0]
 8001eb8:	4b1a      	ldr	r3, [pc, #104]	@ (8001f24 <HAL_InitTick+0x88>)
 8001eba:	781b      	ldrb	r3, [r3, #0]
 8001ebc:	0019      	movs	r1, r3
 8001ebe:	23fa      	movs	r3, #250	@ 0xfa
 8001ec0:	0098      	lsls	r0, r3, #2
 8001ec2:	f7fe f933 	bl	800012c <__udivsi3>
 8001ec6:	0003      	movs	r3, r0
 8001ec8:	0019      	movs	r1, r3
 8001eca:	0020      	movs	r0, r4
 8001ecc:	f7fe f92e 	bl	800012c <__udivsi3>
 8001ed0:	0003      	movs	r3, r0
 8001ed2:	0018      	movs	r0, r3
 8001ed4:	f000 fd9d 	bl	8002a12 <HAL_SYSTICK_Config>
 8001ed8:	1e03      	subs	r3, r0, #0
 8001eda:	d112      	bne.n	8001f02 <HAL_InitTick+0x66>
    {
      /* Configure the SysTick IRQ priority */
      if (TickPriority < (1UL << __NVIC_PRIO_BITS))
 8001edc:	687b      	ldr	r3, [r7, #4]
 8001ede:	2b03      	cmp	r3, #3
 8001ee0:	d80a      	bhi.n	8001ef8 <HAL_InitTick+0x5c>
      {
        HAL_NVIC_SetPriority(SysTick_IRQn, TickPriority, 0U);
 8001ee2:	6879      	ldr	r1, [r7, #4]
 8001ee4:	2301      	movs	r3, #1
 8001ee6:	425b      	negs	r3, r3
 8001ee8:	2200      	movs	r2, #0
 8001eea:	0018      	movs	r0, r3
 8001eec:	f000 fd7c 	bl	80029e8 <HAL_NVIC_SetPriority>
        uwTickPrio = TickPriority;
 8001ef0:	4b0e      	ldr	r3, [pc, #56]	@ (8001f2c <HAL_InitTick+0x90>)
 8001ef2:	687a      	ldr	r2, [r7, #4]
 8001ef4:	601a      	str	r2, [r3, #0]
 8001ef6:	e00d      	b.n	8001f14 <HAL_InitTick+0x78>
      }
      else
      {
        status = HAL_ERROR;
 8001ef8:	230f      	movs	r3, #15
 8001efa:	18fb      	adds	r3, r7, r3
 8001efc:	2201      	movs	r2, #1
 8001efe:	701a      	strb	r2, [r3, #0]
 8001f00:	e008      	b.n	8001f14 <HAL_InitTick+0x78>
      }
    }
    else
    {
      status = HAL_ERROR;
 8001f02:	230f      	movs	r3, #15
 8001f04:	18fb      	adds	r3, r7, r3
 8001f06:	2201      	movs	r2, #1
 8001f08:	701a      	strb	r2, [r3, #0]
 8001f0a:	e003      	b.n	8001f14 <HAL_InitTick+0x78>
    }
  }
  else
  {
    status = HAL_ERROR;
 8001f0c:	230f      	movs	r3, #15
 8001f0e:	18fb      	adds	r3, r7, r3
 8001f10:	2201      	movs	r2, #1
 8001f12:	701a      	strb	r2, [r3, #0]
  }

  /* Return function status */
  return status;
 8001f14:	230f      	movs	r3, #15
 8001f16:	18fb      	adds	r3, r7, r3
 8001f18:	781b      	ldrb	r3, [r3, #0]
}
 8001f1a:	0018      	movs	r0, r3
 8001f1c:	46bd      	mov	sp, r7
 8001f1e:	b005      	add	sp, #20
 8001f20:	bd90      	pop	{r4, r7, pc}
 8001f22:	46c0      	nop			@ (mov r8, r8)
 8001f24:	20000014 	.word	0x20000014
 8001f28:	2000000c 	.word	0x2000000c
 8001f2c:	20000010 	.word	0x20000010

08001f30 <HAL_IncTick>:
  * @note This function is declared as __weak to be overwritten in case of other
  *      implementations in user file.
  * @retval None
  */
__weak void HAL_IncTick(void)
{
 8001f30:	b580      	push	{r7, lr}
 8001f32:	af00      	add	r7, sp, #0
  uwTick += (uint32_t)uwTickFreq;
 8001f34:	4b05      	ldr	r3, [pc, #20]	@ (8001f4c <HAL_IncTick+0x1c>)
 8001f36:	781b      	ldrb	r3, [r3, #0]
 8001f38:	001a      	movs	r2, r3
 8001f3a:	4b05      	ldr	r3, [pc, #20]	@ (8001f50 <HAL_IncTick+0x20>)
 8001f3c:	681b      	ldr	r3, [r3, #0]
 8001f3e:	18d2      	adds	r2, r2, r3
 8001f40:	4b03      	ldr	r3, [pc, #12]	@ (8001f50 <HAL_IncTick+0x20>)
 8001f42:	601a      	str	r2, [r3, #0]
}
 8001f44:	46c0      	nop			@ (mov r8, r8)
 8001f46:	46bd      	mov	sp, r7
 8001f48:	bd80      	pop	{r7, pc}
 8001f4a:	46c0      	nop			@ (mov r8, r8)
 8001f4c:	20000014 	.word	0x20000014
 8001f50:	2000029c 	.word	0x2000029c

08001f54 <HAL_GetTick>:
  * @note This function is declared as __weak to be overwritten in case of other
  *       implementations in user file.
  * @retval tick value
  */
__weak uint32_t HAL_GetTick(void)
{
 8001f54:	b580      	push	{r7, lr}
 8001f56:	af00      	add	r7, sp, #0
  return uwTick;
 8001f58:	4b02      	ldr	r3, [pc, #8]	@ (8001f64 <HAL_GetTick+0x10>)
 8001f5a:	681b      	ldr	r3, [r3, #0]
}
 8001f5c:	0018      	movs	r0, r3
 8001f5e:	46bd      	mov	sp, r7
 8001f60:	bd80      	pop	{r7, pc}
 8001f62:	46c0      	nop			@ (mov r8, r8)
 8001f64:	2000029c 	.word	0x2000029c

08001f68 <HAL_Delay>:
  *       implementations in user file.
  * @param Delay  specifies the delay time length, in milliseconds.
  * @retval None
  */
__weak void HAL_Delay(uint32_t Delay)
{
 8001f68:	b580      	push	{r7, lr}
 8001f6a:	b084      	sub	sp, #16
 8001f6c:	af00      	add	r7, sp, #0
 8001f6e:	6078      	str	r0, [r7, #4]
  uint32_t tickstart = HAL_GetTick();
 8001f70:	f7ff fff0 	bl	8001f54 <HAL_GetTick>
 8001f74:	0003      	movs	r3, r0
 8001f76:	60bb      	str	r3, [r7, #8]
  uint32_t wait = Delay;
 8001f78:	687b      	ldr	r3, [r7, #4]
 8001f7a:	60fb      	str	r3, [r7, #12]

  /* Add a freq to guarantee minimum wait */
  if (wait < HAL_MAX_DELAY)
 8001f7c:	68fb      	ldr	r3, [r7, #12]
 8001f7e:	3301      	adds	r3, #1
 8001f80:	d005      	beq.n	8001f8e <HAL_Delay+0x26>
  {
    wait += (uint32_t)(uwTickFreq);
 8001f82:	4b0a      	ldr	r3, [pc, #40]	@ (8001fac <HAL_Delay+0x44>)
 8001f84:	781b      	ldrb	r3, [r3, #0]
 8001f86:	001a      	movs	r2, r3
 8001f88:	68fb      	ldr	r3, [r7, #12]
 8001f8a:	189b      	adds	r3, r3, r2
 8001f8c:	60fb      	str	r3, [r7, #12]
  }

  while ((HAL_GetTick() - tickstart) < wait)
 8001f8e:	46c0      	nop			@ (mov r8, r8)
 8001f90:	f7ff ffe0 	bl	8001f54 <HAL_GetTick>
 8001f94:	0002      	movs	r2, r0
 8001f96:	68bb      	ldr	r3, [r7, #8]
 8001f98:	1ad3      	subs	r3, r2, r3
 8001f9a:	68fa      	ldr	r2, [r7, #12]
 8001f9c:	429a      	cmp	r2, r3
 8001f9e:	d8f7      	bhi.n	8001f90 <HAL_Delay+0x28>
  {
  }
}
 8001fa0:	46c0      	nop			@ (mov r8, r8)
 8001fa2:	46c0      	nop			@ (mov r8, r8)
 8001fa4:	46bd      	mov	sp, r7
 8001fa6:	b004      	add	sp, #16
 8001fa8:	bd80      	pop	{r7, pc}
 8001faa:	46c0      	nop			@ (mov r8, r8)
 8001fac:	20000014 	.word	0x20000014

08001fb0 <HAL_SYSCFG_EnableRemap>:
  *         @arg @ref SYSCFG_REMAP_PA11
  *         @arg @ref SYSCFG_REMAP_PA12
  * @retval None
  */
void HAL_SYSCFG_EnableRemap(uint32_t PinRemap)
{
 8001fb0:	b580      	push	{r7, lr}
 8001fb2:	b082      	sub	sp, #8
 8001fb4:	af00      	add	r7, sp, #0
 8001fb6:	6078      	str	r0, [r7, #4]
  /* Check the parameter */
  assert_param(IS_HAL_REMAP_PIN(PinRemap));
  SET_BIT(SYSCFG->CFGR1, PinRemap);
 8001fb8:	4b04      	ldr	r3, [pc, #16]	@ (8001fcc <HAL_SYSCFG_EnableRemap+0x1c>)
 8001fba:	6819      	ldr	r1, [r3, #0]
 8001fbc:	4b03      	ldr	r3, [pc, #12]	@ (8001fcc <HAL_SYSCFG_EnableRemap+0x1c>)
 8001fbe:	687a      	ldr	r2, [r7, #4]
 8001fc0:	430a      	orrs	r2, r1
 8001fc2:	601a      	str	r2, [r3, #0]
}
 8001fc4:	46c0      	nop			@ (mov r8, r8)
 8001fc6:	46bd      	mov	sp, r7
 8001fc8:	b002      	add	sp, #8
 8001fca:	bd80      	pop	{r7, pc}
 8001fcc:	40010000 	.word	0x40010000

08001fd0 <LL_ADC_SetCommonPathInternalCh>:
  *         @arg @ref LL_ADC_PATH_INTERNAL_VREFINT
  *         @arg @ref LL_ADC_PATH_INTERNAL_TEMPSENSOR
  * @retval None
  */
__STATIC_INLINE void LL_ADC_SetCommonPathInternalCh(ADC_Common_TypeDef *ADCxy_COMMON, uint32_t PathInternal)
{
 8001fd0:	b580      	push	{r7, lr}
 8001fd2:	b082      	sub	sp, #8
 8001fd4:	af00      	add	r7, sp, #0
 8001fd6:	6078      	str	r0, [r7, #4]
 8001fd8:	6039      	str	r1, [r7, #0]
  MODIFY_REG(ADCxy_COMMON->CCR, ADC_CCR_VREFEN | ADC_CCR_TSEN, PathInternal);
 8001fda:	687b      	ldr	r3, [r7, #4]
 8001fdc:	681b      	ldr	r3, [r3, #0]
 8001fde:	4a05      	ldr	r2, [pc, #20]	@ (8001ff4 <LL_ADC_SetCommonPathInternalCh+0x24>)
 8001fe0:	401a      	ands	r2, r3
 8001fe2:	683b      	ldr	r3, [r7, #0]
 8001fe4:	431a      	orrs	r2, r3
 8001fe6:	687b      	ldr	r3, [r7, #4]
 8001fe8:	601a      	str	r2, [r3, #0]
}
 8001fea:	46c0      	nop			@ (mov r8, r8)
 8001fec:	46bd      	mov	sp, r7
 8001fee:	b002      	add	sp, #8
 8001ff0:	bd80      	pop	{r7, pc}
 8001ff2:	46c0      	nop			@ (mov r8, r8)
 8001ff4:	ff3fffff 	.word	0xff3fffff

08001ff8 <LL_ADC_GetCommonPathInternalCh>:
  *         @arg @ref LL_ADC_PATH_INTERNAL_NONE
  *         @arg @ref LL_ADC_PATH_INTERNAL_VREFINT
  *         @arg @ref LL_ADC_PATH_INTERNAL_TEMPSENSOR
  */
__STATIC_INLINE uint32_t LL_ADC_GetCommonPathInternalCh(const ADC_Common_TypeDef *ADCxy_COMMON)
{
 8001ff8:	b580      	push	{r7, lr}
 8001ffa:	b082      	sub	sp, #8
 8001ffc:	af00      	add	r7, sp, #0
 8001ffe:	6078      	str	r0, [r7, #4]
  return (uint32_t)(READ_BIT(ADCxy_COMMON->CCR, ADC_CCR_VREFEN | ADC_CCR_TSEN));
 8002000:	687b      	ldr	r3, [r7, #4]
 8002002:	681a      	ldr	r2, [r3, #0]
 8002004:	23c0      	movs	r3, #192	@ 0xc0
 8002006:	041b      	lsls	r3, r3, #16
 8002008:	4013      	ands	r3, r2
}
 800200a:	0018      	movs	r0, r3
 800200c:	46bd      	mov	sp, r7
 800200e:	b002      	add	sp, #8
 8002010:	bd80      	pop	{r7, pc}

08002012 <LL_ADC_SetSamplingTimeCommonChannels>:
  *         @arg @ref LL_ADC_SAMPLINGTIME_160CYCLES_5
  * @retval None
  */
__STATIC_INLINE void LL_ADC_SetSamplingTimeCommonChannels(ADC_TypeDef *ADCx, uint32_t SamplingTimeY,
                                                          uint32_t SamplingTime)
{
 8002012:	b580      	push	{r7, lr}
 8002014:	b084      	sub	sp, #16
 8002016:	af00      	add	r7, sp, #0
 8002018:	60f8      	str	r0, [r7, #12]
 800201a:	60b9      	str	r1, [r7, #8]
 800201c:	607a      	str	r2, [r7, #4]
  MODIFY_REG(ADCx->SMPR,
 800201e:	68fb      	ldr	r3, [r7, #12]
 8002020:	695b      	ldr	r3, [r3, #20]
 8002022:	68ba      	ldr	r2, [r7, #8]
 8002024:	2104      	movs	r1, #4
 8002026:	400a      	ands	r2, r1
 8002028:	2107      	movs	r1, #7
 800202a:	4091      	lsls	r1, r2
 800202c:	000a      	movs	r2, r1
 800202e:	43d2      	mvns	r2, r2
 8002030:	401a      	ands	r2, r3
 8002032:	68bb      	ldr	r3, [r7, #8]
 8002034:	2104      	movs	r1, #4
 8002036:	400b      	ands	r3, r1
 8002038:	6879      	ldr	r1, [r7, #4]
 800203a:	4099      	lsls	r1, r3
 800203c:	000b      	movs	r3, r1
 800203e:	431a      	orrs	r2, r3
 8002040:	68fb      	ldr	r3, [r7, #12]
 8002042:	615a      	str	r2, [r3, #20]
             ADC_SMPR_SMP1 << (SamplingTimeY & ADC_SAMPLING_TIME_SMP_SHIFT_MASK),
             SamplingTime << (SamplingTimeY & ADC_SAMPLING_TIME_SMP_SHIFT_MASK));
}
 8002044:	46c0      	nop			@ (mov r8, r8)
 8002046:	46bd      	mov	sp, r7
 8002048:	b004      	add	sp, #16
 800204a:	bd80      	pop	{r7, pc}

0800204c <LL_ADC_GetSamplingTimeCommonChannels>:
  *         @arg @ref LL_ADC_SAMPLINGTIME_39CYCLES_5
  *         @arg @ref LL_ADC_SAMPLINGTIME_79CYCLES_5
  *         @arg @ref LL_ADC_SAMPLINGTIME_160CYCLES_5
  */
__STATIC_INLINE uint32_t LL_ADC_GetSamplingTimeCommonChannels(const ADC_TypeDef *ADCx, uint32_t SamplingTimeY)
{
 800204c:	b580      	push	{r7, lr}
 800204e:	b082      	sub	sp, #8
 8002050:	af00      	add	r7, sp, #0
 8002052:	6078      	str	r0, [r7, #4]
 8002054:	6039      	str	r1, [r7, #0]
  return (uint32_t)((READ_BIT(ADCx->SMPR, ADC_SMPR_SMP1 << (SamplingTimeY & ADC_SAMPLING_TIME_SMP_SHIFT_MASK)))
 8002056:	687b      	ldr	r3, [r7, #4]
 8002058:	695b      	ldr	r3, [r3, #20]
 800205a:	683a      	ldr	r2, [r7, #0]
 800205c:	2104      	movs	r1, #4
 800205e:	400a      	ands	r2, r1
 8002060:	2107      	movs	r1, #7
 8002062:	4091      	lsls	r1, r2
 8002064:	000a      	movs	r2, r1
 8002066:	401a      	ands	r2, r3
                    >> (SamplingTimeY & ADC_SAMPLING_TIME_SMP_SHIFT_MASK));
 8002068:	683b      	ldr	r3, [r7, #0]
 800206a:	2104      	movs	r1, #4
 800206c:	400b      	ands	r3, r1
  return (uint32_t)((READ_BIT(ADCx->SMPR, ADC_SMPR_SMP1 << (SamplingTimeY & ADC_SAMPLING_TIME_SMP_SHIFT_MASK)))
 800206e:	40da      	lsrs	r2, r3
 8002070:	0013      	movs	r3, r2
}
 8002072:	0018      	movs	r0, r3
 8002074:	46bd      	mov	sp, r7
 8002076:	b002      	add	sp, #8
 8002078:	bd80      	pop	{r7, pc}

0800207a <LL_ADC_REG_SetSequencerRanks>:
  *             using helper macro @ref __LL_ADC_CHANNEL_INTERNAL_TO_EXTERNAL().
  *         (3) ADC channels available on STM32C031xx device only.
  * @retval None
  */
__STATIC_INLINE void LL_ADC_REG_SetSequencerRanks(ADC_TypeDef *ADCx, uint32_t Rank, uint32_t Channel)
{
 800207a:	b580      	push	{r7, lr}
 800207c:	b084      	sub	sp, #16
 800207e:	af00      	add	r7, sp, #0
 8002080:	60f8      	str	r0, [r7, #12]
 8002082:	60b9      	str	r1, [r7, #8]
 8002084:	607a      	str	r2, [r7, #4]
  /* Set bits with content of parameter "Channel" with bits position          */
  /* in register depending on parameter "Rank".                               */
  /* Parameters "Rank" and "Channel" are used with masks because containing   */
  /* other bits reserved for other purpose.                                   */
  MODIFY_REG(ADCx->CHSELR,
 8002086:	68fb      	ldr	r3, [r7, #12]
 8002088:	6a9b      	ldr	r3, [r3, #40]	@ 0x28
 800208a:	68ba      	ldr	r2, [r7, #8]
 800208c:	211f      	movs	r1, #31
 800208e:	400a      	ands	r2, r1
 8002090:	210f      	movs	r1, #15
 8002092:	4091      	lsls	r1, r2
 8002094:	000a      	movs	r2, r1
 8002096:	43d2      	mvns	r2, r2
 8002098:	401a      	ands	r2, r3
 800209a:	687b      	ldr	r3, [r7, #4]
 800209c:	0e9b      	lsrs	r3, r3, #26
 800209e:	210f      	movs	r1, #15
 80020a0:	4019      	ands	r1, r3
 80020a2:	68bb      	ldr	r3, [r7, #8]
 80020a4:	201f      	movs	r0, #31
 80020a6:	4003      	ands	r3, r0
 80020a8:	4099      	lsls	r1, r3
 80020aa:	000b      	movs	r3, r1
 80020ac:	431a      	orrs	r2, r3
 80020ae:	68fb      	ldr	r3, [r7, #12]
 80020b0:	629a      	str	r2, [r3, #40]	@ 0x28
             ADC_CHSELR_SQ1 << (Rank & ADC_REG_RANK_ID_SQRX_MASK),
             ((Channel & ADC_CHANNEL_ID_NUMBER_MASK_SEQ) >> ADC_CHANNEL_ID_NUMBER_BITOFFSET_POS)
             << (Rank & ADC_REG_RANK_ID_SQRX_MASK));
}
 80020b2:	46c0      	nop			@ (mov r8, r8)
 80020b4:	46bd      	mov	sp, r7
 80020b6:	b004      	add	sp, #16
 80020b8:	bd80      	pop	{r7, pc}

080020ba <LL_ADC_REG_SetSequencerChAdd>:
  *             using helper macro @ref __LL_ADC_CHANNEL_INTERNAL_TO_EXTERNAL().
  *         (3) ADC channels available on STM32C031xx device only.
  * @retval None
  */
__STATIC_INLINE void LL_ADC_REG_SetSequencerChAdd(ADC_TypeDef *ADCx, uint32_t Channel)
{
 80020ba:	b580      	push	{r7, lr}
 80020bc:	b082      	sub	sp, #8
 80020be:	af00      	add	r7, sp, #0
 80020c0:	6078      	str	r0, [r7, #4]
 80020c2:	6039      	str	r1, [r7, #0]
  /* Parameter "Channel" is used with masks because containing                */
  /* other bits reserved for other purpose.                                   */
  SET_BIT(ADCx->CHSELR, (Channel & ADC_CHANNEL_ID_BITFIELD_MASK));
 80020c4:	687b      	ldr	r3, [r7, #4]
 80020c6:	6a9a      	ldr	r2, [r3, #40]	@ 0x28
 80020c8:	683b      	ldr	r3, [r7, #0]
 80020ca:	025b      	lsls	r3, r3, #9
 80020cc:	0a5b      	lsrs	r3, r3, #9
 80020ce:	431a      	orrs	r2, r3
 80020d0:	687b      	ldr	r3, [r7, #4]
 80020d2:	629a      	str	r2, [r3, #40]	@ 0x28
}
 80020d4:	46c0      	nop			@ (mov r8, r8)
 80020d6:	46bd      	mov	sp, r7
 80020d8:	b002      	add	sp, #8
 80020da:	bd80      	pop	{r7, pc}

080020dc <LL_ADC_REG_SetSequencerChRem>:
  *             using helper macro @ref __LL_ADC_CHANNEL_INTERNAL_TO_EXTERNAL().
  *         (3) ADC channels available on STM32C031xx device only.
  * @retval None
  */
__STATIC_INLINE void LL_ADC_REG_SetSequencerChRem(ADC_TypeDef *ADCx, uint32_t Channel)
{
 80020dc:	b580      	push	{r7, lr}
 80020de:	b082      	sub	sp, #8
 80020e0:	af00      	add	r7, sp, #0
 80020e2:	6078      	str	r0, [r7, #4]
 80020e4:	6039      	str	r1, [r7, #0]
  /* Parameter "Channel" is used with masks because containing                */
  /* other bits reserved for other purpose.                                   */
  CLEAR_BIT(ADCx->CHSELR, (Channel & ADC_CHANNEL_ID_BITFIELD_MASK));
 80020e6:	687b      	ldr	r3, [r7, #4]
 80020e8:	6a9b      	ldr	r3, [r3, #40]	@ 0x28
 80020ea:	683a      	ldr	r2, [r7, #0]
 80020ec:	0252      	lsls	r2, r2, #9
 80020ee:	0a52      	lsrs	r2, r2, #9
 80020f0:	43d2      	mvns	r2, r2
 80020f2:	401a      	ands	r2, r3
 80020f4:	687b      	ldr	r3, [r7, #4]
 80020f6:	629a      	str	r2, [r3, #40]	@ 0x28
}
 80020f8:	46c0      	nop			@ (mov r8, r8)
 80020fa:	46bd      	mov	sp, r7
 80020fc:	b002      	add	sp, #8
 80020fe:	bd80      	pop	{r7, pc}

08002100 <LL_ADC_SetChannelSamplingTime>:
  *         @arg @ref LL_ADC_SAMPLINGTIME_COMMON_1
  *         @arg @ref LL_ADC_SAMPLINGTIME_COMMON_2
  * @retval None
  */
__STATIC_INLINE void LL_ADC_SetChannelSamplingTime(ADC_TypeDef *ADCx, uint32_t Channel, uint32_t SamplingTimeY)
{
 8002100:	b580      	push	{r7, lr}
 8002102:	b084      	sub	sp, #16
 8002104:	af00      	add	r7, sp, #0
 8002106:	60f8      	str	r0, [r7, #12]
 8002108:	60b9      	str	r1, [r7, #8]
 800210a:	607a      	str	r2, [r7, #4]
  /* Parameter "Channel" is used with masks because containing                */
  /* other bits reserved for other purpose.                                   */
  MODIFY_REG(ADCx->SMPR,
 800210c:	68fb      	ldr	r3, [r7, #12]
 800210e:	695b      	ldr	r3, [r3, #20]
 8002110:	68ba      	ldr	r2, [r7, #8]
 8002112:	0212      	lsls	r2, r2, #8
 8002114:	43d2      	mvns	r2, r2
 8002116:	401a      	ands	r2, r3
 8002118:	68bb      	ldr	r3, [r7, #8]
 800211a:	021b      	lsls	r3, r3, #8
 800211c:	6879      	ldr	r1, [r7, #4]
 800211e:	400b      	ands	r3, r1
 8002120:	4904      	ldr	r1, [pc, #16]	@ (8002134 <LL_ADC_SetChannelSamplingTime+0x34>)
 8002122:	400b      	ands	r3, r1
 8002124:	431a      	orrs	r2, r3
 8002126:	68fb      	ldr	r3, [r7, #12]
 8002128:	615a      	str	r2, [r3, #20]
             (Channel << ADC_SMPR_SMPSEL0_BITOFFSET_POS),
             (Channel << ADC_SMPR_SMPSEL0_BITOFFSET_POS) & (SamplingTimeY & ADC_SAMPLING_TIME_CH_MASK)
            );
}
 800212a:	46c0      	nop			@ (mov r8, r8)
 800212c:	46bd      	mov	sp, r7
 800212e:	b004      	add	sp, #16
 8002130:	bd80      	pop	{r7, pc}
 8002132:	46c0      	nop			@ (mov r8, r8)
 8002134:	7fffff00 	.word	0x7fffff00

08002138 <LL_ADC_EnableInternalRegulator>:
  * @rmtoll CR       ADVREGEN       LL_ADC_EnableInternalRegulator
  * @param  ADCx ADC instance
  * @retval None
  */
__STATIC_INLINE void LL_ADC_EnableInternalRegulator(ADC_TypeDef *ADCx)
{
 8002138:	b580      	push	{r7, lr}
 800213a:	b082      	sub	sp, #8
 800213c:	af00      	add	r7, sp, #0
 800213e:	6078      	str	r0, [r7, #4]
  /* Note: Write register with some additional bits forced to state reset     */
  /*       instead of modifying only the selected bit for this function,      */
  /*       to not interfere with bits with HW property "rs".                  */
  MODIFY_REG(ADCx->CR,
 8002140:	687b      	ldr	r3, [r7, #4]
 8002142:	689b      	ldr	r3, [r3, #8]
 8002144:	4a05      	ldr	r2, [pc, #20]	@ (800215c <LL_ADC_EnableInternalRegulator+0x24>)
 8002146:	4013      	ands	r3, r2
 8002148:	2280      	movs	r2, #128	@ 0x80
 800214a:	0552      	lsls	r2, r2, #21
 800214c:	431a      	orrs	r2, r3
 800214e:	687b      	ldr	r3, [r7, #4]
 8002150:	609a      	str	r2, [r3, #8]
             ADC_CR_BITS_PROPERTY_RS,
             ADC_CR_ADVREGEN);
}
 8002152:	46c0      	nop			@ (mov r8, r8)
 8002154:	46bd      	mov	sp, r7
 8002156:	b002      	add	sp, #8
 8002158:	bd80      	pop	{r7, pc}
 800215a:	46c0      	nop			@ (mov r8, r8)
 800215c:	6fffffe8 	.word	0x6fffffe8

08002160 <LL_ADC_IsInternalRegulatorEnabled>:
  * @rmtoll CR       ADVREGEN       LL_ADC_IsInternalRegulatorEnabled
  * @param  ADCx ADC instance
  * @retval 0: internal regulator is disabled, 1: internal regulator is enabled.
  */
__STATIC_INLINE uint32_t LL_ADC_IsInternalRegulatorEnabled(const ADC_TypeDef *ADCx)
{
 8002160:	b580      	push	{r7, lr}
 8002162:	b082      	sub	sp, #8
 8002164:	af00      	add	r7, sp, #0
 8002166:	6078      	str	r0, [r7, #4]
  return ((READ_BIT(ADCx->CR, ADC_CR_ADVREGEN) == (ADC_CR_ADVREGEN)) ? 1UL : 0UL);
 8002168:	687b      	ldr	r3, [r7, #4]
 800216a:	689a      	ldr	r2, [r3, #8]
 800216c:	2380      	movs	r3, #128	@ 0x80
 800216e:	055b      	lsls	r3, r3, #21
 8002170:	401a      	ands	r2, r3
 8002172:	2380      	movs	r3, #128	@ 0x80
 8002174:	055b      	lsls	r3, r3, #21
 8002176:	429a      	cmp	r2, r3
 8002178:	d101      	bne.n	800217e <LL_ADC_IsInternalRegulatorEnabled+0x1e>
 800217a:	2301      	movs	r3, #1
 800217c:	e000      	b.n	8002180 <LL_ADC_IsInternalRegulatorEnabled+0x20>
 800217e:	2300      	movs	r3, #0
}
 8002180:	0018      	movs	r0, r3
 8002182:	46bd      	mov	sp, r7
 8002184:	b002      	add	sp, #8
 8002186:	bd80      	pop	{r7, pc}

08002188 <LL_ADC_IsEnabled>:
  * @rmtoll CR       ADEN           LL_ADC_IsEnabled
  * @param  ADCx ADC instance
  * @retval 0: ADC is disabled, 1: ADC is enabled.
  */
__STATIC_INLINE uint32_t LL_ADC_IsEnabled(const ADC_TypeDef *ADCx)
{
 8002188:	b580      	push	{r7, lr}
 800218a:	b082      	sub	sp, #8
 800218c:	af00      	add	r7, sp, #0
 800218e:	6078      	str	r0, [r7, #4]
  return ((READ_BIT(ADCx->CR, ADC_CR_ADEN) == (ADC_CR_ADEN)) ? 1UL : 0UL);
 8002190:	687b      	ldr	r3, [r7, #4]
 8002192:	689b      	ldr	r3, [r3, #8]
 8002194:	2201      	movs	r2, #1
 8002196:	4013      	ands	r3, r2
 8002198:	2b01      	cmp	r3, #1
 800219a:	d101      	bne.n	80021a0 <LL_ADC_IsEnabled+0x18>
 800219c:	2301      	movs	r3, #1
 800219e:	e000      	b.n	80021a2 <LL_ADC_IsEnabled+0x1a>
 80021a0:	2300      	movs	r3, #0
}
 80021a2:	0018      	movs	r0, r3
 80021a4:	46bd      	mov	sp, r7
 80021a6:	b002      	add	sp, #8
 80021a8:	bd80      	pop	{r7, pc}

080021aa <LL_ADC_REG_IsConversionOngoing>:
  * @rmtoll CR       ADSTART        LL_ADC_REG_IsConversionOngoing
  * @param  ADCx ADC instance
  * @retval 0: no conversion is on going on ADC group regular.
  */
__STATIC_INLINE uint32_t LL_ADC_REG_IsConversionOngoing(const ADC_TypeDef *ADCx)
{
 80021aa:	b580      	push	{r7, lr}
 80021ac:	b082      	sub	sp, #8
 80021ae:	af00      	add	r7, sp, #0
 80021b0:	6078      	str	r0, [r7, #4]
  return ((READ_BIT(ADCx->CR, ADC_CR_ADSTART) == (ADC_CR_ADSTART)) ? 1UL : 0UL);
 80021b2:	687b      	ldr	r3, [r7, #4]
 80021b4:	689b      	ldr	r3, [r3, #8]
 80021b6:	2204      	movs	r2, #4
 80021b8:	4013      	ands	r3, r2
 80021ba:	2b04      	cmp	r3, #4
 80021bc:	d101      	bne.n	80021c2 <LL_ADC_REG_IsConversionOngoing+0x18>
 80021be:	2301      	movs	r3, #1
 80021c0:	e000      	b.n	80021c4 <LL_ADC_REG_IsConversionOngoing+0x1a>
 80021c2:	2300      	movs	r3, #0
}
 80021c4:	0018      	movs	r0, r3
 80021c6:	46bd      	mov	sp, r7
 80021c8:	b002      	add	sp, #8
 80021ca:	bd80      	pop	{r7, pc}

080021cc <HAL_ADC_Init>:
  *         of structure "ADC_InitTypeDef".
  * @param hadc ADC handle
  * @retval HAL status
  */
HAL_StatusTypeDef HAL_ADC_Init(ADC_HandleTypeDef *hadc)
{
 80021cc:	b580      	push	{r7, lr}
 80021ce:	b088      	sub	sp, #32
 80021d0:	af00      	add	r7, sp, #0
 80021d2:	6078      	str	r0, [r7, #4]
  HAL_StatusTypeDef tmp_hal_status = HAL_OK;
 80021d4:	231f      	movs	r3, #31
 80021d6:	18fb      	adds	r3, r7, r3
 80021d8:	2200      	movs	r2, #0
 80021da:	701a      	strb	r2, [r3, #0]
  uint32_t tmpCFGR1 = 0UL;
 80021dc:	2300      	movs	r3, #0
 80021de:	61bb      	str	r3, [r7, #24]
  uint32_t tmpCFGR2 = 0UL;
 80021e0:	2300      	movs	r3, #0
 80021e2:	617b      	str	r3, [r7, #20]
  uint32_t tmp_adc_reg_is_conversion_on_going;
  __IO uint32_t wait_loop_index = 0UL;
 80021e4:	2300      	movs	r3, #0
 80021e6:	60fb      	str	r3, [r7, #12]

  /* Check ADC handle */
  if (hadc == NULL)
 80021e8:	687b      	ldr	r3, [r7, #4]
 80021ea:	2b00      	cmp	r3, #0
 80021ec:	d101      	bne.n	80021f2 <HAL_ADC_Init+0x26>
  {
    return HAL_ERROR;
 80021ee:	2301      	movs	r3, #1
 80021f0:	e17e      	b.n	80024f0 <HAL_ADC_Init+0x324>
  /* continuous mode is disabled.                                             */
  assert_param(!((hadc->Init.DiscontinuousConvMode == ENABLE) && (hadc->Init.ContinuousConvMode == ENABLE)));

  /* Actions performed only if ADC is coming from state reset:                */
  /* - Initialization of ADC MSP                                              */
  if (hadc->State == HAL_ADC_STATE_RESET)
 80021f2:	687b      	ldr	r3, [r7, #4]
 80021f4:	6d9b      	ldr	r3, [r3, #88]	@ 0x58
 80021f6:	2b00      	cmp	r3, #0
 80021f8:	d10a      	bne.n	8002210 <HAL_ADC_Init+0x44>

    /* Init the low level hardware */
    hadc->MspInitCallback(hadc);
#else
    /* Init the low level hardware */
    HAL_ADC_MspInit(hadc);
 80021fa:	687b      	ldr	r3, [r7, #4]
 80021fc:	0018      	movs	r0, r3
 80021fe:	f7ff fc21 	bl	8001a44 <HAL_ADC_MspInit>
#endif /* USE_HAL_ADC_REGISTER_CALLBACKS */

    /* Set ADC error code to none */
    ADC_CLEAR_ERRORCODE(hadc);
 8002202:	687b      	ldr	r3, [r7, #4]
 8002204:	2200      	movs	r2, #0
 8002206:	65da      	str	r2, [r3, #92]	@ 0x5c

    /* Initialize Lock */
    hadc->Lock = HAL_UNLOCKED;
 8002208:	687b      	ldr	r3, [r7, #4]
 800220a:	2254      	movs	r2, #84	@ 0x54
 800220c:	2100      	movs	r1, #0
 800220e:	5499      	strb	r1, [r3, r2]
  }

  if (LL_ADC_IsInternalRegulatorEnabled(hadc->Instance) == 0UL)
 8002210:	687b      	ldr	r3, [r7, #4]
 8002212:	681b      	ldr	r3, [r3, #0]
 8002214:	0018      	movs	r0, r3
 8002216:	f7ff ffa3 	bl	8002160 <LL_ADC_IsInternalRegulatorEnabled>
 800221a:	1e03      	subs	r3, r0, #0
 800221c:	d114      	bne.n	8002248 <HAL_ADC_Init+0x7c>
  {
    /* Enable ADC internal voltage regulator */
    LL_ADC_EnableInternalRegulator(hadc->Instance);
 800221e:	687b      	ldr	r3, [r7, #4]
 8002220:	681b      	ldr	r3, [r3, #0]
 8002222:	0018      	movs	r0, r3
 8002224:	f7ff ff88 	bl	8002138 <LL_ADC_EnableInternalRegulator>
    /* Delay for ADC stabilization time */
    /* Wait loop initialization and execution */
    /* Note: Variable divided by 2 to compensate partially              */
    /*       CPU processing cycles, scaling in us split to not          */
    /*       exceed 32 bits register capacity and handle low frequency. */
    wait_loop_index = ((LL_ADC_DELAY_INTERNAL_REGUL_STAB_US / 10UL) * (SystemCoreClock / (100000UL * 2UL)));
 8002228:	4bb3      	ldr	r3, [pc, #716]	@ (80024f8 <HAL_ADC_Init+0x32c>)
 800222a:	681b      	ldr	r3, [r3, #0]
 800222c:	49b3      	ldr	r1, [pc, #716]	@ (80024fc <HAL_ADC_Init+0x330>)
 800222e:	0018      	movs	r0, r3
 8002230:	f7fd ff7c 	bl	800012c <__udivsi3>
 8002234:	0003      	movs	r3, r0
 8002236:	005b      	lsls	r3, r3, #1
 8002238:	60fb      	str	r3, [r7, #12]
    while (wait_loop_index != 0UL)
 800223a:	e002      	b.n	8002242 <HAL_ADC_Init+0x76>
    {
      wait_loop_index--;
 800223c:	68fb      	ldr	r3, [r7, #12]
 800223e:	3b01      	subs	r3, #1
 8002240:	60fb      	str	r3, [r7, #12]
    while (wait_loop_index != 0UL)
 8002242:	68fb      	ldr	r3, [r7, #12]
 8002244:	2b00      	cmp	r3, #0
 8002246:	d1f9      	bne.n	800223c <HAL_ADC_Init+0x70>
  }

  /* Verification that ADC voltage regulator is correctly enabled, whether    */
  /* or not ADC is coming from state reset (if any potential problem of       */
  /* clocking, voltage regulator would not be enabled).                       */
  if (LL_ADC_IsInternalRegulatorEnabled(hadc->Instance) == 0UL)
 8002248:	687b      	ldr	r3, [r7, #4]
 800224a:	681b      	ldr	r3, [r3, #0]
 800224c:	0018      	movs	r0, r3
 800224e:	f7ff ff87 	bl	8002160 <LL_ADC_IsInternalRegulatorEnabled>
 8002252:	1e03      	subs	r3, r0, #0
 8002254:	d10f      	bne.n	8002276 <HAL_ADC_Init+0xaa>
  {
    /* Update ADC state machine to error */
    SET_BIT(hadc->State, HAL_ADC_STATE_ERROR_INTERNAL);
 8002256:	687b      	ldr	r3, [r7, #4]
 8002258:	6d9b      	ldr	r3, [r3, #88]	@ 0x58
 800225a:	2210      	movs	r2, #16
 800225c:	431a      	orrs	r2, r3
 800225e:	687b      	ldr	r3, [r7, #4]
 8002260:	659a      	str	r2, [r3, #88]	@ 0x58

    /* Set ADC error code to ADC peripheral internal error */
    SET_BIT(hadc->ErrorCode, HAL_ADC_ERROR_INTERNAL);
 8002262:	687b      	ldr	r3, [r7, #4]
 8002264:	6ddb      	ldr	r3, [r3, #92]	@ 0x5c
 8002266:	2201      	movs	r2, #1
 8002268:	431a      	orrs	r2, r3
 800226a:	687b      	ldr	r3, [r7, #4]
 800226c:	65da      	str	r2, [r3, #92]	@ 0x5c

    tmp_hal_status = HAL_ERROR;
 800226e:	231f      	movs	r3, #31
 8002270:	18fb      	adds	r3, r7, r3
 8002272:	2201      	movs	r2, #1
 8002274:	701a      	strb	r2, [r3, #0]

  /* Configuration of ADC parameters if previous preliminary actions are      */
  /* correctly completed and if there is no conversion on going on regular    */
  /* group (ADC may already be enabled at this point if HAL_ADC_Init() is     */
  /* called to update a parameter on the fly).                                */
  tmp_adc_reg_is_conversion_on_going = LL_ADC_REG_IsConversionOngoing(hadc->Instance);
 8002276:	687b      	ldr	r3, [r7, #4]
 8002278:	681b      	ldr	r3, [r3, #0]
 800227a:	0018      	movs	r0, r3
 800227c:	f7ff ff95 	bl	80021aa <LL_ADC_REG_IsConversionOngoing>
 8002280:	0003      	movs	r3, r0
 8002282:	613b      	str	r3, [r7, #16]

  if (((hadc->State & HAL_ADC_STATE_ERROR_INTERNAL) == 0UL)
 8002284:	687b      	ldr	r3, [r7, #4]
 8002286:	6d9b      	ldr	r3, [r3, #88]	@ 0x58
 8002288:	2210      	movs	r2, #16
 800228a:	4013      	ands	r3, r2
 800228c:	d000      	beq.n	8002290 <HAL_ADC_Init+0xc4>
 800228e:	e122      	b.n	80024d6 <HAL_ADC_Init+0x30a>
      && (tmp_adc_reg_is_conversion_on_going == 0UL)
 8002290:	693b      	ldr	r3, [r7, #16]
 8002292:	2b00      	cmp	r3, #0
 8002294:	d000      	beq.n	8002298 <HAL_ADC_Init+0xcc>
 8002296:	e11e      	b.n	80024d6 <HAL_ADC_Init+0x30a>
     )
  {
    /* Set ADC state */
    ADC_STATE_CLR_SET(hadc->State,
 8002298:	687b      	ldr	r3, [r7, #4]
 800229a:	6d9b      	ldr	r3, [r3, #88]	@ 0x58
 800229c:	4a98      	ldr	r2, [pc, #608]	@ (8002500 <HAL_ADC_Init+0x334>)
 800229e:	4013      	ands	r3, r2
 80022a0:	2202      	movs	r2, #2
 80022a2:	431a      	orrs	r2, r3
 80022a4:	687b      	ldr	r3, [r7, #4]
 80022a6:	659a      	str	r2, [r3, #88]	@ 0x58
    /*  - DMA continuous request                                              */
    /*  - Trigger frequency mode                                              */
    /* Note: If low power mode AutoPowerOff is enabled, ADC enable            */
    /*       and disable phases are performed automatically by hardware       */
    /*       (in this case, flag ADC_FLAG_RDY is not set).                    */
    if (LL_ADC_IsEnabled(hadc->Instance) == 0UL)
 80022a8:	687b      	ldr	r3, [r7, #4]
 80022aa:	681b      	ldr	r3, [r3, #0]
 80022ac:	0018      	movs	r0, r3
 80022ae:	f7ff ff6b 	bl	8002188 <LL_ADC_IsEnabled>
 80022b2:	1e03      	subs	r3, r0, #0
 80022b4:	d000      	beq.n	80022b8 <HAL_ADC_Init+0xec>
 80022b6:	e0ad      	b.n	8002414 <HAL_ADC_Init+0x248>
      /* without needing to reconfigure all other ADC groups/channels         */
      /* parameters):                                                         */
      /*   - internal measurement paths: temperature sensor, Vref             */
      /*     (set into HAL_ADC_ConfigChannel() )                              */

      tmpCFGR1 |= (hadc->Init.Resolution                                          |
 80022b8:	687b      	ldr	r3, [r7, #4]
 80022ba:	689a      	ldr	r2, [r3, #8]
                   ADC_CFGR1_AUTOWAIT((uint32_t)hadc->Init.LowPowerAutoWait)      |
 80022bc:	687b      	ldr	r3, [r7, #4]
 80022be:	7e1b      	ldrb	r3, [r3, #24]
 80022c0:	039b      	lsls	r3, r3, #14
      tmpCFGR1 |= (hadc->Init.Resolution                                          |
 80022c2:	431a      	orrs	r2, r3
                   ADC_CFGR1_AUTOOFF((uint32_t)hadc->Init.LowPowerAutoPowerOff)   |
 80022c4:	687b      	ldr	r3, [r7, #4]
 80022c6:	7e5b      	ldrb	r3, [r3, #25]
 80022c8:	03db      	lsls	r3, r3, #15
                   ADC_CFGR1_AUTOWAIT((uint32_t)hadc->Init.LowPowerAutoWait)      |
 80022ca:	431a      	orrs	r2, r3
                   ADC_CFGR1_CONTINUOUS((uint32_t)hadc->Init.ContinuousConvMode)  |
 80022cc:	687b      	ldr	r3, [r7, #4]
 80022ce:	7e9b      	ldrb	r3, [r3, #26]
 80022d0:	035b      	lsls	r3, r3, #13
                   ADC_CFGR1_AUTOOFF((uint32_t)hadc->Init.LowPowerAutoPowerOff)   |
 80022d2:	431a      	orrs	r2, r3
                   ADC_CFGR1_OVERRUN(hadc->Init.Overrun)                          |
 80022d4:	687b      	ldr	r3, [r7, #4]
 80022d6:	6b1b      	ldr	r3, [r3, #48]	@ 0x30
 80022d8:	2b00      	cmp	r3, #0
 80022da:	d002      	beq.n	80022e2 <HAL_ADC_Init+0x116>
 80022dc:	2380      	movs	r3, #128	@ 0x80
 80022de:	015b      	lsls	r3, r3, #5
 80022e0:	e000      	b.n	80022e4 <HAL_ADC_Init+0x118>
 80022e2:	2300      	movs	r3, #0
                   ADC_CFGR1_CONTINUOUS((uint32_t)hadc->Init.ContinuousConvMode)  |
 80022e4:	431a      	orrs	r2, r3
                   hadc->Init.DataAlign                                           |
 80022e6:	687b      	ldr	r3, [r7, #4]
 80022e8:	68db      	ldr	r3, [r3, #12]
                   ADC_CFGR1_OVERRUN(hadc->Init.Overrun)                          |
 80022ea:	431a      	orrs	r2, r3
                   ADC_SCAN_SEQ_MODE(hadc->Init.ScanConvMode)                     |
 80022ec:	687b      	ldr	r3, [r7, #4]
 80022ee:	691b      	ldr	r3, [r3, #16]
 80022f0:	2b00      	cmp	r3, #0
 80022f2:	da04      	bge.n	80022fe <HAL_ADC_Init+0x132>
 80022f4:	687b      	ldr	r3, [r7, #4]
 80022f6:	691b      	ldr	r3, [r3, #16]
 80022f8:	005b      	lsls	r3, r3, #1
 80022fa:	085b      	lsrs	r3, r3, #1
 80022fc:	e001      	b.n	8002302 <HAL_ADC_Init+0x136>
 80022fe:	2380      	movs	r3, #128	@ 0x80
 8002300:	039b      	lsls	r3, r3, #14
                   hadc->Init.DataAlign                                           |
 8002302:	431a      	orrs	r2, r3
                   ADC_CFGR1_DMACONTREQ((uint32_t)hadc->Init.DMAContinuousRequests));
 8002304:	687b      	ldr	r3, [r7, #4]
 8002306:	212c      	movs	r1, #44	@ 0x2c
 8002308:	5c5b      	ldrb	r3, [r3, r1]
 800230a:	005b      	lsls	r3, r3, #1
                   ADC_SCAN_SEQ_MODE(hadc->Init.ScanConvMode)                     |
 800230c:	4313      	orrs	r3, r2
      tmpCFGR1 |= (hadc->Init.Resolution                                          |
 800230e:	69ba      	ldr	r2, [r7, #24]
 8002310:	4313      	orrs	r3, r2
 8002312:	61bb      	str	r3, [r7, #24]

      /* Update setting of discontinuous mode only if continuous mode is disabled */
      if (hadc->Init.DiscontinuousConvMode == ENABLE)
 8002314:	687b      	ldr	r3, [r7, #4]
 8002316:	2220      	movs	r2, #32
 8002318:	5c9b      	ldrb	r3, [r3, r2]
 800231a:	2b01      	cmp	r3, #1
 800231c:	d115      	bne.n	800234a <HAL_ADC_Init+0x17e>
      {
        if (hadc->Init.ContinuousConvMode == DISABLE)
 800231e:	687b      	ldr	r3, [r7, #4]
 8002320:	7e9b      	ldrb	r3, [r3, #26]
 8002322:	2b00      	cmp	r3, #0
 8002324:	d105      	bne.n	8002332 <HAL_ADC_Init+0x166>
        {
          /* Enable the selected ADC group regular discontinuous mode */
          tmpCFGR1 |= ADC_CFGR1_DISCEN;
 8002326:	69bb      	ldr	r3, [r7, #24]
 8002328:	2280      	movs	r2, #128	@ 0x80
 800232a:	0252      	lsls	r2, r2, #9
 800232c:	4313      	orrs	r3, r2
 800232e:	61bb      	str	r3, [r7, #24]
 8002330:	e00b      	b.n	800234a <HAL_ADC_Init+0x17e>
          /* ADC regular group discontinuous was intended to be enabled,        */
          /* but ADC regular group modes continuous and sequencer discontinuous */
          /* cannot be enabled simultaneously.                                  */

          /* Update ADC state machine to error */
          SET_BIT(hadc->State, HAL_ADC_STATE_ERROR_CONFIG);
 8002332:	687b      	ldr	r3, [r7, #4]
 8002334:	6d9b      	ldr	r3, [r3, #88]	@ 0x58
 8002336:	2220      	movs	r2, #32
 8002338:	431a      	orrs	r2, r3
 800233a:	687b      	ldr	r3, [r7, #4]
 800233c:	659a      	str	r2, [r3, #88]	@ 0x58

          /* Set ADC error code to ADC peripheral internal error */
          SET_BIT(hadc->ErrorCode, HAL_ADC_ERROR_INTERNAL);
 800233e:	687b      	ldr	r3, [r7, #4]
 8002340:	6ddb      	ldr	r3, [r3, #92]	@ 0x5c
 8002342:	2201      	movs	r2, #1
 8002344:	431a      	orrs	r2, r3
 8002346:	687b      	ldr	r3, [r7, #4]
 8002348:	65da      	str	r2, [r3, #92]	@ 0x5c
      /* Enable external trigger if trigger selection is different of software  */
      /* start.                                                                 */
      /* Note: This configuration keeps the hardware feature of parameter       */
      /*       ExternalTrigConvEdge "trigger edge none" equivalent to           */
      /*       software start.                                                  */
      if (hadc->Init.ExternalTrigConv != ADC_SOFTWARE_START)
 800234a:	687b      	ldr	r3, [r7, #4]
 800234c:	6a5b      	ldr	r3, [r3, #36]	@ 0x24
 800234e:	2b00      	cmp	r3, #0
 8002350:	d00a      	beq.n	8002368 <HAL_ADC_Init+0x19c>
      {
        tmpCFGR1 |= ((hadc->Init.ExternalTrigConv & ADC_CFGR1_EXTSEL) |
 8002352:	687b      	ldr	r3, [r7, #4]
 8002354:	6a5a      	ldr	r2, [r3, #36]	@ 0x24
 8002356:	23e0      	movs	r3, #224	@ 0xe0
 8002358:	005b      	lsls	r3, r3, #1
 800235a:	401a      	ands	r2, r3
                     hadc->Init.ExternalTrigConvEdge);
 800235c:	687b      	ldr	r3, [r7, #4]
 800235e:	6a9b      	ldr	r3, [r3, #40]	@ 0x28
        tmpCFGR1 |= ((hadc->Init.ExternalTrigConv & ADC_CFGR1_EXTSEL) |
 8002360:	4313      	orrs	r3, r2
 8002362:	69ba      	ldr	r2, [r7, #24]
 8002364:	4313      	orrs	r3, r2
 8002366:	61bb      	str	r3, [r7, #24]
      }

      /* Update ADC configuration register with previous settings */
      MODIFY_REG(hadc->Instance->CFGR1,
 8002368:	687b      	ldr	r3, [r7, #4]
 800236a:	681b      	ldr	r3, [r3, #0]
 800236c:	68db      	ldr	r3, [r3, #12]
 800236e:	4a65      	ldr	r2, [pc, #404]	@ (8002504 <HAL_ADC_Init+0x338>)
 8002370:	4013      	ands	r3, r2
 8002372:	0019      	movs	r1, r3
 8002374:	687b      	ldr	r3, [r7, #4]
 8002376:	681b      	ldr	r3, [r3, #0]
 8002378:	69ba      	ldr	r2, [r7, #24]
 800237a:	430a      	orrs	r2, r1
 800237c:	60da      	str	r2, [r3, #12]
                 ADC_CFGR1_ALIGN   |
                 ADC_CFGR1_SCANDIR |
                 ADC_CFGR1_DMACFG,
                 tmpCFGR1);

      tmpCFGR2 |= ((hadc->Init.ClockPrescaler & ADC_CFGR2_CKMODE) |
 800237e:	687b      	ldr	r3, [r7, #4]
 8002380:	685b      	ldr	r3, [r3, #4]
 8002382:	0f9b      	lsrs	r3, r3, #30
 8002384:	079a      	lsls	r2, r3, #30
                   hadc->Init.TriggerFrequencyMode
 8002386:	687b      	ldr	r3, [r7, #4]
 8002388:	6cdb      	ldr	r3, [r3, #76]	@ 0x4c
      tmpCFGR2 |= ((hadc->Init.ClockPrescaler & ADC_CFGR2_CKMODE) |
 800238a:	4313      	orrs	r3, r2
 800238c:	697a      	ldr	r2, [r7, #20]
 800238e:	4313      	orrs	r3, r2
 8002390:	617b      	str	r3, [r7, #20]
                  );

      if (hadc->Init.OversamplingMode == ENABLE)
 8002392:	687b      	ldr	r3, [r7, #4]
 8002394:	223c      	movs	r2, #60	@ 0x3c
 8002396:	5c9b      	ldrb	r3, [r3, r2]
 8002398:	2b01      	cmp	r3, #1
 800239a:	d111      	bne.n	80023c0 <HAL_ADC_Init+0x1f4>
      {
        tmpCFGR2 |= (ADC_CFGR2_OVSE |
                     (hadc->Init.ClockPrescaler & ADC_CFGR2_CKMODE) |
 800239c:	687b      	ldr	r3, [r7, #4]
 800239e:	685b      	ldr	r3, [r3, #4]
 80023a0:	0f9b      	lsrs	r3, r3, #30
 80023a2:	079a      	lsls	r2, r3, #30
                     hadc->Init.Oversampling.Ratio         |
 80023a4:	687b      	ldr	r3, [r7, #4]
 80023a6:	6c1b      	ldr	r3, [r3, #64]	@ 0x40
                     (hadc->Init.ClockPrescaler & ADC_CFGR2_CKMODE) |
 80023a8:	431a      	orrs	r2, r3
                     hadc->Init.Oversampling.RightBitShift |
 80023aa:	687b      	ldr	r3, [r7, #4]
 80023ac:	6c5b      	ldr	r3, [r3, #68]	@ 0x44
                     hadc->Init.Oversampling.Ratio         |
 80023ae:	431a      	orrs	r2, r3
                     hadc->Init.Oversampling.TriggeredMode
 80023b0:	687b      	ldr	r3, [r7, #4]
 80023b2:	6c9b      	ldr	r3, [r3, #72]	@ 0x48
                     hadc->Init.Oversampling.RightBitShift |
 80023b4:	431a      	orrs	r2, r3
        tmpCFGR2 |= (ADC_CFGR2_OVSE |
 80023b6:	697b      	ldr	r3, [r7, #20]
 80023b8:	4313      	orrs	r3, r2
 80023ba:	2201      	movs	r2, #1
 80023bc:	4313      	orrs	r3, r2
 80023be:	617b      	str	r3, [r7, #20]
                    );
      }

      MODIFY_REG(hadc->Instance->CFGR2,
 80023c0:	687b      	ldr	r3, [r7, #4]
 80023c2:	681b      	ldr	r3, [r3, #0]
 80023c4:	691b      	ldr	r3, [r3, #16]
 80023c6:	4a50      	ldr	r2, [pc, #320]	@ (8002508 <HAL_ADC_Init+0x33c>)
 80023c8:	4013      	ands	r3, r2
 80023ca:	0019      	movs	r1, r3
 80023cc:	687b      	ldr	r3, [r7, #4]
 80023ce:	681b      	ldr	r3, [r3, #0]
 80023d0:	697a      	ldr	r2, [r7, #20]
 80023d2:	430a      	orrs	r2, r1
 80023d4:	611a      	str	r2, [r3, #16]
                 ADC_CFGR2_TOVS,
                 tmpCFGR2);

      /* Configuration of ADC clock mode: asynchronous clock source           */
      /* with selectable prescaler.                                           */
      if (((hadc->Init.ClockPrescaler) != ADC_CLOCK_SYNC_PCLK_DIV1) &&
 80023d6:	687b      	ldr	r3, [r7, #4]
 80023d8:	685a      	ldr	r2, [r3, #4]
 80023da:	23c0      	movs	r3, #192	@ 0xc0
 80023dc:	061b      	lsls	r3, r3, #24
 80023de:	429a      	cmp	r2, r3
 80023e0:	d018      	beq.n	8002414 <HAL_ADC_Init+0x248>
          ((hadc->Init.ClockPrescaler) != ADC_CLOCK_SYNC_PCLK_DIV2) &&
 80023e2:	687b      	ldr	r3, [r7, #4]
 80023e4:	685a      	ldr	r2, [r3, #4]
      if (((hadc->Init.ClockPrescaler) != ADC_CLOCK_SYNC_PCLK_DIV1) &&
 80023e6:	2380      	movs	r3, #128	@ 0x80
 80023e8:	05db      	lsls	r3, r3, #23
 80023ea:	429a      	cmp	r2, r3
 80023ec:	d012      	beq.n	8002414 <HAL_ADC_Init+0x248>
          ((hadc->Init.ClockPrescaler) != ADC_CLOCK_SYNC_PCLK_DIV4))
 80023ee:	687b      	ldr	r3, [r7, #4]
 80023f0:	685a      	ldr	r2, [r3, #4]
          ((hadc->Init.ClockPrescaler) != ADC_CLOCK_SYNC_PCLK_DIV2) &&
 80023f2:	2380      	movs	r3, #128	@ 0x80
 80023f4:	061b      	lsls	r3, r3, #24
 80023f6:	429a      	cmp	r2, r3
 80023f8:	d00c      	beq.n	8002414 <HAL_ADC_Init+0x248>
      {
        MODIFY_REG(ADC1_COMMON->CCR,
 80023fa:	4b44      	ldr	r3, [pc, #272]	@ (800250c <HAL_ADC_Init+0x340>)
 80023fc:	681b      	ldr	r3, [r3, #0]
 80023fe:	4a44      	ldr	r2, [pc, #272]	@ (8002510 <HAL_ADC_Init+0x344>)
 8002400:	4013      	ands	r3, r2
 8002402:	0019      	movs	r1, r3
 8002404:	687b      	ldr	r3, [r7, #4]
 8002406:	685a      	ldr	r2, [r3, #4]
 8002408:	23f0      	movs	r3, #240	@ 0xf0
 800240a:	039b      	lsls	r3, r3, #14
 800240c:	401a      	ands	r2, r3
 800240e:	4b3f      	ldr	r3, [pc, #252]	@ (800250c <HAL_ADC_Init+0x340>)
 8002410:	430a      	orrs	r2, r1
 8002412:	601a      	str	r2, [r3, #0]
                   hadc->Init.ClockPrescaler & ADC_CCR_PRESC);
      }
    }

    /* Channel sampling time configuration */
    LL_ADC_SetSamplingTimeCommonChannels(hadc->Instance, LL_ADC_SAMPLINGTIME_COMMON_1, hadc->Init.SamplingTimeCommon1);
 8002414:	687b      	ldr	r3, [r7, #4]
 8002416:	6818      	ldr	r0, [r3, #0]
 8002418:	687b      	ldr	r3, [r7, #4]
 800241a:	6b5b      	ldr	r3, [r3, #52]	@ 0x34
 800241c:	001a      	movs	r2, r3
 800241e:	2100      	movs	r1, #0
 8002420:	f7ff fdf7 	bl	8002012 <LL_ADC_SetSamplingTimeCommonChannels>
    LL_ADC_SetSamplingTimeCommonChannels(hadc->Instance, LL_ADC_SAMPLINGTIME_COMMON_2, hadc->Init.SamplingTimeCommon2);
 8002424:	687b      	ldr	r3, [r7, #4]
 8002426:	6818      	ldr	r0, [r3, #0]
 8002428:	687b      	ldr	r3, [r7, #4]
 800242a:	6b9b      	ldr	r3, [r3, #56]	@ 0x38
 800242c:	4939      	ldr	r1, [pc, #228]	@ (8002514 <HAL_ADC_Init+0x348>)
 800242e:	001a      	movs	r2, r3
 8002430:	f7ff fdef 	bl	8002012 <LL_ADC_SetSamplingTimeCommonChannels>
    /*   emulated by software for alignment over all STM32 devices.           */
    /* - if scan mode is enabled, regular channels sequence length is set to  */
    /*   parameter "NbrOfConversion".                                         */
    /*   Channels must be configured into each rank using function            */
    /*   "HAL_ADC_ConfigChannel()".                                           */
    if (hadc->Init.ScanConvMode == ADC_SCAN_DISABLE)
 8002434:	687b      	ldr	r3, [r7, #4]
 8002436:	691b      	ldr	r3, [r3, #16]
 8002438:	2b00      	cmp	r3, #0
 800243a:	d109      	bne.n	8002450 <HAL_ADC_Init+0x284>
    {
      /* Set sequencer scan length by clearing ranks above rank 1             */
      /* and do not modify rank 1 value.                                      */
      SET_BIT(hadc->Instance->CHSELR,
 800243c:	687b      	ldr	r3, [r7, #4]
 800243e:	681b      	ldr	r3, [r3, #0]
 8002440:	6a9a      	ldr	r2, [r3, #40]	@ 0x28
 8002442:	687b      	ldr	r3, [r7, #4]
 8002444:	681b      	ldr	r3, [r3, #0]
 8002446:	2110      	movs	r1, #16
 8002448:	4249      	negs	r1, r1
 800244a:	430a      	orrs	r2, r1
 800244c:	629a      	str	r2, [r3, #40]	@ 0x28
 800244e:	e018      	b.n	8002482 <HAL_ADC_Init+0x2b6>
              ADC_CHSELR_SQ2_TO_SQ8);
    }
    else if (hadc->Init.ScanConvMode == ADC_SCAN_ENABLE)
 8002450:	687b      	ldr	r3, [r7, #4]
 8002452:	691a      	ldr	r2, [r3, #16]
 8002454:	2380      	movs	r3, #128	@ 0x80
 8002456:	039b      	lsls	r3, r3, #14
 8002458:	429a      	cmp	r2, r3
 800245a:	d112      	bne.n	8002482 <HAL_ADC_Init+0x2b6>
      /*          therefore after the first call of "HAL_ADC_Init()",       */
      /*          each rank corresponding to parameter "NbrOfConversion"    */
      /*          must be set using "HAL_ADC_ConfigChannel()".              */
      /*  - Set sequencer scan length by clearing ranks above maximum rank  */
      /*    and do not modify other ranks value.                            */
      MODIFY_REG(hadc->Instance->CHSELR,
 800245c:	687b      	ldr	r3, [r7, #4]
 800245e:	681b      	ldr	r3, [r3, #0]
 8002460:	6a9b      	ldr	r3, [r3, #40]	@ 0x28
 8002462:	687b      	ldr	r3, [r7, #4]
 8002464:	69db      	ldr	r3, [r3, #28]
 8002466:	3b01      	subs	r3, #1
 8002468:	009b      	lsls	r3, r3, #2
 800246a:	221c      	movs	r2, #28
 800246c:	4013      	ands	r3, r2
 800246e:	2210      	movs	r2, #16
 8002470:	4252      	negs	r2, r2
 8002472:	409a      	lsls	r2, r3
 8002474:	0011      	movs	r1, r2
 8002476:	687b      	ldr	r3, [r7, #4]
 8002478:	6e1a      	ldr	r2, [r3, #96]	@ 0x60
 800247a:	687b      	ldr	r3, [r7, #4]
 800247c:	681b      	ldr	r3, [r3, #0]
 800247e:	430a      	orrs	r2, r1
 8002480:	629a      	str	r2, [r3, #40]	@ 0x28
    {
      /* Nothing to do */
    }
    /* Check back that ADC registers have effectively been configured to      */
    /* ensure of no potential problem of ADC core peripheral clocking.        */
    if (LL_ADC_GetSamplingTimeCommonChannels(hadc->Instance, LL_ADC_SAMPLINGTIME_COMMON_1)
 8002482:	687b      	ldr	r3, [r7, #4]
 8002484:	681b      	ldr	r3, [r3, #0]
 8002486:	2100      	movs	r1, #0
 8002488:	0018      	movs	r0, r3
 800248a:	f7ff fddf 	bl	800204c <LL_ADC_GetSamplingTimeCommonChannels>
 800248e:	0002      	movs	r2, r0
        == hadc->Init.SamplingTimeCommon1)
 8002490:	687b      	ldr	r3, [r7, #4]
 8002492:	6b5b      	ldr	r3, [r3, #52]	@ 0x34
    if (LL_ADC_GetSamplingTimeCommonChannels(hadc->Instance, LL_ADC_SAMPLINGTIME_COMMON_1)
 8002494:	429a      	cmp	r2, r3
 8002496:	d10b      	bne.n	80024b0 <HAL_ADC_Init+0x2e4>
    {
      /* Set ADC error code to none */
      ADC_CLEAR_ERRORCODE(hadc);
 8002498:	687b      	ldr	r3, [r7, #4]
 800249a:	2200      	movs	r2, #0
 800249c:	65da      	str	r2, [r3, #92]	@ 0x5c

      /* Set the ADC state */
      ADC_STATE_CLR_SET(hadc->State,
 800249e:	687b      	ldr	r3, [r7, #4]
 80024a0:	6d9b      	ldr	r3, [r3, #88]	@ 0x58
 80024a2:	2203      	movs	r2, #3
 80024a4:	4393      	bics	r3, r2
 80024a6:	2201      	movs	r2, #1
 80024a8:	431a      	orrs	r2, r3
 80024aa:	687b      	ldr	r3, [r7, #4]
 80024ac:	659a      	str	r2, [r3, #88]	@ 0x58
    if (LL_ADC_GetSamplingTimeCommonChannels(hadc->Instance, LL_ADC_SAMPLINGTIME_COMMON_1)
 80024ae:	e01c      	b.n	80024ea <HAL_ADC_Init+0x31e>
                        HAL_ADC_STATE_READY);
    }
    else
    {
      /* Update ADC state machine to error */
      ADC_STATE_CLR_SET(hadc->State,
 80024b0:	687b      	ldr	r3, [r7, #4]
 80024b2:	6d9b      	ldr	r3, [r3, #88]	@ 0x58
 80024b4:	2212      	movs	r2, #18
 80024b6:	4393      	bics	r3, r2
 80024b8:	2210      	movs	r2, #16
 80024ba:	431a      	orrs	r2, r3
 80024bc:	687b      	ldr	r3, [r7, #4]
 80024be:	659a      	str	r2, [r3, #88]	@ 0x58
                        HAL_ADC_STATE_BUSY_INTERNAL,
                        HAL_ADC_STATE_ERROR_INTERNAL);

      /* Set ADC error code to ADC peripheral internal error */
      SET_BIT(hadc->ErrorCode, HAL_ADC_ERROR_INTERNAL);
 80024c0:	687b      	ldr	r3, [r7, #4]
 80024c2:	6ddb      	ldr	r3, [r3, #92]	@ 0x5c
 80024c4:	2201      	movs	r2, #1
 80024c6:	431a      	orrs	r2, r3
 80024c8:	687b      	ldr	r3, [r7, #4]
 80024ca:	65da      	str	r2, [r3, #92]	@ 0x5c

      tmp_hal_status = HAL_ERROR;
 80024cc:	231f      	movs	r3, #31
 80024ce:	18fb      	adds	r3, r7, r3
 80024d0:	2201      	movs	r2, #1
 80024d2:	701a      	strb	r2, [r3, #0]
    if (LL_ADC_GetSamplingTimeCommonChannels(hadc->Instance, LL_ADC_SAMPLINGTIME_COMMON_1)
 80024d4:	e009      	b.n	80024ea <HAL_ADC_Init+0x31e>

  }
  else
  {
    /* Update ADC state machine to error */
    SET_BIT(hadc->State, HAL_ADC_STATE_ERROR_INTERNAL);
 80024d6:	687b      	ldr	r3, [r7, #4]
 80024d8:	6d9b      	ldr	r3, [r3, #88]	@ 0x58
 80024da:	2210      	movs	r2, #16
 80024dc:	431a      	orrs	r2, r3
 80024de:	687b      	ldr	r3, [r7, #4]
 80024e0:	659a      	str	r2, [r3, #88]	@ 0x58

    tmp_hal_status = HAL_ERROR;
 80024e2:	231f      	movs	r3, #31
 80024e4:	18fb      	adds	r3, r7, r3
 80024e6:	2201      	movs	r2, #1
 80024e8:	701a      	strb	r2, [r3, #0]
  }

  /* Return function status */
  return tmp_hal_status;
 80024ea:	231f      	movs	r3, #31
 80024ec:	18fb      	adds	r3, r7, r3
 80024ee:	781b      	ldrb	r3, [r3, #0]
}
 80024f0:	0018      	movs	r0, r3
 80024f2:	46bd      	mov	sp, r7
 80024f4:	b008      	add	sp, #32
 80024f6:	bd80      	pop	{r7, pc}
 80024f8:	2000000c 	.word	0x2000000c
 80024fc:	00030d40 	.word	0x00030d40
 8002500:	fffffefd 	.word	0xfffffefd
 8002504:	ffde0201 	.word	0xffde0201
 8002508:	1ffffc02 	.word	0x1ffffc02
 800250c:	40012708 	.word	0x40012708
 8002510:	ffc3ffff 	.word	0xffc3ffff
 8002514:	7fffff04 	.word	0x7fffff04

08002518 <HAL_ADC_ConfigChannel>:
  * @param hadc ADC handle
  * @param sConfig Structure of ADC channel assigned to ADC group regular.
  * @retval HAL status
  */
HAL_StatusTypeDef HAL_ADC_ConfigChannel(ADC_HandleTypeDef *hadc, const ADC_ChannelConfTypeDef *sConfig)
{
 8002518:	b580      	push	{r7, lr}
 800251a:	b086      	sub	sp, #24
 800251c:	af00      	add	r7, sp, #0
 800251e:	6078      	str	r0, [r7, #4]
 8002520:	6039      	str	r1, [r7, #0]
  HAL_StatusTypeDef tmp_hal_status = HAL_OK;
 8002522:	2317      	movs	r3, #23
 8002524:	18fb      	adds	r3, r7, r3
 8002526:	2200      	movs	r2, #0
 8002528:	701a      	strb	r2, [r3, #0]
  uint32_t tmp_config_internal_channel;
  __IO uint32_t wait_loop_index = 0UL;
 800252a:	2300      	movs	r3, #0
 800252c:	60fb      	str	r3, [r7, #12]

    assert_param(IS_ADC_REGULAR_RANK(sConfig->Rank));
  }

  /* Process locked */
  __HAL_LOCK(hadc);
 800252e:	687b      	ldr	r3, [r7, #4]
 8002530:	2254      	movs	r2, #84	@ 0x54
 8002532:	5c9b      	ldrb	r3, [r3, r2]
 8002534:	2b01      	cmp	r3, #1
 8002536:	d101      	bne.n	800253c <HAL_ADC_ConfigChannel+0x24>
 8002538:	2302      	movs	r3, #2
 800253a:	e1be      	b.n	80028ba <HAL_ADC_ConfigChannel+0x3a2>
 800253c:	687b      	ldr	r3, [r7, #4]
 800253e:	2254      	movs	r2, #84	@ 0x54
 8002540:	2101      	movs	r1, #1
 8002542:	5499      	strb	r1, [r3, r2]
  /* Parameters that can be updated when ADC is disabled or enabled without   */
  /* conversion on going on regular group:                                    */
  /*  - Channel number                                                        */
  /*  - Channel sampling time                                                 */
  /*  - Management of internal measurement channels: VrefInt/TempSensor       */
  if (LL_ADC_REG_IsConversionOngoing(hadc->Instance) == 0UL)
 8002544:	687b      	ldr	r3, [r7, #4]
 8002546:	681b      	ldr	r3, [r3, #0]
 8002548:	0018      	movs	r0, r3
 800254a:	f7ff fe2e 	bl	80021aa <LL_ADC_REG_IsConversionOngoing>
 800254e:	1e03      	subs	r3, r0, #0
 8002550:	d000      	beq.n	8002554 <HAL_ADC_ConfigChannel+0x3c>
 8002552:	e1a1      	b.n	8002898 <HAL_ADC_ConfigChannel+0x380>
    /* If sequencer set to not fully configurable with channel rank set to    */
    /* none, remove the channel from the sequencer.                           */
    /* Otherwise (sequencer set to fully configurable or to to not fully      */
    /* configurable with channel rank to be set), configure the selected      */
    /* channel.                                                               */
    if (sConfig->Rank != ADC_RANK_NONE)
 8002554:	683b      	ldr	r3, [r7, #0]
 8002556:	685b      	ldr	r3, [r3, #4]
 8002558:	2b02      	cmp	r3, #2
 800255a:	d100      	bne.n	800255e <HAL_ADC_ConfigChannel+0x46>
 800255c:	e152      	b.n	8002804 <HAL_ADC_ConfigChannel+0x2ec>
      /* Note: ADC channel configuration requires few ADC clock cycles        */
      /*       to be ready. Processing of ADC settings in this function       */
      /*       induce that a specific wait time is not necessary.             */
      /*       For more details on ADC channel configuration ready,           */
      /*       refer to function "LL_ADC_IsActiveFlag_CCRDY()".               */
      if ((hadc->Init.ScanConvMode == ADC_SCAN_SEQ_FIXED)       ||
 800255e:	687b      	ldr	r3, [r7, #4]
 8002560:	691a      	ldr	r2, [r3, #16]
 8002562:	2380      	movs	r3, #128	@ 0x80
 8002564:	061b      	lsls	r3, r3, #24
 8002566:	429a      	cmp	r2, r3
 8002568:	d004      	beq.n	8002574 <HAL_ADC_ConfigChannel+0x5c>
          (hadc->Init.ScanConvMode == ADC_SCAN_SEQ_FIXED_BACKWARD))
 800256a:	687b      	ldr	r3, [r7, #4]
 800256c:	691b      	ldr	r3, [r3, #16]
      if ((hadc->Init.ScanConvMode == ADC_SCAN_SEQ_FIXED)       ||
 800256e:	4ac2      	ldr	r2, [pc, #776]	@ (8002878 <HAL_ADC_ConfigChannel+0x360>)
 8002570:	4293      	cmp	r3, r2
 8002572:	d108      	bne.n	8002586 <HAL_ADC_ConfigChannel+0x6e>
      {
        /* Sequencer set to not fully configurable:                           */
        /* Set the channel by enabling the corresponding bitfield.            */
        LL_ADC_REG_SetSequencerChAdd(hadc->Instance, sConfig->Channel);
 8002574:	687b      	ldr	r3, [r7, #4]
 8002576:	681a      	ldr	r2, [r3, #0]
 8002578:	683b      	ldr	r3, [r7, #0]
 800257a:	681b      	ldr	r3, [r3, #0]
 800257c:	0019      	movs	r1, r3
 800257e:	0010      	movs	r0, r2
 8002580:	f7ff fd9b 	bl	80020ba <LL_ADC_REG_SetSequencerChAdd>
 8002584:	e0ed      	b.n	8002762 <HAL_ADC_ConfigChannel+0x24a>
      {
        /* Sequencer set to fully configurable:                               */
        /* Set the channel by entering it into the selected rank.             */

        /* Memorize the channel set into variable in HAL ADC handle */
        MODIFY_REG(hadc->ADCGroupRegularSequencerRanks,
 8002586:	687b      	ldr	r3, [r7, #4]
 8002588:	6e1a      	ldr	r2, [r3, #96]	@ 0x60
 800258a:	683b      	ldr	r3, [r7, #0]
 800258c:	685b      	ldr	r3, [r3, #4]
 800258e:	211f      	movs	r1, #31
 8002590:	400b      	ands	r3, r1
 8002592:	210f      	movs	r1, #15
 8002594:	4099      	lsls	r1, r3
 8002596:	000b      	movs	r3, r1
 8002598:	43db      	mvns	r3, r3
 800259a:	4013      	ands	r3, r2
 800259c:	0019      	movs	r1, r3
 800259e:	683b      	ldr	r3, [r7, #0]
 80025a0:	681b      	ldr	r3, [r3, #0]
 80025a2:	025b      	lsls	r3, r3, #9
 80025a4:	0a5b      	lsrs	r3, r3, #9
 80025a6:	d105      	bne.n	80025b4 <HAL_ADC_ConfigChannel+0x9c>
 80025a8:	683b      	ldr	r3, [r7, #0]
 80025aa:	681b      	ldr	r3, [r3, #0]
 80025ac:	0e9b      	lsrs	r3, r3, #26
 80025ae:	221f      	movs	r2, #31
 80025b0:	4013      	ands	r3, r2
 80025b2:	e0bc      	b.n	800272e <HAL_ADC_ConfigChannel+0x216>
 80025b4:	683b      	ldr	r3, [r7, #0]
 80025b6:	681b      	ldr	r3, [r3, #0]
 80025b8:	2201      	movs	r2, #1
 80025ba:	4013      	ands	r3, r2
 80025bc:	d000      	beq.n	80025c0 <HAL_ADC_ConfigChannel+0xa8>
 80025be:	e0b5      	b.n	800272c <HAL_ADC_ConfigChannel+0x214>
 80025c0:	683b      	ldr	r3, [r7, #0]
 80025c2:	681b      	ldr	r3, [r3, #0]
 80025c4:	2202      	movs	r2, #2
 80025c6:	4013      	ands	r3, r2
 80025c8:	d000      	beq.n	80025cc <HAL_ADC_ConfigChannel+0xb4>
 80025ca:	e0ad      	b.n	8002728 <HAL_ADC_ConfigChannel+0x210>
 80025cc:	683b      	ldr	r3, [r7, #0]
 80025ce:	681b      	ldr	r3, [r3, #0]
 80025d0:	2204      	movs	r2, #4
 80025d2:	4013      	ands	r3, r2
 80025d4:	d000      	beq.n	80025d8 <HAL_ADC_ConfigChannel+0xc0>
 80025d6:	e0a5      	b.n	8002724 <HAL_ADC_ConfigChannel+0x20c>
 80025d8:	683b      	ldr	r3, [r7, #0]
 80025da:	681b      	ldr	r3, [r3, #0]
 80025dc:	2208      	movs	r2, #8
 80025de:	4013      	ands	r3, r2
 80025e0:	d000      	beq.n	80025e4 <HAL_ADC_ConfigChannel+0xcc>
 80025e2:	e09d      	b.n	8002720 <HAL_ADC_ConfigChannel+0x208>
 80025e4:	683b      	ldr	r3, [r7, #0]
 80025e6:	681b      	ldr	r3, [r3, #0]
 80025e8:	2210      	movs	r2, #16
 80025ea:	4013      	ands	r3, r2
 80025ec:	d000      	beq.n	80025f0 <HAL_ADC_ConfigChannel+0xd8>
 80025ee:	e095      	b.n	800271c <HAL_ADC_ConfigChannel+0x204>
 80025f0:	683b      	ldr	r3, [r7, #0]
 80025f2:	681b      	ldr	r3, [r3, #0]
 80025f4:	2220      	movs	r2, #32
 80025f6:	4013      	ands	r3, r2
 80025f8:	d000      	beq.n	80025fc <HAL_ADC_ConfigChannel+0xe4>
 80025fa:	e08d      	b.n	8002718 <HAL_ADC_ConfigChannel+0x200>
 80025fc:	683b      	ldr	r3, [r7, #0]
 80025fe:	681b      	ldr	r3, [r3, #0]
 8002600:	2240      	movs	r2, #64	@ 0x40
 8002602:	4013      	ands	r3, r2
 8002604:	d000      	beq.n	8002608 <HAL_ADC_ConfigChannel+0xf0>
 8002606:	e085      	b.n	8002714 <HAL_ADC_ConfigChannel+0x1fc>
 8002608:	683b      	ldr	r3, [r7, #0]
 800260a:	681b      	ldr	r3, [r3, #0]
 800260c:	2280      	movs	r2, #128	@ 0x80
 800260e:	4013      	ands	r3, r2
 8002610:	d000      	beq.n	8002614 <HAL_ADC_ConfigChannel+0xfc>
 8002612:	e07d      	b.n	8002710 <HAL_ADC_ConfigChannel+0x1f8>
 8002614:	683b      	ldr	r3, [r7, #0]
 8002616:	681a      	ldr	r2, [r3, #0]
 8002618:	2380      	movs	r3, #128	@ 0x80
 800261a:	005b      	lsls	r3, r3, #1
 800261c:	4013      	ands	r3, r2
 800261e:	d000      	beq.n	8002622 <HAL_ADC_ConfigChannel+0x10a>
 8002620:	e074      	b.n	800270c <HAL_ADC_ConfigChannel+0x1f4>
 8002622:	683b      	ldr	r3, [r7, #0]
 8002624:	681a      	ldr	r2, [r3, #0]
 8002626:	2380      	movs	r3, #128	@ 0x80
 8002628:	009b      	lsls	r3, r3, #2
 800262a:	4013      	ands	r3, r2
 800262c:	d000      	beq.n	8002630 <HAL_ADC_ConfigChannel+0x118>
 800262e:	e06b      	b.n	8002708 <HAL_ADC_ConfigChannel+0x1f0>
 8002630:	683b      	ldr	r3, [r7, #0]
 8002632:	681a      	ldr	r2, [r3, #0]
 8002634:	2380      	movs	r3, #128	@ 0x80
 8002636:	00db      	lsls	r3, r3, #3
 8002638:	4013      	ands	r3, r2
 800263a:	d000      	beq.n	800263e <HAL_ADC_ConfigChannel+0x126>
 800263c:	e062      	b.n	8002704 <HAL_ADC_ConfigChannel+0x1ec>
 800263e:	683b      	ldr	r3, [r7, #0]
 8002640:	681a      	ldr	r2, [r3, #0]
 8002642:	2380      	movs	r3, #128	@ 0x80
 8002644:	011b      	lsls	r3, r3, #4
 8002646:	4013      	ands	r3, r2
 8002648:	d000      	beq.n	800264c <HAL_ADC_ConfigChannel+0x134>
 800264a:	e059      	b.n	8002700 <HAL_ADC_ConfigChannel+0x1e8>
 800264c:	683b      	ldr	r3, [r7, #0]
 800264e:	681a      	ldr	r2, [r3, #0]
 8002650:	2380      	movs	r3, #128	@ 0x80
 8002652:	015b      	lsls	r3, r3, #5
 8002654:	4013      	ands	r3, r2
 8002656:	d151      	bne.n	80026fc <HAL_ADC_ConfigChannel+0x1e4>
 8002658:	683b      	ldr	r3, [r7, #0]
 800265a:	681a      	ldr	r2, [r3, #0]
 800265c:	2380      	movs	r3, #128	@ 0x80
 800265e:	019b      	lsls	r3, r3, #6
 8002660:	4013      	ands	r3, r2
 8002662:	d149      	bne.n	80026f8 <HAL_ADC_ConfigChannel+0x1e0>
 8002664:	683b      	ldr	r3, [r7, #0]
 8002666:	681a      	ldr	r2, [r3, #0]
 8002668:	2380      	movs	r3, #128	@ 0x80
 800266a:	01db      	lsls	r3, r3, #7
 800266c:	4013      	ands	r3, r2
 800266e:	d141      	bne.n	80026f4 <HAL_ADC_ConfigChannel+0x1dc>
 8002670:	683b      	ldr	r3, [r7, #0]
 8002672:	681a      	ldr	r2, [r3, #0]
 8002674:	2380      	movs	r3, #128	@ 0x80
 8002676:	021b      	lsls	r3, r3, #8
 8002678:	4013      	ands	r3, r2
 800267a:	d139      	bne.n	80026f0 <HAL_ADC_ConfigChannel+0x1d8>
 800267c:	683b      	ldr	r3, [r7, #0]
 800267e:	681a      	ldr	r2, [r3, #0]
 8002680:	2380      	movs	r3, #128	@ 0x80
 8002682:	025b      	lsls	r3, r3, #9
 8002684:	4013      	ands	r3, r2
 8002686:	d131      	bne.n	80026ec <HAL_ADC_ConfigChannel+0x1d4>
 8002688:	683b      	ldr	r3, [r7, #0]
 800268a:	681a      	ldr	r2, [r3, #0]
 800268c:	2380      	movs	r3, #128	@ 0x80
 800268e:	029b      	lsls	r3, r3, #10
 8002690:	4013      	ands	r3, r2
 8002692:	d129      	bne.n	80026e8 <HAL_ADC_ConfigChannel+0x1d0>
 8002694:	683b      	ldr	r3, [r7, #0]
 8002696:	681a      	ldr	r2, [r3, #0]
 8002698:	2380      	movs	r3, #128	@ 0x80
 800269a:	02db      	lsls	r3, r3, #11
 800269c:	4013      	ands	r3, r2
 800269e:	d121      	bne.n	80026e4 <HAL_ADC_ConfigChannel+0x1cc>
 80026a0:	683b      	ldr	r3, [r7, #0]
 80026a2:	681a      	ldr	r2, [r3, #0]
 80026a4:	2380      	movs	r3, #128	@ 0x80
 80026a6:	031b      	lsls	r3, r3, #12
 80026a8:	4013      	ands	r3, r2
 80026aa:	d119      	bne.n	80026e0 <HAL_ADC_ConfigChannel+0x1c8>
 80026ac:	683b      	ldr	r3, [r7, #0]
 80026ae:	681a      	ldr	r2, [r3, #0]
 80026b0:	2380      	movs	r3, #128	@ 0x80
 80026b2:	035b      	lsls	r3, r3, #13
 80026b4:	4013      	ands	r3, r2
 80026b6:	d111      	bne.n	80026dc <HAL_ADC_ConfigChannel+0x1c4>
 80026b8:	683b      	ldr	r3, [r7, #0]
 80026ba:	681a      	ldr	r2, [r3, #0]
 80026bc:	2380      	movs	r3, #128	@ 0x80
 80026be:	039b      	lsls	r3, r3, #14
 80026c0:	4013      	ands	r3, r2
 80026c2:	d109      	bne.n	80026d8 <HAL_ADC_ConfigChannel+0x1c0>
 80026c4:	683b      	ldr	r3, [r7, #0]
 80026c6:	681a      	ldr	r2, [r3, #0]
 80026c8:	2380      	movs	r3, #128	@ 0x80
 80026ca:	03db      	lsls	r3, r3, #15
 80026cc:	4013      	ands	r3, r2
 80026ce:	d001      	beq.n	80026d4 <HAL_ADC_ConfigChannel+0x1bc>
 80026d0:	2316      	movs	r3, #22
 80026d2:	e02c      	b.n	800272e <HAL_ADC_ConfigChannel+0x216>
 80026d4:	2300      	movs	r3, #0
 80026d6:	e02a      	b.n	800272e <HAL_ADC_ConfigChannel+0x216>
 80026d8:	2315      	movs	r3, #21
 80026da:	e028      	b.n	800272e <HAL_ADC_ConfigChannel+0x216>
 80026dc:	2314      	movs	r3, #20
 80026de:	e026      	b.n	800272e <HAL_ADC_ConfigChannel+0x216>
 80026e0:	2313      	movs	r3, #19
 80026e2:	e024      	b.n	800272e <HAL_ADC_ConfigChannel+0x216>
 80026e4:	2312      	movs	r3, #18
 80026e6:	e022      	b.n	800272e <HAL_ADC_ConfigChannel+0x216>
 80026e8:	2311      	movs	r3, #17
 80026ea:	e020      	b.n	800272e <HAL_ADC_ConfigChannel+0x216>
 80026ec:	2310      	movs	r3, #16
 80026ee:	e01e      	b.n	800272e <HAL_ADC_ConfigChannel+0x216>
 80026f0:	230f      	movs	r3, #15
 80026f2:	e01c      	b.n	800272e <HAL_ADC_ConfigChannel+0x216>
 80026f4:	230e      	movs	r3, #14
 80026f6:	e01a      	b.n	800272e <HAL_ADC_ConfigChannel+0x216>
 80026f8:	230d      	movs	r3, #13
 80026fa:	e018      	b.n	800272e <HAL_ADC_ConfigChannel+0x216>
 80026fc:	230c      	movs	r3, #12
 80026fe:	e016      	b.n	800272e <HAL_ADC_ConfigChannel+0x216>
 8002700:	230b      	movs	r3, #11
 8002702:	e014      	b.n	800272e <HAL_ADC_ConfigChannel+0x216>
 8002704:	230a      	movs	r3, #10
 8002706:	e012      	b.n	800272e <HAL_ADC_ConfigChannel+0x216>
 8002708:	2309      	movs	r3, #9
 800270a:	e010      	b.n	800272e <HAL_ADC_ConfigChannel+0x216>
 800270c:	2308      	movs	r3, #8
 800270e:	e00e      	b.n	800272e <HAL_ADC_ConfigChannel+0x216>
 8002710:	2307      	movs	r3, #7
 8002712:	e00c      	b.n	800272e <HAL_ADC_ConfigChannel+0x216>
 8002714:	2306      	movs	r3, #6
 8002716:	e00a      	b.n	800272e <HAL_ADC_ConfigChannel+0x216>
 8002718:	2305      	movs	r3, #5
 800271a:	e008      	b.n	800272e <HAL_ADC_ConfigChannel+0x216>
 800271c:	2304      	movs	r3, #4
 800271e:	e006      	b.n	800272e <HAL_ADC_ConfigChannel+0x216>
 8002720:	2303      	movs	r3, #3
 8002722:	e004      	b.n	800272e <HAL_ADC_ConfigChannel+0x216>
 8002724:	2302      	movs	r3, #2
 8002726:	e002      	b.n	800272e <HAL_ADC_ConfigChannel+0x216>
 8002728:	2301      	movs	r3, #1
 800272a:	e000      	b.n	800272e <HAL_ADC_ConfigChannel+0x216>
 800272c:	2300      	movs	r3, #0
 800272e:	683a      	ldr	r2, [r7, #0]
 8002730:	6852      	ldr	r2, [r2, #4]
 8002732:	201f      	movs	r0, #31
 8002734:	4002      	ands	r2, r0
 8002736:	4093      	lsls	r3, r2
 8002738:	000a      	movs	r2, r1
 800273a:	431a      	orrs	r2, r3
 800273c:	687b      	ldr	r3, [r7, #4]
 800273e:	661a      	str	r2, [r3, #96]	@ 0x60

        /* If the selected rank is below ADC group regular sequencer length,  */
        /* apply the configuration in ADC register.                           */
        /* Note: Otherwise, configuration is not applied.                     */
        /*       To apply it, parameter'NbrOfConversion' must be increased.   */
        if (((sConfig->Rank >> 2UL) + 1UL) <= hadc->Init.NbrOfConversion)
 8002740:	683b      	ldr	r3, [r7, #0]
 8002742:	685b      	ldr	r3, [r3, #4]
 8002744:	089b      	lsrs	r3, r3, #2
 8002746:	1c5a      	adds	r2, r3, #1
 8002748:	687b      	ldr	r3, [r7, #4]
 800274a:	69db      	ldr	r3, [r3, #28]
 800274c:	429a      	cmp	r2, r3
 800274e:	d808      	bhi.n	8002762 <HAL_ADC_ConfigChannel+0x24a>
        {
          LL_ADC_REG_SetSequencerRanks(hadc->Instance, sConfig->Rank, sConfig->Channel);
 8002750:	687b      	ldr	r3, [r7, #4]
 8002752:	6818      	ldr	r0, [r3, #0]
 8002754:	683b      	ldr	r3, [r7, #0]
 8002756:	6859      	ldr	r1, [r3, #4]
 8002758:	683b      	ldr	r3, [r7, #0]
 800275a:	681b      	ldr	r3, [r3, #0]
 800275c:	001a      	movs	r2, r3
 800275e:	f7ff fc8c 	bl	800207a <LL_ADC_REG_SetSequencerRanks>
        }
      }

      /* Set sampling time of the selected ADC channel */
      LL_ADC_SetChannelSamplingTime(hadc->Instance, sConfig->Channel, sConfig->SamplingTime);
 8002762:	687b      	ldr	r3, [r7, #4]
 8002764:	6818      	ldr	r0, [r3, #0]
 8002766:	683b      	ldr	r3, [r7, #0]
 8002768:	6819      	ldr	r1, [r3, #0]
 800276a:	683b      	ldr	r3, [r7, #0]
 800276c:	689b      	ldr	r3, [r3, #8]
 800276e:	001a      	movs	r2, r3
 8002770:	f7ff fcc6 	bl	8002100 <LL_ADC_SetChannelSamplingTime>
      /* internal measurement paths enable: If internal channel selected,     */
      /* enable dedicated internal buffers and path.                          */
      /* Note: these internal measurement paths can be disabled using         */
      /*       HAL_ADC_DeInit() or removing the channel from sequencer with   */
      /*       channel configuration parameter "Rank".                        */
      if (__LL_ADC_IS_CHANNEL_INTERNAL(sConfig->Channel))
 8002774:	683b      	ldr	r3, [r7, #0]
 8002776:	681b      	ldr	r3, [r3, #0]
 8002778:	2b00      	cmp	r3, #0
 800277a:	db00      	blt.n	800277e <HAL_ADC_ConfigChannel+0x266>
 800277c:	e096      	b.n	80028ac <HAL_ADC_ConfigChannel+0x394>
      {
        tmp_config_internal_channel = LL_ADC_GetCommonPathInternalCh(__LL_ADC_COMMON_INSTANCE(hadc->Instance));
 800277e:	4b3f      	ldr	r3, [pc, #252]	@ (800287c <HAL_ADC_ConfigChannel+0x364>)
 8002780:	0018      	movs	r0, r3
 8002782:	f7ff fc39 	bl	8001ff8 <LL_ADC_GetCommonPathInternalCh>
 8002786:	0003      	movs	r3, r0
 8002788:	613b      	str	r3, [r7, #16]

        /* If the requested internal measurement path has already been enabled,   */
        /* bypass the configuration processing.                                   */
        if ((sConfig->Channel == ADC_CHANNEL_TEMPSENSOR) &&
 800278a:	683b      	ldr	r3, [r7, #0]
 800278c:	681b      	ldr	r3, [r3, #0]
 800278e:	4a3c      	ldr	r2, [pc, #240]	@ (8002880 <HAL_ADC_ConfigChannel+0x368>)
 8002790:	4293      	cmp	r3, r2
 8002792:	d123      	bne.n	80027dc <HAL_ADC_ConfigChannel+0x2c4>
            ((tmp_config_internal_channel & LL_ADC_PATH_INTERNAL_TEMPSENSOR) == 0UL))
 8002794:	693a      	ldr	r2, [r7, #16]
 8002796:	2380      	movs	r3, #128	@ 0x80
 8002798:	041b      	lsls	r3, r3, #16
 800279a:	4013      	ands	r3, r2
        if ((sConfig->Channel == ADC_CHANNEL_TEMPSENSOR) &&
 800279c:	d11e      	bne.n	80027dc <HAL_ADC_ConfigChannel+0x2c4>
        {
          LL_ADC_SetCommonPathInternalCh(__LL_ADC_COMMON_INSTANCE(hadc->Instance),
 800279e:	693b      	ldr	r3, [r7, #16]
 80027a0:	2280      	movs	r2, #128	@ 0x80
 80027a2:	0412      	lsls	r2, r2, #16
 80027a4:	4313      	orrs	r3, r2
 80027a6:	4a35      	ldr	r2, [pc, #212]	@ (800287c <HAL_ADC_ConfigChannel+0x364>)
 80027a8:	0019      	movs	r1, r3
 80027aa:	0010      	movs	r0, r2
 80027ac:	f7ff fc10 	bl	8001fd0 <LL_ADC_SetCommonPathInternalCh>
          /* Delay for temperature sensor stabilization time */
          /* Wait loop initialization and execution */
          /* Note: Variable divided by 2 to compensate partially              */
          /*       CPU processing cycles, scaling in us split to not          */
          /*       exceed 32 bits register capacity and handle low frequency. */
          wait_loop_index = (((LL_ADC_DELAY_TEMPSENSOR_STAB_US / 10UL) * (SystemCoreClock / (100000UL * 2UL))) + 1UL);
 80027b0:	4b34      	ldr	r3, [pc, #208]	@ (8002884 <HAL_ADC_ConfigChannel+0x36c>)
 80027b2:	681b      	ldr	r3, [r3, #0]
 80027b4:	4934      	ldr	r1, [pc, #208]	@ (8002888 <HAL_ADC_ConfigChannel+0x370>)
 80027b6:	0018      	movs	r0, r3
 80027b8:	f7fd fcb8 	bl	800012c <__udivsi3>
 80027bc:	0003      	movs	r3, r0
 80027be:	001a      	movs	r2, r3
 80027c0:	0013      	movs	r3, r2
 80027c2:	005b      	lsls	r3, r3, #1
 80027c4:	189b      	adds	r3, r3, r2
 80027c6:	009b      	lsls	r3, r3, #2
 80027c8:	3301      	adds	r3, #1
 80027ca:	60fb      	str	r3, [r7, #12]
          while (wait_loop_index != 0UL)
 80027cc:	e002      	b.n	80027d4 <HAL_ADC_ConfigChannel+0x2bc>
          {
            wait_loop_index--;
 80027ce:	68fb      	ldr	r3, [r7, #12]
 80027d0:	3b01      	subs	r3, #1
 80027d2:	60fb      	str	r3, [r7, #12]
          while (wait_loop_index != 0UL)
 80027d4:	68fb      	ldr	r3, [r7, #12]
 80027d6:	2b00      	cmp	r3, #0
 80027d8:	d1f9      	bne.n	80027ce <HAL_ADC_ConfigChannel+0x2b6>
        if ((sConfig->Channel == ADC_CHANNEL_TEMPSENSOR) &&
 80027da:	e067      	b.n	80028ac <HAL_ADC_ConfigChannel+0x394>
          }
        }
        else if ((sConfig->Channel == ADC_CHANNEL_VREFINT) &&
 80027dc:	683b      	ldr	r3, [r7, #0]
 80027de:	681b      	ldr	r3, [r3, #0]
 80027e0:	4a2a      	ldr	r2, [pc, #168]	@ (800288c <HAL_ADC_ConfigChannel+0x374>)
 80027e2:	4293      	cmp	r3, r2
 80027e4:	d162      	bne.n	80028ac <HAL_ADC_ConfigChannel+0x394>
                 ((tmp_config_internal_channel & LL_ADC_PATH_INTERNAL_VREFINT) == 0UL))
 80027e6:	693a      	ldr	r2, [r7, #16]
 80027e8:	2380      	movs	r3, #128	@ 0x80
 80027ea:	03db      	lsls	r3, r3, #15
 80027ec:	4013      	ands	r3, r2
        else if ((sConfig->Channel == ADC_CHANNEL_VREFINT) &&
 80027ee:	d15d      	bne.n	80028ac <HAL_ADC_ConfigChannel+0x394>
        {
          LL_ADC_SetCommonPathInternalCh(__LL_ADC_COMMON_INSTANCE(hadc->Instance),
 80027f0:	693b      	ldr	r3, [r7, #16]
 80027f2:	2280      	movs	r2, #128	@ 0x80
 80027f4:	03d2      	lsls	r2, r2, #15
 80027f6:	4313      	orrs	r3, r2
 80027f8:	4a20      	ldr	r2, [pc, #128]	@ (800287c <HAL_ADC_ConfigChannel+0x364>)
 80027fa:	0019      	movs	r1, r3
 80027fc:	0010      	movs	r0, r2
 80027fe:	f7ff fbe7 	bl	8001fd0 <LL_ADC_SetCommonPathInternalCh>
 8002802:	e053      	b.n	80028ac <HAL_ADC_ConfigChannel+0x394>
      /* Regular sequencer configuration */
      /* Note: Case of sequencer set to fully configurable:                   */
      /*       Sequencer rank cannot be disabled, only affected to            */
      /*       another channel.                                               */
      /*       To remove a rank, use parameter 'NbrOfConversion".             */
      if ((hadc->Init.ScanConvMode == ADC_SCAN_SEQ_FIXED)       ||
 8002804:	687b      	ldr	r3, [r7, #4]
 8002806:	691a      	ldr	r2, [r3, #16]
 8002808:	2380      	movs	r3, #128	@ 0x80
 800280a:	061b      	lsls	r3, r3, #24
 800280c:	429a      	cmp	r2, r3
 800280e:	d004      	beq.n	800281a <HAL_ADC_ConfigChannel+0x302>
          (hadc->Init.ScanConvMode == ADC_SCAN_SEQ_FIXED_BACKWARD))
 8002810:	687b      	ldr	r3, [r7, #4]
 8002812:	691b      	ldr	r3, [r3, #16]
      if ((hadc->Init.ScanConvMode == ADC_SCAN_SEQ_FIXED)       ||
 8002814:	4a18      	ldr	r2, [pc, #96]	@ (8002878 <HAL_ADC_ConfigChannel+0x360>)
 8002816:	4293      	cmp	r3, r2
 8002818:	d107      	bne.n	800282a <HAL_ADC_ConfigChannel+0x312>
      {
        /* Sequencer set to not fully configurable:                           */
        /* Reset the channel by disabling the corresponding bitfield.         */
        LL_ADC_REG_SetSequencerChRem(hadc->Instance, sConfig->Channel);
 800281a:	687b      	ldr	r3, [r7, #4]
 800281c:	681a      	ldr	r2, [r3, #0]
 800281e:	683b      	ldr	r3, [r7, #0]
 8002820:	681b      	ldr	r3, [r3, #0]
 8002822:	0019      	movs	r1, r3
 8002824:	0010      	movs	r0, r2
 8002826:	f7ff fc59 	bl	80020dc <LL_ADC_REG_SetSequencerChRem>
      }

      /* Management of internal measurement channels: VrefInt/TempSensor.       */
      /* If internal channel selected, enable dedicated internal buffers and    */
      /* paths.                                                                 */
      if (__LL_ADC_IS_CHANNEL_INTERNAL(sConfig->Channel))
 800282a:	683b      	ldr	r3, [r7, #0]
 800282c:	681b      	ldr	r3, [r3, #0]
 800282e:	2b00      	cmp	r3, #0
 8002830:	da3c      	bge.n	80028ac <HAL_ADC_ConfigChannel+0x394>
      {
        tmp_config_internal_channel = LL_ADC_GetCommonPathInternalCh(__LL_ADC_COMMON_INSTANCE(hadc->Instance));
 8002832:	4b12      	ldr	r3, [pc, #72]	@ (800287c <HAL_ADC_ConfigChannel+0x364>)
 8002834:	0018      	movs	r0, r3
 8002836:	f7ff fbdf 	bl	8001ff8 <LL_ADC_GetCommonPathInternalCh>
 800283a:	0003      	movs	r3, r0
 800283c:	613b      	str	r3, [r7, #16]

        if (sConfig->Channel == ADC_CHANNEL_TEMPSENSOR)
 800283e:	683b      	ldr	r3, [r7, #0]
 8002840:	681b      	ldr	r3, [r3, #0]
 8002842:	4a0f      	ldr	r2, [pc, #60]	@ (8002880 <HAL_ADC_ConfigChannel+0x368>)
 8002844:	4293      	cmp	r3, r2
 8002846:	d108      	bne.n	800285a <HAL_ADC_ConfigChannel+0x342>
        {
          LL_ADC_SetCommonPathInternalCh(__LL_ADC_COMMON_INSTANCE(hadc->Instance),
 8002848:	693b      	ldr	r3, [r7, #16]
 800284a:	4a11      	ldr	r2, [pc, #68]	@ (8002890 <HAL_ADC_ConfigChannel+0x378>)
 800284c:	4013      	ands	r3, r2
 800284e:	4a0b      	ldr	r2, [pc, #44]	@ (800287c <HAL_ADC_ConfigChannel+0x364>)
 8002850:	0019      	movs	r1, r3
 8002852:	0010      	movs	r0, r2
 8002854:	f7ff fbbc 	bl	8001fd0 <LL_ADC_SetCommonPathInternalCh>
 8002858:	e028      	b.n	80028ac <HAL_ADC_ConfigChannel+0x394>
                                         ~LL_ADC_PATH_INTERNAL_TEMPSENSOR & tmp_config_internal_channel);
        }
        else if (sConfig->Channel == ADC_CHANNEL_VREFINT)
 800285a:	683b      	ldr	r3, [r7, #0]
 800285c:	681b      	ldr	r3, [r3, #0]
 800285e:	4a0b      	ldr	r2, [pc, #44]	@ (800288c <HAL_ADC_ConfigChannel+0x374>)
 8002860:	4293      	cmp	r3, r2
 8002862:	d123      	bne.n	80028ac <HAL_ADC_ConfigChannel+0x394>
        {
          LL_ADC_SetCommonPathInternalCh(__LL_ADC_COMMON_INSTANCE(hadc->Instance),
 8002864:	693b      	ldr	r3, [r7, #16]
 8002866:	4a0b      	ldr	r2, [pc, #44]	@ (8002894 <HAL_ADC_ConfigChannel+0x37c>)
 8002868:	4013      	ands	r3, r2
 800286a:	4a04      	ldr	r2, [pc, #16]	@ (800287c <HAL_ADC_ConfigChannel+0x364>)
 800286c:	0019      	movs	r1, r3
 800286e:	0010      	movs	r0, r2
 8002870:	f7ff fbae 	bl	8001fd0 <LL_ADC_SetCommonPathInternalCh>
 8002874:	e01a      	b.n	80028ac <HAL_ADC_ConfigChannel+0x394>
 8002876:	46c0      	nop			@ (mov r8, r8)
 8002878:	80000004 	.word	0x80000004
 800287c:	40012708 	.word	0x40012708
 8002880:	a4000200 	.word	0xa4000200
 8002884:	2000000c 	.word	0x2000000c
 8002888:	00030d40 	.word	0x00030d40
 800288c:	a8000400 	.word	0xa8000400
 8002890:	ff7fffff 	.word	0xff7fffff
 8002894:	ffbfffff 	.word	0xffbfffff
  /* channel could be done on neither of the channel configuration structure  */
  /* parameters.                                                              */
  else
  {
    /* Update ADC state machine to error */
    SET_BIT(hadc->State, HAL_ADC_STATE_ERROR_CONFIG);
 8002898:	687b      	ldr	r3, [r7, #4]
 800289a:	6d9b      	ldr	r3, [r3, #88]	@ 0x58
 800289c:	2220      	movs	r2, #32
 800289e:	431a      	orrs	r2, r3
 80028a0:	687b      	ldr	r3, [r7, #4]
 80028a2:	659a      	str	r2, [r3, #88]	@ 0x58

    tmp_hal_status = HAL_ERROR;
 80028a4:	2317      	movs	r3, #23
 80028a6:	18fb      	adds	r3, r7, r3
 80028a8:	2201      	movs	r2, #1
 80028aa:	701a      	strb	r2, [r3, #0]
  }

  /* Process unlocked */
  __HAL_UNLOCK(hadc);
 80028ac:	687b      	ldr	r3, [r7, #4]
 80028ae:	2254      	movs	r2, #84	@ 0x54
 80028b0:	2100      	movs	r1, #0
 80028b2:	5499      	strb	r1, [r3, r2]

  /* Return function status */
  return tmp_hal_status;
 80028b4:	2317      	movs	r3, #23
 80028b6:	18fb      	adds	r3, r7, r3
 80028b8:	781b      	ldrb	r3, [r3, #0]
}
 80028ba:	0018      	movs	r0, r3
 80028bc:	46bd      	mov	sp, r7
 80028be:	b006      	add	sp, #24
 80028c0:	bd80      	pop	{r7, pc}
 80028c2:	46c0      	nop			@ (mov r8, r8)

080028c4 <__NVIC_SetPriority>:
  \param [in]      IRQn  Interrupt number.
  \param [in]  priority  Priority to set.
  \note    The priority cannot be set for every processor exception.
 */
__STATIC_INLINE void __NVIC_SetPriority(IRQn_Type IRQn, uint32_t priority)
{
 80028c4:	b590      	push	{r4, r7, lr}
 80028c6:	b083      	sub	sp, #12
 80028c8:	af00      	add	r7, sp, #0
 80028ca:	0002      	movs	r2, r0
 80028cc:	6039      	str	r1, [r7, #0]
 80028ce:	1dfb      	adds	r3, r7, #7
 80028d0:	701a      	strb	r2, [r3, #0]
  if ((int32_t)(IRQn) >= 0)
 80028d2:	1dfb      	adds	r3, r7, #7
 80028d4:	781b      	ldrb	r3, [r3, #0]
 80028d6:	2b7f      	cmp	r3, #127	@ 0x7f
 80028d8:	d828      	bhi.n	800292c <__NVIC_SetPriority+0x68>
  {
    NVIC->IP[_IP_IDX(IRQn)]  = ((uint32_t)(NVIC->IP[_IP_IDX(IRQn)]  & ~(0xFFUL << _BIT_SHIFT(IRQn))) |
 80028da:	4a2f      	ldr	r2, [pc, #188]	@ (8002998 <__NVIC_SetPriority+0xd4>)
 80028dc:	1dfb      	adds	r3, r7, #7
 80028de:	781b      	ldrb	r3, [r3, #0]
 80028e0:	b25b      	sxtb	r3, r3
 80028e2:	089b      	lsrs	r3, r3, #2
 80028e4:	33c0      	adds	r3, #192	@ 0xc0
 80028e6:	009b      	lsls	r3, r3, #2
 80028e8:	589b      	ldr	r3, [r3, r2]
 80028ea:	1dfa      	adds	r2, r7, #7
 80028ec:	7812      	ldrb	r2, [r2, #0]
 80028ee:	0011      	movs	r1, r2
 80028f0:	2203      	movs	r2, #3
 80028f2:	400a      	ands	r2, r1
 80028f4:	00d2      	lsls	r2, r2, #3
 80028f6:	21ff      	movs	r1, #255	@ 0xff
 80028f8:	4091      	lsls	r1, r2
 80028fa:	000a      	movs	r2, r1
 80028fc:	43d2      	mvns	r2, r2
 80028fe:	401a      	ands	r2, r3
 8002900:	0011      	movs	r1, r2
       (((priority << (8U - __NVIC_PRIO_BITS)) & (uint32_t)0xFFUL) << _BIT_SHIFT(IRQn)));
 8002902:	683b      	ldr	r3, [r7, #0]
 8002904:	019b      	lsls	r3, r3, #6
 8002906:	22ff      	movs	r2, #255	@ 0xff
 8002908:	401a      	ands	r2, r3
 800290a:	1dfb      	adds	r3, r7, #7
 800290c:	781b      	ldrb	r3, [r3, #0]
 800290e:	0018      	movs	r0, r3
 8002910:	2303      	movs	r3, #3
 8002912:	4003      	ands	r3, r0
 8002914:	00db      	lsls	r3, r3, #3
 8002916:	409a      	lsls	r2, r3
    NVIC->IP[_IP_IDX(IRQn)]  = ((uint32_t)(NVIC->IP[_IP_IDX(IRQn)]  & ~(0xFFUL << _BIT_SHIFT(IRQn))) |
 8002918:	481f      	ldr	r0, [pc, #124]	@ (8002998 <__NVIC_SetPriority+0xd4>)
 800291a:	1dfb      	adds	r3, r7, #7
 800291c:	781b      	ldrb	r3, [r3, #0]
 800291e:	b25b      	sxtb	r3, r3
 8002920:	089b      	lsrs	r3, r3, #2
 8002922:	430a      	orrs	r2, r1
 8002924:	33c0      	adds	r3, #192	@ 0xc0
 8002926:	009b      	lsls	r3, r3, #2
 8002928:	501a      	str	r2, [r3, r0]
  else
  {
    SCB->SHP[_SHP_IDX(IRQn)] = ((uint32_t)(SCB->SHP[_SHP_IDX(IRQn)] & ~(0xFFUL << _BIT_SHIFT(IRQn))) |
       (((priority << (8U - __NVIC_PRIO_BITS)) & (uint32_t)0xFFUL) << _BIT_SHIFT(IRQn)));
  }
}
 800292a:	e031      	b.n	8002990 <__NVIC_SetPriority+0xcc>
    SCB->SHP[_SHP_IDX(IRQn)] = ((uint32_t)(SCB->SHP[_SHP_IDX(IRQn)] & ~(0xFFUL << _BIT_SHIFT(IRQn))) |
 800292c:	4a1b      	ldr	r2, [pc, #108]	@ (800299c <__NVIC_SetPriority+0xd8>)
 800292e:	1dfb      	adds	r3, r7, #7
 8002930:	781b      	ldrb	r3, [r3, #0]
 8002932:	0019      	movs	r1, r3
 8002934:	230f      	movs	r3, #15
 8002936:	400b      	ands	r3, r1
 8002938:	3b08      	subs	r3, #8
 800293a:	089b      	lsrs	r3, r3, #2
 800293c:	3306      	adds	r3, #6
 800293e:	009b      	lsls	r3, r3, #2
 8002940:	18d3      	adds	r3, r2, r3
 8002942:	3304      	adds	r3, #4
 8002944:	681b      	ldr	r3, [r3, #0]
 8002946:	1dfa      	adds	r2, r7, #7
 8002948:	7812      	ldrb	r2, [r2, #0]
 800294a:	0011      	movs	r1, r2
 800294c:	2203      	movs	r2, #3
 800294e:	400a      	ands	r2, r1
 8002950:	00d2      	lsls	r2, r2, #3
 8002952:	21ff      	movs	r1, #255	@ 0xff
 8002954:	4091      	lsls	r1, r2
 8002956:	000a      	movs	r2, r1
 8002958:	43d2      	mvns	r2, r2
 800295a:	401a      	ands	r2, r3
 800295c:	0011      	movs	r1, r2
       (((priority << (8U - __NVIC_PRIO_BITS)) & (uint32_t)0xFFUL) << _BIT_SHIFT(IRQn)));
 800295e:	683b      	ldr	r3, [r7, #0]
 8002960:	019b      	lsls	r3, r3, #6
 8002962:	22ff      	movs	r2, #255	@ 0xff
 8002964:	401a      	ands	r2, r3
 8002966:	1dfb      	adds	r3, r7, #7
 8002968:	781b      	ldrb	r3, [r3, #0]
 800296a:	0018      	movs	r0, r3
 800296c:	2303      	movs	r3, #3
 800296e:	4003      	ands	r3, r0
 8002970:	00db      	lsls	r3, r3, #3
 8002972:	409a      	lsls	r2, r3
    SCB->SHP[_SHP_IDX(IRQn)] = ((uint32_t)(SCB->SHP[_SHP_IDX(IRQn)] & ~(0xFFUL << _BIT_SHIFT(IRQn))) |
 8002974:	4809      	ldr	r0, [pc, #36]	@ (800299c <__NVIC_SetPriority+0xd8>)
 8002976:	1dfb      	adds	r3, r7, #7
 8002978:	781b      	ldrb	r3, [r3, #0]
 800297a:	001c      	movs	r4, r3
 800297c:	230f      	movs	r3, #15
 800297e:	4023      	ands	r3, r4
 8002980:	3b08      	subs	r3, #8
 8002982:	089b      	lsrs	r3, r3, #2
 8002984:	430a      	orrs	r2, r1
 8002986:	3306      	adds	r3, #6
 8002988:	009b      	lsls	r3, r3, #2
 800298a:	18c3      	adds	r3, r0, r3
 800298c:	3304      	adds	r3, #4
 800298e:	601a      	str	r2, [r3, #0]
}
 8002990:	46c0      	nop			@ (mov r8, r8)
 8002992:	46bd      	mov	sp, r7
 8002994:	b003      	add	sp, #12
 8002996:	bd90      	pop	{r4, r7, pc}
 8002998:	e000e100 	.word	0xe000e100
 800299c:	e000ed00 	.word	0xe000ed00

080029a0 <SysTick_Config>:
  \note    When the variable <b>__Vendor_SysTickConfig</b> is set to 1, then the
           function <b>SysTick_Config</b> is not included. In this case, the file <b><i>device</i>.h</b>
           must contain a vendor-specific implementation of this function.
 */
__STATIC_INLINE uint32_t SysTick_Config(uint32_t ticks)
{
 80029a0:	b580      	push	{r7, lr}
 80029a2:	b082      	sub	sp, #8
 80029a4:	af00      	add	r7, sp, #0
 80029a6:	6078      	str	r0, [r7, #4]
  if ((ticks - 1UL) > SysTick_LOAD_RELOAD_Msk)
 80029a8:	687b      	ldr	r3, [r7, #4]
 80029aa:	1e5a      	subs	r2, r3, #1
 80029ac:	2380      	movs	r3, #128	@ 0x80
 80029ae:	045b      	lsls	r3, r3, #17
 80029b0:	429a      	cmp	r2, r3
 80029b2:	d301      	bcc.n	80029b8 <SysTick_Config+0x18>
  {
    return (1UL);                                                   /* Reload value impossible */
 80029b4:	2301      	movs	r3, #1
 80029b6:	e010      	b.n	80029da <SysTick_Config+0x3a>
  }

  SysTick->LOAD  = (uint32_t)(ticks - 1UL);                         /* set reload register */
 80029b8:	4b0a      	ldr	r3, [pc, #40]	@ (80029e4 <SysTick_Config+0x44>)
 80029ba:	687a      	ldr	r2, [r7, #4]
 80029bc:	3a01      	subs	r2, #1
 80029be:	605a      	str	r2, [r3, #4]
  NVIC_SetPriority (SysTick_IRQn, (1UL << __NVIC_PRIO_BITS) - 1UL); /* set Priority for Systick Interrupt */
 80029c0:	2301      	movs	r3, #1
 80029c2:	425b      	negs	r3, r3
 80029c4:	2103      	movs	r1, #3
 80029c6:	0018      	movs	r0, r3
 80029c8:	f7ff ff7c 	bl	80028c4 <__NVIC_SetPriority>
  SysTick->VAL   = 0UL;                                             /* Load the SysTick Counter Value */
 80029cc:	4b05      	ldr	r3, [pc, #20]	@ (80029e4 <SysTick_Config+0x44>)
 80029ce:	2200      	movs	r2, #0
 80029d0:	609a      	str	r2, [r3, #8]
  SysTick->CTRL  = SysTick_CTRL_CLKSOURCE_Msk |
 80029d2:	4b04      	ldr	r3, [pc, #16]	@ (80029e4 <SysTick_Config+0x44>)
 80029d4:	2207      	movs	r2, #7
 80029d6:	601a      	str	r2, [r3, #0]
                   SysTick_CTRL_TICKINT_Msk   |
                   SysTick_CTRL_ENABLE_Msk;                         /* Enable SysTick IRQ and SysTick Timer */
  return (0UL);                                                     /* Function successful */
 80029d8:	2300      	movs	r3, #0
}
 80029da:	0018      	movs	r0, r3
 80029dc:	46bd      	mov	sp, r7
 80029de:	b002      	add	sp, #8
 80029e0:	bd80      	pop	{r7, pc}
 80029e2:	46c0      	nop			@ (mov r8, r8)
 80029e4:	e000e010 	.word	0xe000e010

080029e8 <HAL_NVIC_SetPriority>:
  *         with stm32c0xx devices, this parameter is a dummy value and it is ignored, because
  *         no subpriority supported in Cortex M0+ based products.
  * @retval None
  */
void HAL_NVIC_SetPriority(IRQn_Type IRQn, uint32_t PreemptPriority, uint32_t SubPriority)
{
 80029e8:	b580      	push	{r7, lr}
 80029ea:	b084      	sub	sp, #16
 80029ec:	af00      	add	r7, sp, #0
 80029ee:	60b9      	str	r1, [r7, #8]
 80029f0:	607a      	str	r2, [r7, #4]
 80029f2:	210f      	movs	r1, #15
 80029f4:	187b      	adds	r3, r7, r1
 80029f6:	1c02      	adds	r2, r0, #0
 80029f8:	701a      	strb	r2, [r3, #0]
  /* Prevent unused argument(s) compilation warning */
  UNUSED(SubPriority);
  /* Check the parameters */
  assert_param(IS_NVIC_PREEMPTION_PRIORITY(PreemptPriority));
  NVIC_SetPriority(IRQn, PreemptPriority);
 80029fa:	68ba      	ldr	r2, [r7, #8]
 80029fc:	187b      	adds	r3, r7, r1
 80029fe:	781b      	ldrb	r3, [r3, #0]
 8002a00:	b25b      	sxtb	r3, r3
 8002a02:	0011      	movs	r1, r2
 8002a04:	0018      	movs	r0, r3
 8002a06:	f7ff ff5d 	bl	80028c4 <__NVIC_SetPriority>
}
 8002a0a:	46c0      	nop			@ (mov r8, r8)
 8002a0c:	46bd      	mov	sp, r7
 8002a0e:	b004      	add	sp, #16
 8002a10:	bd80      	pop	{r7, pc}

08002a12 <HAL_SYSTICK_Config>:
  * @param  TicksNumb Specifies the ticks Number of ticks between two interrupts.
  * @retval status:  - 0  Function succeeded.
  *                  - 1  Function failed.
  */
uint32_t HAL_SYSTICK_Config(uint32_t TicksNumb)
{
 8002a12:	b580      	push	{r7, lr}
 8002a14:	b082      	sub	sp, #8
 8002a16:	af00      	add	r7, sp, #0
 8002a18:	6078      	str	r0, [r7, #4]
  return SysTick_Config(TicksNumb);
 8002a1a:	687b      	ldr	r3, [r7, #4]
 8002a1c:	0018      	movs	r0, r3
 8002a1e:	f7ff ffbf 	bl	80029a0 <SysTick_Config>
 8002a22:	0003      	movs	r3, r0
}
 8002a24:	0018      	movs	r0, r3
 8002a26:	46bd      	mov	sp, r7
 8002a28:	b002      	add	sp, #8
 8002a2a:	bd80      	pop	{r7, pc}

08002a2c <HAL_GPIO_Init>:
  * @param  pGPIO_Init pointer to a GPIO_InitTypeDef structure that contains
  *         the configuration information for the specified GPIO peripheral.
  * @retval None
  */
void HAL_GPIO_Init(GPIO_TypeDef  *GPIOx, const GPIO_InitTypeDef *pGPIO_Init)
{
 8002a2c:	b580      	push	{r7, lr}
 8002a2e:	b086      	sub	sp, #24
 8002a30:	af00      	add	r7, sp, #0
 8002a32:	6078      	str	r0, [r7, #4]
 8002a34:	6039      	str	r1, [r7, #0]
  uint32_t tmp;
  uint32_t iocurrent;
  uint32_t position = 0U;
 8002a36:	2300      	movs	r3, #0
 8002a38:	613b      	str	r3, [r7, #16]
  assert_param(IS_GPIO_ALL_INSTANCE(GPIOx));
  assert_param(IS_GPIO_PIN(pGPIO_Init->Pin));
  assert_param(IS_GPIO_MODE(pGPIO_Init->Mode));

  /* Configure the port pins */
  while (((pGPIO_Init->Pin) >> position) != 0U)
 8002a3a:	e14d      	b.n	8002cd8 <HAL_GPIO_Init+0x2ac>
  {
    /* Get current io position */
    iocurrent = (pGPIO_Init->Pin) & (1UL << position);
 8002a3c:	683b      	ldr	r3, [r7, #0]
 8002a3e:	681b      	ldr	r3, [r3, #0]
 8002a40:	2101      	movs	r1, #1
 8002a42:	693a      	ldr	r2, [r7, #16]
 8002a44:	4091      	lsls	r1, r2
 8002a46:	000a      	movs	r2, r1
 8002a48:	4013      	ands	r3, r2
 8002a4a:	60fb      	str	r3, [r7, #12]

    if (iocurrent != 0U)
 8002a4c:	68fb      	ldr	r3, [r7, #12]
 8002a4e:	2b00      	cmp	r3, #0
 8002a50:	d100      	bne.n	8002a54 <HAL_GPIO_Init+0x28>
 8002a52:	e13e      	b.n	8002cd2 <HAL_GPIO_Init+0x2a6>
    {
      /*--------------------- GPIO Mode Configuration ------------------------*/
      /* In case of Alternate function mode selection */
      if ((pGPIO_Init->Mode == GPIO_MODE_AF_PP) || (pGPIO_Init->Mode == GPIO_MODE_AF_OD))
 8002a54:	683b      	ldr	r3, [r7, #0]
 8002a56:	685b      	ldr	r3, [r3, #4]
 8002a58:	2b02      	cmp	r3, #2
 8002a5a:	d003      	beq.n	8002a64 <HAL_GPIO_Init+0x38>
 8002a5c:	683b      	ldr	r3, [r7, #0]
 8002a5e:	685b      	ldr	r3, [r3, #4]
 8002a60:	2b12      	cmp	r3, #18
 8002a62:	d125      	bne.n	8002ab0 <HAL_GPIO_Init+0x84>
        /* Check the Alternate function parameters */
        assert_param(IS_GPIO_AF_INSTANCE(GPIOx));
        assert_param(IS_GPIO_AF(pGPIO_Init->Alternate));

        /* Configure Alternate function mapped with the current IO */
        tmp = GPIOx->AFR[position >> 3U];
 8002a64:	693b      	ldr	r3, [r7, #16]
 8002a66:	08da      	lsrs	r2, r3, #3
 8002a68:	687b      	ldr	r3, [r7, #4]
 8002a6a:	3208      	adds	r2, #8
 8002a6c:	0092      	lsls	r2, r2, #2
 8002a6e:	58d3      	ldr	r3, [r2, r3]
 8002a70:	617b      	str	r3, [r7, #20]
        tmp &= ~(0xFUL << ((position & 0x07U) * GPIO_AFRL_AFSEL1_Pos)) ;
 8002a72:	693b      	ldr	r3, [r7, #16]
 8002a74:	2207      	movs	r2, #7
 8002a76:	4013      	ands	r3, r2
 8002a78:	009b      	lsls	r3, r3, #2
 8002a7a:	220f      	movs	r2, #15
 8002a7c:	409a      	lsls	r2, r3
 8002a7e:	0013      	movs	r3, r2
 8002a80:	43da      	mvns	r2, r3
 8002a82:	697b      	ldr	r3, [r7, #20]
 8002a84:	4013      	ands	r3, r2
 8002a86:	617b      	str	r3, [r7, #20]
        tmp |= ((pGPIO_Init->Alternate & 0x0FUL) << ((position & 0x07U) * GPIO_AFRL_AFSEL1_Pos));
 8002a88:	683b      	ldr	r3, [r7, #0]
 8002a8a:	691b      	ldr	r3, [r3, #16]
 8002a8c:	220f      	movs	r2, #15
 8002a8e:	401a      	ands	r2, r3
 8002a90:	693b      	ldr	r3, [r7, #16]
 8002a92:	2107      	movs	r1, #7
 8002a94:	400b      	ands	r3, r1
 8002a96:	009b      	lsls	r3, r3, #2
 8002a98:	409a      	lsls	r2, r3
 8002a9a:	0013      	movs	r3, r2
 8002a9c:	697a      	ldr	r2, [r7, #20]
 8002a9e:	4313      	orrs	r3, r2
 8002aa0:	617b      	str	r3, [r7, #20]
        GPIOx->AFR[position >> 3U] = tmp;
 8002aa2:	693b      	ldr	r3, [r7, #16]
 8002aa4:	08da      	lsrs	r2, r3, #3
 8002aa6:	687b      	ldr	r3, [r7, #4]
 8002aa8:	3208      	adds	r2, #8
 8002aaa:	0092      	lsls	r2, r2, #2
 8002aac:	6979      	ldr	r1, [r7, #20]
 8002aae:	50d1      	str	r1, [r2, r3]
      }

      /* Configure IO Direction mode (Input, Output, Alternate or Analog) */
      tmp = GPIOx->MODER;
 8002ab0:	687b      	ldr	r3, [r7, #4]
 8002ab2:	681b      	ldr	r3, [r3, #0]
 8002ab4:	617b      	str	r3, [r7, #20]
      tmp &= ~(GPIO_MODER_MODE0 << (position * GPIO_MODER_MODE1_Pos));
 8002ab6:	693b      	ldr	r3, [r7, #16]
 8002ab8:	005b      	lsls	r3, r3, #1
 8002aba:	2203      	movs	r2, #3
 8002abc:	409a      	lsls	r2, r3
 8002abe:	0013      	movs	r3, r2
 8002ac0:	43da      	mvns	r2, r3
 8002ac2:	697b      	ldr	r3, [r7, #20]
 8002ac4:	4013      	ands	r3, r2
 8002ac6:	617b      	str	r3, [r7, #20]
      tmp |= ((pGPIO_Init->Mode & GPIO_MODE) << (position * GPIO_MODER_MODE1_Pos));
 8002ac8:	683b      	ldr	r3, [r7, #0]
 8002aca:	685b      	ldr	r3, [r3, #4]
 8002acc:	2203      	movs	r2, #3
 8002ace:	401a      	ands	r2, r3
 8002ad0:	693b      	ldr	r3, [r7, #16]
 8002ad2:	005b      	lsls	r3, r3, #1
 8002ad4:	409a      	lsls	r2, r3
 8002ad6:	0013      	movs	r3, r2
 8002ad8:	697a      	ldr	r2, [r7, #20]
 8002ada:	4313      	orrs	r3, r2
 8002adc:	617b      	str	r3, [r7, #20]
      GPIOx->MODER = tmp;
 8002ade:	687b      	ldr	r3, [r7, #4]
 8002ae0:	697a      	ldr	r2, [r7, #20]
 8002ae2:	601a      	str	r2, [r3, #0]

      /* In case of Output or Alternate function mode selection */
      if ((pGPIO_Init->Mode == GPIO_MODE_OUTPUT_PP) || (pGPIO_Init->Mode == GPIO_MODE_AF_PP) ||
 8002ae4:	683b      	ldr	r3, [r7, #0]
 8002ae6:	685b      	ldr	r3, [r3, #4]
 8002ae8:	2b01      	cmp	r3, #1
 8002aea:	d00b      	beq.n	8002b04 <HAL_GPIO_Init+0xd8>
 8002aec:	683b      	ldr	r3, [r7, #0]
 8002aee:	685b      	ldr	r3, [r3, #4]
 8002af0:	2b02      	cmp	r3, #2
 8002af2:	d007      	beq.n	8002b04 <HAL_GPIO_Init+0xd8>
          (pGPIO_Init->Mode == GPIO_MODE_OUTPUT_OD) || (pGPIO_Init->Mode == GPIO_MODE_AF_OD))
 8002af4:	683b      	ldr	r3, [r7, #0]
 8002af6:	685b      	ldr	r3, [r3, #4]
      if ((pGPIO_Init->Mode == GPIO_MODE_OUTPUT_PP) || (pGPIO_Init->Mode == GPIO_MODE_AF_PP) ||
 8002af8:	2b11      	cmp	r3, #17
 8002afa:	d003      	beq.n	8002b04 <HAL_GPIO_Init+0xd8>
          (pGPIO_Init->Mode == GPIO_MODE_OUTPUT_OD) || (pGPIO_Init->Mode == GPIO_MODE_AF_OD))
 8002afc:	683b      	ldr	r3, [r7, #0]
 8002afe:	685b      	ldr	r3, [r3, #4]
 8002b00:	2b12      	cmp	r3, #18
 8002b02:	d130      	bne.n	8002b66 <HAL_GPIO_Init+0x13a>
      {
        /* Check the Speed parameter */
        assert_param(IS_GPIO_SPEED(pGPIO_Init->Speed));

        /* Configure the IO Speed */
        tmp = GPIOx->OSPEEDR;
 8002b04:	687b      	ldr	r3, [r7, #4]
 8002b06:	689b      	ldr	r3, [r3, #8]
 8002b08:	617b      	str	r3, [r7, #20]
        tmp &= ~(GPIO_OSPEEDR_OSPEED0 << (position * GPIO_OSPEEDR_OSPEED1_Pos));
 8002b0a:	693b      	ldr	r3, [r7, #16]
 8002b0c:	005b      	lsls	r3, r3, #1
 8002b0e:	2203      	movs	r2, #3
 8002b10:	409a      	lsls	r2, r3
 8002b12:	0013      	movs	r3, r2
 8002b14:	43da      	mvns	r2, r3
 8002b16:	697b      	ldr	r3, [r7, #20]
 8002b18:	4013      	ands	r3, r2
 8002b1a:	617b      	str	r3, [r7, #20]
        tmp |= (pGPIO_Init->Speed << (position * GPIO_OSPEEDR_OSPEED1_Pos));
 8002b1c:	683b      	ldr	r3, [r7, #0]
 8002b1e:	68da      	ldr	r2, [r3, #12]
 8002b20:	693b      	ldr	r3, [r7, #16]
 8002b22:	005b      	lsls	r3, r3, #1
 8002b24:	409a      	lsls	r2, r3
 8002b26:	0013      	movs	r3, r2
 8002b28:	697a      	ldr	r2, [r7, #20]
 8002b2a:	4313      	orrs	r3, r2
 8002b2c:	617b      	str	r3, [r7, #20]
        GPIOx->OSPEEDR = tmp;
 8002b2e:	687b      	ldr	r3, [r7, #4]
 8002b30:	697a      	ldr	r2, [r7, #20]
 8002b32:	609a      	str	r2, [r3, #8]

        /* Configure the IO Output Type */
        tmp = GPIOx->OTYPER;
 8002b34:	687b      	ldr	r3, [r7, #4]
 8002b36:	685b      	ldr	r3, [r3, #4]
 8002b38:	617b      	str	r3, [r7, #20]
        tmp &= ~(GPIO_OTYPER_OT0 << position) ;
 8002b3a:	2201      	movs	r2, #1
 8002b3c:	693b      	ldr	r3, [r7, #16]
 8002b3e:	409a      	lsls	r2, r3
 8002b40:	0013      	movs	r3, r2
 8002b42:	43da      	mvns	r2, r3
 8002b44:	697b      	ldr	r3, [r7, #20]
 8002b46:	4013      	ands	r3, r2
 8002b48:	617b      	str	r3, [r7, #20]
        tmp |= (((pGPIO_Init->Mode & GPIO_OUTPUT_TYPE) >> 4U) << position);
 8002b4a:	683b      	ldr	r3, [r7, #0]
 8002b4c:	685b      	ldr	r3, [r3, #4]
 8002b4e:	091b      	lsrs	r3, r3, #4
 8002b50:	2201      	movs	r2, #1
 8002b52:	401a      	ands	r2, r3
 8002b54:	693b      	ldr	r3, [r7, #16]
 8002b56:	409a      	lsls	r2, r3
 8002b58:	0013      	movs	r3, r2
 8002b5a:	697a      	ldr	r2, [r7, #20]
 8002b5c:	4313      	orrs	r3, r2
 8002b5e:	617b      	str	r3, [r7, #20]
        GPIOx->OTYPER = tmp;
 8002b60:	687b      	ldr	r3, [r7, #4]
 8002b62:	697a      	ldr	r2, [r7, #20]
 8002b64:	605a      	str	r2, [r3, #4]
      }

      if (pGPIO_Init->Mode != GPIO_MODE_ANALOG)
 8002b66:	683b      	ldr	r3, [r7, #0]
 8002b68:	685b      	ldr	r3, [r3, #4]
 8002b6a:	2b03      	cmp	r3, #3
 8002b6c:	d017      	beq.n	8002b9e <HAL_GPIO_Init+0x172>
      {
        /* Check the Pull parameters */
        assert_param(IS_GPIO_PULL(pGPIO_Init->Pull));

        /* Activate the Pull-up or Pull down resistor for the current IO */
        tmp = GPIOx->PUPDR;
 8002b6e:	687b      	ldr	r3, [r7, #4]
 8002b70:	68db      	ldr	r3, [r3, #12]
 8002b72:	617b      	str	r3, [r7, #20]
        tmp &= ~(GPIO_PUPDR_PUPD0 << (position * GPIO_PUPDR_PUPD1_Pos));
 8002b74:	693b      	ldr	r3, [r7, #16]
 8002b76:	005b      	lsls	r3, r3, #1
 8002b78:	2203      	movs	r2, #3
 8002b7a:	409a      	lsls	r2, r3
 8002b7c:	0013      	movs	r3, r2
 8002b7e:	43da      	mvns	r2, r3
 8002b80:	697b      	ldr	r3, [r7, #20]
 8002b82:	4013      	ands	r3, r2
 8002b84:	617b      	str	r3, [r7, #20]
        tmp |= ((pGPIO_Init->Pull) << (position * GPIO_PUPDR_PUPD1_Pos));
 8002b86:	683b      	ldr	r3, [r7, #0]
 8002b88:	689a      	ldr	r2, [r3, #8]
 8002b8a:	693b      	ldr	r3, [r7, #16]
 8002b8c:	005b      	lsls	r3, r3, #1
 8002b8e:	409a      	lsls	r2, r3
 8002b90:	0013      	movs	r3, r2
 8002b92:	697a      	ldr	r2, [r7, #20]
 8002b94:	4313      	orrs	r3, r2
 8002b96:	617b      	str	r3, [r7, #20]
        GPIOx->PUPDR = tmp;
 8002b98:	687b      	ldr	r3, [r7, #4]
 8002b9a:	697a      	ldr	r2, [r7, #20]
 8002b9c:	60da      	str	r2, [r3, #12]
      }

      /*--------------------- EXTI Mode Configuration ------------------------*/
      /* Configure the External Interrupt or event for the current IO */
      if ((pGPIO_Init->Mode & EXTI_MODE) == EXTI_MODE)
 8002b9e:	683b      	ldr	r3, [r7, #0]
 8002ba0:	685a      	ldr	r2, [r3, #4]
 8002ba2:	2380      	movs	r3, #128	@ 0x80
 8002ba4:	055b      	lsls	r3, r3, #21
 8002ba6:	4013      	ands	r3, r2
 8002ba8:	d100      	bne.n	8002bac <HAL_GPIO_Init+0x180>
 8002baa:	e092      	b.n	8002cd2 <HAL_GPIO_Init+0x2a6>
      {
        tmp = EXTI->EXTICR[position >> 2U];
 8002bac:	4a50      	ldr	r2, [pc, #320]	@ (8002cf0 <HAL_GPIO_Init+0x2c4>)
 8002bae:	693b      	ldr	r3, [r7, #16]
 8002bb0:	089b      	lsrs	r3, r3, #2
 8002bb2:	3318      	adds	r3, #24
 8002bb4:	009b      	lsls	r3, r3, #2
 8002bb6:	589b      	ldr	r3, [r3, r2]
 8002bb8:	617b      	str	r3, [r7, #20]
        tmp &= ~((0x0FUL) << ((position & 0x03U) * EXTI_EXTICR1_EXTI1_Pos));
 8002bba:	693b      	ldr	r3, [r7, #16]
 8002bbc:	2203      	movs	r2, #3
 8002bbe:	4013      	ands	r3, r2
 8002bc0:	00db      	lsls	r3, r3, #3
 8002bc2:	220f      	movs	r2, #15
 8002bc4:	409a      	lsls	r2, r3
 8002bc6:	0013      	movs	r3, r2
 8002bc8:	43da      	mvns	r2, r3
 8002bca:	697b      	ldr	r3, [r7, #20]
 8002bcc:	4013      	ands	r3, r2
 8002bce:	617b      	str	r3, [r7, #20]
        tmp |= (GPIO_GET_INDEX(GPIOx) << ((position & 0x03U) * EXTI_EXTICR1_EXTI1_Pos));
 8002bd0:	687a      	ldr	r2, [r7, #4]
 8002bd2:	23a0      	movs	r3, #160	@ 0xa0
 8002bd4:	05db      	lsls	r3, r3, #23
 8002bd6:	429a      	cmp	r2, r3
 8002bd8:	d013      	beq.n	8002c02 <HAL_GPIO_Init+0x1d6>
 8002bda:	687b      	ldr	r3, [r7, #4]
 8002bdc:	4a45      	ldr	r2, [pc, #276]	@ (8002cf4 <HAL_GPIO_Init+0x2c8>)
 8002bde:	4293      	cmp	r3, r2
 8002be0:	d00d      	beq.n	8002bfe <HAL_GPIO_Init+0x1d2>
 8002be2:	687b      	ldr	r3, [r7, #4]
 8002be4:	4a44      	ldr	r2, [pc, #272]	@ (8002cf8 <HAL_GPIO_Init+0x2cc>)
 8002be6:	4293      	cmp	r3, r2
 8002be8:	d007      	beq.n	8002bfa <HAL_GPIO_Init+0x1ce>
 8002bea:	687b      	ldr	r3, [r7, #4]
 8002bec:	4a43      	ldr	r2, [pc, #268]	@ (8002cfc <HAL_GPIO_Init+0x2d0>)
 8002bee:	4293      	cmp	r3, r2
 8002bf0:	d101      	bne.n	8002bf6 <HAL_GPIO_Init+0x1ca>
 8002bf2:	2305      	movs	r3, #5
 8002bf4:	e006      	b.n	8002c04 <HAL_GPIO_Init+0x1d8>
 8002bf6:	2306      	movs	r3, #6
 8002bf8:	e004      	b.n	8002c04 <HAL_GPIO_Init+0x1d8>
 8002bfa:	2302      	movs	r3, #2
 8002bfc:	e002      	b.n	8002c04 <HAL_GPIO_Init+0x1d8>
 8002bfe:	2301      	movs	r3, #1
 8002c00:	e000      	b.n	8002c04 <HAL_GPIO_Init+0x1d8>
 8002c02:	2300      	movs	r3, #0
 8002c04:	693a      	ldr	r2, [r7, #16]
 8002c06:	2103      	movs	r1, #3
 8002c08:	400a      	ands	r2, r1
 8002c0a:	00d2      	lsls	r2, r2, #3
 8002c0c:	4093      	lsls	r3, r2
 8002c0e:	697a      	ldr	r2, [r7, #20]
 8002c10:	4313      	orrs	r3, r2
 8002c12:	617b      	str	r3, [r7, #20]
        EXTI->EXTICR[position >> 2U] = tmp;
 8002c14:	4936      	ldr	r1, [pc, #216]	@ (8002cf0 <HAL_GPIO_Init+0x2c4>)
 8002c16:	693b      	ldr	r3, [r7, #16]
 8002c18:	089b      	lsrs	r3, r3, #2
 8002c1a:	3318      	adds	r3, #24
 8002c1c:	009b      	lsls	r3, r3, #2
 8002c1e:	697a      	ldr	r2, [r7, #20]
 8002c20:	505a      	str	r2, [r3, r1]

        /* Clear EXTI line configuration */
        tmp = EXTI->IMR1;
 8002c22:	4a33      	ldr	r2, [pc, #204]	@ (8002cf0 <HAL_GPIO_Init+0x2c4>)
 8002c24:	2380      	movs	r3, #128	@ 0x80
 8002c26:	58d3      	ldr	r3, [r2, r3]
 8002c28:	617b      	str	r3, [r7, #20]
        tmp &= ~((uint32_t)iocurrent);
 8002c2a:	68fb      	ldr	r3, [r7, #12]
 8002c2c:	43da      	mvns	r2, r3
 8002c2e:	697b      	ldr	r3, [r7, #20]
 8002c30:	4013      	ands	r3, r2
 8002c32:	617b      	str	r3, [r7, #20]
        if ((pGPIO_Init->Mode & GPIO_MODE_IT) == GPIO_MODE_IT)
 8002c34:	683b      	ldr	r3, [r7, #0]
 8002c36:	685a      	ldr	r2, [r3, #4]
 8002c38:	2380      	movs	r3, #128	@ 0x80
 8002c3a:	025b      	lsls	r3, r3, #9
 8002c3c:	4013      	ands	r3, r2
 8002c3e:	d003      	beq.n	8002c48 <HAL_GPIO_Init+0x21c>
        {
          tmp |= iocurrent;
 8002c40:	697a      	ldr	r2, [r7, #20]
 8002c42:	68fb      	ldr	r3, [r7, #12]
 8002c44:	4313      	orrs	r3, r2
 8002c46:	617b      	str	r3, [r7, #20]
        }
        EXTI->IMR1 = tmp;
 8002c48:	4929      	ldr	r1, [pc, #164]	@ (8002cf0 <HAL_GPIO_Init+0x2c4>)
 8002c4a:	2280      	movs	r2, #128	@ 0x80
 8002c4c:	697b      	ldr	r3, [r7, #20]
 8002c4e:	508b      	str	r3, [r1, r2]

        tmp = EXTI->EMR1;
 8002c50:	4a27      	ldr	r2, [pc, #156]	@ (8002cf0 <HAL_GPIO_Init+0x2c4>)
 8002c52:	2384      	movs	r3, #132	@ 0x84
 8002c54:	58d3      	ldr	r3, [r2, r3]
 8002c56:	617b      	str	r3, [r7, #20]
        tmp &= ~((uint32_t)iocurrent);
 8002c58:	68fb      	ldr	r3, [r7, #12]
 8002c5a:	43da      	mvns	r2, r3
 8002c5c:	697b      	ldr	r3, [r7, #20]
 8002c5e:	4013      	ands	r3, r2
 8002c60:	617b      	str	r3, [r7, #20]
        if ((pGPIO_Init->Mode & GPIO_MODE_EVT) == GPIO_MODE_EVT)
 8002c62:	683b      	ldr	r3, [r7, #0]
 8002c64:	685a      	ldr	r2, [r3, #4]
 8002c66:	2380      	movs	r3, #128	@ 0x80
 8002c68:	029b      	lsls	r3, r3, #10
 8002c6a:	4013      	ands	r3, r2
 8002c6c:	d003      	beq.n	8002c76 <HAL_GPIO_Init+0x24a>
        {
          tmp |= iocurrent;
 8002c6e:	697a      	ldr	r2, [r7, #20]
 8002c70:	68fb      	ldr	r3, [r7, #12]
 8002c72:	4313      	orrs	r3, r2
 8002c74:	617b      	str	r3, [r7, #20]
        }
        EXTI->EMR1 = tmp;
 8002c76:	491e      	ldr	r1, [pc, #120]	@ (8002cf0 <HAL_GPIO_Init+0x2c4>)
 8002c78:	2284      	movs	r2, #132	@ 0x84
 8002c7a:	697b      	ldr	r3, [r7, #20]
 8002c7c:	508b      	str	r3, [r1, r2]

        /* Clear Rising Falling edge configuration */
        tmp = EXTI->RTSR1;
 8002c7e:	4b1c      	ldr	r3, [pc, #112]	@ (8002cf0 <HAL_GPIO_Init+0x2c4>)
 8002c80:	681b      	ldr	r3, [r3, #0]
 8002c82:	617b      	str	r3, [r7, #20]
        tmp &= ~((uint32_t)iocurrent);
 8002c84:	68fb      	ldr	r3, [r7, #12]
 8002c86:	43da      	mvns	r2, r3
 8002c88:	697b      	ldr	r3, [r7, #20]
 8002c8a:	4013      	ands	r3, r2
 8002c8c:	617b      	str	r3, [r7, #20]
        if ((pGPIO_Init->Mode & RISING_EDGE) == RISING_EDGE)
 8002c8e:	683b      	ldr	r3, [r7, #0]
 8002c90:	685a      	ldr	r2, [r3, #4]
 8002c92:	2380      	movs	r3, #128	@ 0x80
 8002c94:	035b      	lsls	r3, r3, #13
 8002c96:	4013      	ands	r3, r2
 8002c98:	d003      	beq.n	8002ca2 <HAL_GPIO_Init+0x276>
        {
          tmp |= iocurrent;
 8002c9a:	697a      	ldr	r2, [r7, #20]
 8002c9c:	68fb      	ldr	r3, [r7, #12]
 8002c9e:	4313      	orrs	r3, r2
 8002ca0:	617b      	str	r3, [r7, #20]
        }
        EXTI->RTSR1 = tmp;
 8002ca2:	4b13      	ldr	r3, [pc, #76]	@ (8002cf0 <HAL_GPIO_Init+0x2c4>)
 8002ca4:	697a      	ldr	r2, [r7, #20]
 8002ca6:	601a      	str	r2, [r3, #0]

        tmp = EXTI->FTSR1;
 8002ca8:	4b11      	ldr	r3, [pc, #68]	@ (8002cf0 <HAL_GPIO_Init+0x2c4>)
 8002caa:	685b      	ldr	r3, [r3, #4]
 8002cac:	617b      	str	r3, [r7, #20]
        tmp &= ~((uint32_t)iocurrent);
 8002cae:	68fb      	ldr	r3, [r7, #12]
 8002cb0:	43da      	mvns	r2, r3
 8002cb2:	697b      	ldr	r3, [r7, #20]
 8002cb4:	4013      	ands	r3, r2
 8002cb6:	617b      	str	r3, [r7, #20]
        if ((pGPIO_Init->Mode & FALLING_EDGE) == FALLING_EDGE)
 8002cb8:	683b      	ldr	r3, [r7, #0]
 8002cba:	685a      	ldr	r2, [r3, #4]
 8002cbc:	2380      	movs	r3, #128	@ 0x80
 8002cbe:	039b      	lsls	r3, r3, #14
 8002cc0:	4013      	ands	r3, r2
 8002cc2:	d003      	beq.n	8002ccc <HAL_GPIO_Init+0x2a0>
        {
          tmp |= iocurrent;
 8002cc4:	697a      	ldr	r2, [r7, #20]
 8002cc6:	68fb      	ldr	r3, [r7, #12]
 8002cc8:	4313      	orrs	r3, r2
 8002cca:	617b      	str	r3, [r7, #20]
        }
        EXTI->FTSR1 = tmp;
 8002ccc:	4b08      	ldr	r3, [pc, #32]	@ (8002cf0 <HAL_GPIO_Init+0x2c4>)
 8002cce:	697a      	ldr	r2, [r7, #20]
 8002cd0:	605a      	str	r2, [r3, #4]
      }
    }

    position++;
 8002cd2:	693b      	ldr	r3, [r7, #16]
 8002cd4:	3301      	adds	r3, #1
 8002cd6:	613b      	str	r3, [r7, #16]
  while (((pGPIO_Init->Pin) >> position) != 0U)
 8002cd8:	683b      	ldr	r3, [r7, #0]
 8002cda:	681a      	ldr	r2, [r3, #0]
 8002cdc:	693b      	ldr	r3, [r7, #16]
 8002cde:	40da      	lsrs	r2, r3
 8002ce0:	1e13      	subs	r3, r2, #0
 8002ce2:	d000      	beq.n	8002ce6 <HAL_GPIO_Init+0x2ba>
 8002ce4:	e6aa      	b.n	8002a3c <HAL_GPIO_Init+0x10>
  }
}
 8002ce6:	46c0      	nop			@ (mov r8, r8)
 8002ce8:	46c0      	nop			@ (mov r8, r8)
 8002cea:	46bd      	mov	sp, r7
 8002cec:	b006      	add	sp, #24
 8002cee:	bd80      	pop	{r7, pc}
 8002cf0:	40021800 	.word	0x40021800
 8002cf4:	50000400 	.word	0x50000400
 8002cf8:	50000800 	.word	0x50000800
 8002cfc:	50001400 	.word	0x50001400

08002d00 <HAL_GPIO_ReadPin>:
  * @param  GPIO_Pin specifies the port bit to read.
  *         This parameter can be any combination of GPIO_Pin_x where x can be (0..15).
  * @retval The input port pin value.
  */
GPIO_PinState HAL_GPIO_ReadPin(const GPIO_TypeDef *GPIOx, uint16_t GPIO_Pin)
{
 8002d00:	b580      	push	{r7, lr}
 8002d02:	b084      	sub	sp, #16
 8002d04:	af00      	add	r7, sp, #0
 8002d06:	6078      	str	r0, [r7, #4]
 8002d08:	000a      	movs	r2, r1
 8002d0a:	1cbb      	adds	r3, r7, #2
 8002d0c:	801a      	strh	r2, [r3, #0]
  GPIO_PinState bitstatus;

  /* Check the parameters */
  assert_param(IS_GPIO_PIN(GPIO_Pin));

  if ((GPIOx->IDR & GPIO_Pin) != 0U)
 8002d0e:	687b      	ldr	r3, [r7, #4]
 8002d10:	691b      	ldr	r3, [r3, #16]
 8002d12:	1cba      	adds	r2, r7, #2
 8002d14:	8812      	ldrh	r2, [r2, #0]
 8002d16:	4013      	ands	r3, r2
 8002d18:	d004      	beq.n	8002d24 <HAL_GPIO_ReadPin+0x24>
  {
    bitstatus = GPIO_PIN_SET;
 8002d1a:	230f      	movs	r3, #15
 8002d1c:	18fb      	adds	r3, r7, r3
 8002d1e:	2201      	movs	r2, #1
 8002d20:	701a      	strb	r2, [r3, #0]
 8002d22:	e003      	b.n	8002d2c <HAL_GPIO_ReadPin+0x2c>
  }
  else
  {
    bitstatus = GPIO_PIN_RESET;
 8002d24:	230f      	movs	r3, #15
 8002d26:	18fb      	adds	r3, r7, r3
 8002d28:	2200      	movs	r2, #0
 8002d2a:	701a      	strb	r2, [r3, #0]
  }
  return bitstatus;
 8002d2c:	230f      	movs	r3, #15
 8002d2e:	18fb      	adds	r3, r7, r3
 8002d30:	781b      	ldrb	r3, [r3, #0]
}
 8002d32:	0018      	movs	r0, r3
 8002d34:	46bd      	mov	sp, r7
 8002d36:	b004      	add	sp, #16
 8002d38:	bd80      	pop	{r7, pc}

08002d3a <HAL_GPIO_WritePin>:
  *            @arg GPIO_PIN_RESET: to clear the port pin
  *            @arg GPIO_PIN_SET: to set the port pin
  * @retval None
  */
void HAL_GPIO_WritePin(GPIO_TypeDef *GPIOx, uint16_t GPIO_Pin, GPIO_PinState PinState)
{
 8002d3a:	b580      	push	{r7, lr}
 8002d3c:	b082      	sub	sp, #8
 8002d3e:	af00      	add	r7, sp, #0
 8002d40:	6078      	str	r0, [r7, #4]
 8002d42:	0008      	movs	r0, r1
 8002d44:	0011      	movs	r1, r2
 8002d46:	1cbb      	adds	r3, r7, #2
 8002d48:	1c02      	adds	r2, r0, #0
 8002d4a:	801a      	strh	r2, [r3, #0]
 8002d4c:	1c7b      	adds	r3, r7, #1
 8002d4e:	1c0a      	adds	r2, r1, #0
 8002d50:	701a      	strb	r2, [r3, #0]
  /* Check the parameters */
  assert_param(IS_GPIO_PIN(GPIO_Pin));
  assert_param(IS_GPIO_PIN_ACTION(PinState));

  if (PinState != GPIO_PIN_RESET)
 8002d52:	1c7b      	adds	r3, r7, #1
 8002d54:	781b      	ldrb	r3, [r3, #0]
 8002d56:	2b00      	cmp	r3, #0
 8002d58:	d004      	beq.n	8002d64 <HAL_GPIO_WritePin+0x2a>
  {
    GPIOx->BSRR = (uint32_t)GPIO_Pin;
 8002d5a:	1cbb      	adds	r3, r7, #2
 8002d5c:	881a      	ldrh	r2, [r3, #0]
 8002d5e:	687b      	ldr	r3, [r7, #4]
 8002d60:	619a      	str	r2, [r3, #24]
  }
  else
  {
    GPIOx->BRR = (uint32_t)GPIO_Pin;
  }
}
 8002d62:	e003      	b.n	8002d6c <HAL_GPIO_WritePin+0x32>
    GPIOx->BRR = (uint32_t)GPIO_Pin;
 8002d64:	1cbb      	adds	r3, r7, #2
 8002d66:	881a      	ldrh	r2, [r3, #0]
 8002d68:	687b      	ldr	r3, [r7, #4]
 8002d6a:	629a      	str	r2, [r3, #40]	@ 0x28
}
 8002d6c:	46c0      	nop			@ (mov r8, r8)
 8002d6e:	46bd      	mov	sp, r7
 8002d70:	b002      	add	sp, #8
 8002d72:	bd80      	pop	{r7, pc}

08002d74 <HAL_RCC_OscConfig>:
            must adjust the number of CPU wait states in their application (SystemClock_Config() API)
            before calling the HAL_RCC_OscConfig() API to update the HSI48 clock division factor.
  * @retval HAL status
  */
HAL_StatusTypeDef HAL_RCC_OscConfig(const RCC_OscInitTypeDef  *RCC_OscInitStruct)
{
 8002d74:	b580      	push	{r7, lr}
 8002d76:	b086      	sub	sp, #24
 8002d78:	af00      	add	r7, sp, #0
 8002d7a:	6078      	str	r0, [r7, #4]
  uint32_t tickstart;
  uint32_t temp_sysclksrc;

  /* Check Null pointer */
  if (RCC_OscInitStruct == NULL)
 8002d7c:	687b      	ldr	r3, [r7, #4]
 8002d7e:	2b00      	cmp	r3, #0
 8002d80:	d101      	bne.n	8002d86 <HAL_RCC_OscConfig+0x12>
  {
    return HAL_ERROR;
 8002d82:	2301      	movs	r3, #1
 8002d84:	e1d0      	b.n	8003128 <HAL_RCC_OscConfig+0x3b4>

  /* Check the parameters */
  assert_param(IS_RCC_OSCILLATORTYPE(RCC_OscInitStruct->OscillatorType));

  /*------------------------------- HSE Configuration ------------------------*/
  if (((RCC_OscInitStruct->OscillatorType) & RCC_OSCILLATORTYPE_HSE) == RCC_OSCILLATORTYPE_HSE)
 8002d86:	687b      	ldr	r3, [r7, #4]
 8002d88:	681b      	ldr	r3, [r3, #0]
 8002d8a:	2201      	movs	r2, #1
 8002d8c:	4013      	ands	r3, r2
 8002d8e:	d100      	bne.n	8002d92 <HAL_RCC_OscConfig+0x1e>
 8002d90:	e069      	b.n	8002e66 <HAL_RCC_OscConfig+0xf2>
  {
    /* Check the parameters */
    assert_param(IS_RCC_HSE(RCC_OscInitStruct->HSEState));

    temp_sysclksrc = __HAL_RCC_GET_SYSCLK_SOURCE();
 8002d92:	4bc8      	ldr	r3, [pc, #800]	@ (80030b4 <HAL_RCC_OscConfig+0x340>)
 8002d94:	689b      	ldr	r3, [r3, #8]
 8002d96:	2238      	movs	r2, #56	@ 0x38
 8002d98:	4013      	ands	r3, r2
 8002d9a:	617b      	str	r3, [r7, #20]

    /* When the HSE is used as system clock in these cases it is not allowed to be disabled */
    if (temp_sysclksrc == RCC_CFGR_SWS_HSE)
 8002d9c:	697b      	ldr	r3, [r7, #20]
 8002d9e:	2b08      	cmp	r3, #8
 8002da0:	d105      	bne.n	8002dae <HAL_RCC_OscConfig+0x3a>
    {
      if (RCC_OscInitStruct->HSEState == RCC_HSE_OFF)
 8002da2:	687b      	ldr	r3, [r7, #4]
 8002da4:	685b      	ldr	r3, [r3, #4]
 8002da6:	2b00      	cmp	r3, #0
 8002da8:	d15d      	bne.n	8002e66 <HAL_RCC_OscConfig+0xf2>
      {
        return HAL_ERROR;
 8002daa:	2301      	movs	r3, #1
 8002dac:	e1bc      	b.n	8003128 <HAL_RCC_OscConfig+0x3b4>
      }
    }
    else
    {
      /* Set the new HSE configuration ---------------------------------------*/
      __HAL_RCC_HSE_CONFIG(RCC_OscInitStruct->HSEState);
 8002dae:	687b      	ldr	r3, [r7, #4]
 8002db0:	685a      	ldr	r2, [r3, #4]
 8002db2:	2380      	movs	r3, #128	@ 0x80
 8002db4:	025b      	lsls	r3, r3, #9
 8002db6:	429a      	cmp	r2, r3
 8002db8:	d107      	bne.n	8002dca <HAL_RCC_OscConfig+0x56>
 8002dba:	4bbe      	ldr	r3, [pc, #760]	@ (80030b4 <HAL_RCC_OscConfig+0x340>)
 8002dbc:	681a      	ldr	r2, [r3, #0]
 8002dbe:	4bbd      	ldr	r3, [pc, #756]	@ (80030b4 <HAL_RCC_OscConfig+0x340>)
 8002dc0:	2180      	movs	r1, #128	@ 0x80
 8002dc2:	0249      	lsls	r1, r1, #9
 8002dc4:	430a      	orrs	r2, r1
 8002dc6:	601a      	str	r2, [r3, #0]
 8002dc8:	e020      	b.n	8002e0c <HAL_RCC_OscConfig+0x98>
 8002dca:	687b      	ldr	r3, [r7, #4]
 8002dcc:	685a      	ldr	r2, [r3, #4]
 8002dce:	23a0      	movs	r3, #160	@ 0xa0
 8002dd0:	02db      	lsls	r3, r3, #11
 8002dd2:	429a      	cmp	r2, r3
 8002dd4:	d10e      	bne.n	8002df4 <HAL_RCC_OscConfig+0x80>
 8002dd6:	4bb7      	ldr	r3, [pc, #732]	@ (80030b4 <HAL_RCC_OscConfig+0x340>)
 8002dd8:	681a      	ldr	r2, [r3, #0]
 8002dda:	4bb6      	ldr	r3, [pc, #728]	@ (80030b4 <HAL_RCC_OscConfig+0x340>)
 8002ddc:	2180      	movs	r1, #128	@ 0x80
 8002dde:	02c9      	lsls	r1, r1, #11
 8002de0:	430a      	orrs	r2, r1
 8002de2:	601a      	str	r2, [r3, #0]
 8002de4:	4bb3      	ldr	r3, [pc, #716]	@ (80030b4 <HAL_RCC_OscConfig+0x340>)
 8002de6:	681a      	ldr	r2, [r3, #0]
 8002de8:	4bb2      	ldr	r3, [pc, #712]	@ (80030b4 <HAL_RCC_OscConfig+0x340>)
 8002dea:	2180      	movs	r1, #128	@ 0x80
 8002dec:	0249      	lsls	r1, r1, #9
 8002dee:	430a      	orrs	r2, r1
 8002df0:	601a      	str	r2, [r3, #0]
 8002df2:	e00b      	b.n	8002e0c <HAL_RCC_OscConfig+0x98>
 8002df4:	4baf      	ldr	r3, [pc, #700]	@ (80030b4 <HAL_RCC_OscConfig+0x340>)
 8002df6:	681a      	ldr	r2, [r3, #0]
 8002df8:	4bae      	ldr	r3, [pc, #696]	@ (80030b4 <HAL_RCC_OscConfig+0x340>)
 8002dfa:	49af      	ldr	r1, [pc, #700]	@ (80030b8 <HAL_RCC_OscConfig+0x344>)
 8002dfc:	400a      	ands	r2, r1
 8002dfe:	601a      	str	r2, [r3, #0]
 8002e00:	4bac      	ldr	r3, [pc, #688]	@ (80030b4 <HAL_RCC_OscConfig+0x340>)
 8002e02:	681a      	ldr	r2, [r3, #0]
 8002e04:	4bab      	ldr	r3, [pc, #684]	@ (80030b4 <HAL_RCC_OscConfig+0x340>)
 8002e06:	49ad      	ldr	r1, [pc, #692]	@ (80030bc <HAL_RCC_OscConfig+0x348>)
 8002e08:	400a      	ands	r2, r1
 8002e0a:	601a      	str	r2, [r3, #0]

      /* Check the HSE State */
      if (RCC_OscInitStruct->HSEState != RCC_HSE_OFF)
 8002e0c:	687b      	ldr	r3, [r7, #4]
 8002e0e:	685b      	ldr	r3, [r3, #4]
 8002e10:	2b00      	cmp	r3, #0
 8002e12:	d014      	beq.n	8002e3e <HAL_RCC_OscConfig+0xca>
      {
        /* Get Start Tick*/
        tickstart = HAL_GetTick();
 8002e14:	f7ff f89e 	bl	8001f54 <HAL_GetTick>
 8002e18:	0003      	movs	r3, r0
 8002e1a:	613b      	str	r3, [r7, #16]

        /* Wait till HSE is ready */
        while (READ_BIT(RCC->CR, RCC_CR_HSERDY) == 0U)
 8002e1c:	e008      	b.n	8002e30 <HAL_RCC_OscConfig+0xbc>
        {
          if ((HAL_GetTick() - tickstart) > RCC_HSE_TIMEOUT_VALUE)
 8002e1e:	f7ff f899 	bl	8001f54 <HAL_GetTick>
 8002e22:	0002      	movs	r2, r0
 8002e24:	693b      	ldr	r3, [r7, #16]
 8002e26:	1ad3      	subs	r3, r2, r3
 8002e28:	2b64      	cmp	r3, #100	@ 0x64
 8002e2a:	d901      	bls.n	8002e30 <HAL_RCC_OscConfig+0xbc>
          {
            return HAL_TIMEOUT;
 8002e2c:	2303      	movs	r3, #3
 8002e2e:	e17b      	b.n	8003128 <HAL_RCC_OscConfig+0x3b4>
        while (READ_BIT(RCC->CR, RCC_CR_HSERDY) == 0U)
 8002e30:	4ba0      	ldr	r3, [pc, #640]	@ (80030b4 <HAL_RCC_OscConfig+0x340>)
 8002e32:	681a      	ldr	r2, [r3, #0]
 8002e34:	2380      	movs	r3, #128	@ 0x80
 8002e36:	029b      	lsls	r3, r3, #10
 8002e38:	4013      	ands	r3, r2
 8002e3a:	d0f0      	beq.n	8002e1e <HAL_RCC_OscConfig+0xaa>
 8002e3c:	e013      	b.n	8002e66 <HAL_RCC_OscConfig+0xf2>
        }
      }
      else
      {
        /* Get Start Tick*/
        tickstart = HAL_GetTick();
 8002e3e:	f7ff f889 	bl	8001f54 <HAL_GetTick>
 8002e42:	0003      	movs	r3, r0
 8002e44:	613b      	str	r3, [r7, #16]

        /* Wait till HSE is disabled */
        while (READ_BIT(RCC->CR, RCC_CR_HSERDY) != 0U)
 8002e46:	e008      	b.n	8002e5a <HAL_RCC_OscConfig+0xe6>
        {
          if ((HAL_GetTick() - tickstart) > RCC_HSE_TIMEOUT_VALUE)
 8002e48:	f7ff f884 	bl	8001f54 <HAL_GetTick>
 8002e4c:	0002      	movs	r2, r0
 8002e4e:	693b      	ldr	r3, [r7, #16]
 8002e50:	1ad3      	subs	r3, r2, r3
 8002e52:	2b64      	cmp	r3, #100	@ 0x64
 8002e54:	d901      	bls.n	8002e5a <HAL_RCC_OscConfig+0xe6>
          {
            return HAL_TIMEOUT;
 8002e56:	2303      	movs	r3, #3
 8002e58:	e166      	b.n	8003128 <HAL_RCC_OscConfig+0x3b4>
        while (READ_BIT(RCC->CR, RCC_CR_HSERDY) != 0U)
 8002e5a:	4b96      	ldr	r3, [pc, #600]	@ (80030b4 <HAL_RCC_OscConfig+0x340>)
 8002e5c:	681a      	ldr	r2, [r3, #0]
 8002e5e:	2380      	movs	r3, #128	@ 0x80
 8002e60:	029b      	lsls	r3, r3, #10
 8002e62:	4013      	ands	r3, r2
 8002e64:	d1f0      	bne.n	8002e48 <HAL_RCC_OscConfig+0xd4>
        }
      }
    }
  }
  /*----------------------------- HSI Configuration --------------------------*/
  if (((RCC_OscInitStruct->OscillatorType) & RCC_OSCILLATORTYPE_HSI) == RCC_OSCILLATORTYPE_HSI)
 8002e66:	687b      	ldr	r3, [r7, #4]
 8002e68:	681b      	ldr	r3, [r3, #0]
 8002e6a:	2202      	movs	r2, #2
 8002e6c:	4013      	ands	r3, r2
 8002e6e:	d100      	bne.n	8002e72 <HAL_RCC_OscConfig+0xfe>
 8002e70:	e086      	b.n	8002f80 <HAL_RCC_OscConfig+0x20c>
    assert_param(IS_RCC_HSI(RCC_OscInitStruct->HSIState));
    assert_param(IS_RCC_HSI_CALIBRATION_VALUE(RCC_OscInitStruct->HSICalibrationValue));
    assert_param(IS_RCC_HSIDIV(RCC_OscInitStruct->HSIDiv));

    /* Check if HSI48 is used as system clock  */
    temp_sysclksrc = __HAL_RCC_GET_SYSCLK_SOURCE();
 8002e72:	4b90      	ldr	r3, [pc, #576]	@ (80030b4 <HAL_RCC_OscConfig+0x340>)
 8002e74:	689b      	ldr	r3, [r3, #8]
 8002e76:	2238      	movs	r2, #56	@ 0x38
 8002e78:	4013      	ands	r3, r2
 8002e7a:	617b      	str	r3, [r7, #20]

    if (temp_sysclksrc == RCC_CFGR_SWS_HSI)
 8002e7c:	697b      	ldr	r3, [r7, #20]
 8002e7e:	2b00      	cmp	r3, #0
 8002e80:	d12f      	bne.n	8002ee2 <HAL_RCC_OscConfig+0x16e>
    {
      /* When HSI is used as system clock it can not be disabled */
      if (RCC_OscInitStruct->HSIState == RCC_HSI_OFF)
 8002e82:	687b      	ldr	r3, [r7, #4]
 8002e84:	68db      	ldr	r3, [r3, #12]
 8002e86:	2b00      	cmp	r3, #0
 8002e88:	d101      	bne.n	8002e8e <HAL_RCC_OscConfig+0x11a>
      {
        return HAL_ERROR;
 8002e8a:	2301      	movs	r3, #1
 8002e8c:	e14c      	b.n	8003128 <HAL_RCC_OscConfig+0x3b4>
      }
      /* Otherwise, just the calibration is allowed */
      else
      {
        /* Adjusts the Internal High Speed oscillator (HSI) calibration value.*/
        __HAL_RCC_HSI_CALIBRATIONVALUE_ADJUST(RCC_OscInitStruct->HSICalibrationValue);
 8002e8e:	4b89      	ldr	r3, [pc, #548]	@ (80030b4 <HAL_RCC_OscConfig+0x340>)
 8002e90:	685b      	ldr	r3, [r3, #4]
 8002e92:	4a8b      	ldr	r2, [pc, #556]	@ (80030c0 <HAL_RCC_OscConfig+0x34c>)
 8002e94:	4013      	ands	r3, r2
 8002e96:	0019      	movs	r1, r3
 8002e98:	687b      	ldr	r3, [r7, #4]
 8002e9a:	695b      	ldr	r3, [r3, #20]
 8002e9c:	021a      	lsls	r2, r3, #8
 8002e9e:	4b85      	ldr	r3, [pc, #532]	@ (80030b4 <HAL_RCC_OscConfig+0x340>)
 8002ea0:	430a      	orrs	r2, r1
 8002ea2:	605a      	str	r2, [r3, #4]

        if (temp_sysclksrc == RCC_CFGR_SWS_HSI)
 8002ea4:	697b      	ldr	r3, [r7, #20]
 8002ea6:	2b00      	cmp	r3, #0
 8002ea8:	d112      	bne.n	8002ed0 <HAL_RCC_OscConfig+0x15c>
        {
          /* Adjust the HSI48 division factor */
          __HAL_RCC_HSI_CONFIG(RCC_OscInitStruct->HSIDiv);
 8002eaa:	4b82      	ldr	r3, [pc, #520]	@ (80030b4 <HAL_RCC_OscConfig+0x340>)
 8002eac:	681b      	ldr	r3, [r3, #0]
 8002eae:	4a85      	ldr	r2, [pc, #532]	@ (80030c4 <HAL_RCC_OscConfig+0x350>)
 8002eb0:	4013      	ands	r3, r2
 8002eb2:	0019      	movs	r1, r3
 8002eb4:	687b      	ldr	r3, [r7, #4]
 8002eb6:	691a      	ldr	r2, [r3, #16]
 8002eb8:	4b7e      	ldr	r3, [pc, #504]	@ (80030b4 <HAL_RCC_OscConfig+0x340>)
 8002eba:	430a      	orrs	r2, r1
 8002ebc:	601a      	str	r2, [r3, #0]

          /* Update the SystemCoreClock global variable with HSISYS value  */
          SystemCoreClock = (HSI_VALUE / (1UL << ((READ_BIT(RCC->CR, RCC_CR_HSIDIV)) >> RCC_CR_HSIDIV_Pos)));
 8002ebe:	4b7d      	ldr	r3, [pc, #500]	@ (80030b4 <HAL_RCC_OscConfig+0x340>)
 8002ec0:	681b      	ldr	r3, [r3, #0]
 8002ec2:	0adb      	lsrs	r3, r3, #11
 8002ec4:	2207      	movs	r2, #7
 8002ec6:	4013      	ands	r3, r2
 8002ec8:	4a7f      	ldr	r2, [pc, #508]	@ (80030c8 <HAL_RCC_OscConfig+0x354>)
 8002eca:	40da      	lsrs	r2, r3
 8002ecc:	4b7f      	ldr	r3, [pc, #508]	@ (80030cc <HAL_RCC_OscConfig+0x358>)
 8002ece:	601a      	str	r2, [r3, #0]
        }

        /* Adapt Systick interrupt period */
        if (HAL_InitTick(uwTickPrio) != HAL_OK)
 8002ed0:	4b7f      	ldr	r3, [pc, #508]	@ (80030d0 <HAL_RCC_OscConfig+0x35c>)
 8002ed2:	681b      	ldr	r3, [r3, #0]
 8002ed4:	0018      	movs	r0, r3
 8002ed6:	f7fe ffe1 	bl	8001e9c <HAL_InitTick>
 8002eda:	1e03      	subs	r3, r0, #0
 8002edc:	d050      	beq.n	8002f80 <HAL_RCC_OscConfig+0x20c>
        {
          return HAL_ERROR;
 8002ede:	2301      	movs	r3, #1
 8002ee0:	e122      	b.n	8003128 <HAL_RCC_OscConfig+0x3b4>
      }
    }
    else
    {
      /* Check the HSI State */
      if (RCC_OscInitStruct->HSIState != RCC_HSI_OFF)
 8002ee2:	687b      	ldr	r3, [r7, #4]
 8002ee4:	68db      	ldr	r3, [r3, #12]
 8002ee6:	2b00      	cmp	r3, #0
 8002ee8:	d030      	beq.n	8002f4c <HAL_RCC_OscConfig+0x1d8>
      {
        /* Configure the HSI48 division factor */
        __HAL_RCC_HSI_CONFIG(RCC_OscInitStruct->HSIDiv);
 8002eea:	4b72      	ldr	r3, [pc, #456]	@ (80030b4 <HAL_RCC_OscConfig+0x340>)
 8002eec:	681b      	ldr	r3, [r3, #0]
 8002eee:	4a75      	ldr	r2, [pc, #468]	@ (80030c4 <HAL_RCC_OscConfig+0x350>)
 8002ef0:	4013      	ands	r3, r2
 8002ef2:	0019      	movs	r1, r3
 8002ef4:	687b      	ldr	r3, [r7, #4]
 8002ef6:	691a      	ldr	r2, [r3, #16]
 8002ef8:	4b6e      	ldr	r3, [pc, #440]	@ (80030b4 <HAL_RCC_OscConfig+0x340>)
 8002efa:	430a      	orrs	r2, r1
 8002efc:	601a      	str	r2, [r3, #0]

        /* Enable the Internal High Speed oscillator (HSI48). */
        __HAL_RCC_HSI_ENABLE();
 8002efe:	4b6d      	ldr	r3, [pc, #436]	@ (80030b4 <HAL_RCC_OscConfig+0x340>)
 8002f00:	681a      	ldr	r2, [r3, #0]
 8002f02:	4b6c      	ldr	r3, [pc, #432]	@ (80030b4 <HAL_RCC_OscConfig+0x340>)
 8002f04:	2180      	movs	r1, #128	@ 0x80
 8002f06:	0049      	lsls	r1, r1, #1
 8002f08:	430a      	orrs	r2, r1
 8002f0a:	601a      	str	r2, [r3, #0]

        /* Get Start Tick*/
        tickstart = HAL_GetTick();
 8002f0c:	f7ff f822 	bl	8001f54 <HAL_GetTick>
 8002f10:	0003      	movs	r3, r0
 8002f12:	613b      	str	r3, [r7, #16]

        /* Wait till HSI is ready */
        while (READ_BIT(RCC->CR, RCC_CR_HSIRDY) == 0U)
 8002f14:	e008      	b.n	8002f28 <HAL_RCC_OscConfig+0x1b4>
        {
          if ((HAL_GetTick() - tickstart) > RCC_HSI_TIMEOUT_VALUE)
 8002f16:	f7ff f81d 	bl	8001f54 <HAL_GetTick>
 8002f1a:	0002      	movs	r2, r0
 8002f1c:	693b      	ldr	r3, [r7, #16]
 8002f1e:	1ad3      	subs	r3, r2, r3
 8002f20:	2b02      	cmp	r3, #2
 8002f22:	d901      	bls.n	8002f28 <HAL_RCC_OscConfig+0x1b4>
          {
            return HAL_TIMEOUT;
 8002f24:	2303      	movs	r3, #3
 8002f26:	e0ff      	b.n	8003128 <HAL_RCC_OscConfig+0x3b4>
        while (READ_BIT(RCC->CR, RCC_CR_HSIRDY) == 0U)
 8002f28:	4b62      	ldr	r3, [pc, #392]	@ (80030b4 <HAL_RCC_OscConfig+0x340>)
 8002f2a:	681a      	ldr	r2, [r3, #0]
 8002f2c:	2380      	movs	r3, #128	@ 0x80
 8002f2e:	00db      	lsls	r3, r3, #3
 8002f30:	4013      	ands	r3, r2
 8002f32:	d0f0      	beq.n	8002f16 <HAL_RCC_OscConfig+0x1a2>
          }
        }

        /* Adjusts the Internal High Speed oscillator (HSI) calibration value.*/
        __HAL_RCC_HSI_CALIBRATIONVALUE_ADJUST(RCC_OscInitStruct->HSICalibrationValue);
 8002f34:	4b5f      	ldr	r3, [pc, #380]	@ (80030b4 <HAL_RCC_OscConfig+0x340>)
 8002f36:	685b      	ldr	r3, [r3, #4]
 8002f38:	4a61      	ldr	r2, [pc, #388]	@ (80030c0 <HAL_RCC_OscConfig+0x34c>)
 8002f3a:	4013      	ands	r3, r2
 8002f3c:	0019      	movs	r1, r3
 8002f3e:	687b      	ldr	r3, [r7, #4]
 8002f40:	695b      	ldr	r3, [r3, #20]
 8002f42:	021a      	lsls	r2, r3, #8
 8002f44:	4b5b      	ldr	r3, [pc, #364]	@ (80030b4 <HAL_RCC_OscConfig+0x340>)
 8002f46:	430a      	orrs	r2, r1
 8002f48:	605a      	str	r2, [r3, #4]
 8002f4a:	e019      	b.n	8002f80 <HAL_RCC_OscConfig+0x20c>
      }
      else
      {
        /* Disable the Internal High Speed oscillator (HSI48). */
        __HAL_RCC_HSI_DISABLE();
 8002f4c:	4b59      	ldr	r3, [pc, #356]	@ (80030b4 <HAL_RCC_OscConfig+0x340>)
 8002f4e:	681a      	ldr	r2, [r3, #0]
 8002f50:	4b58      	ldr	r3, [pc, #352]	@ (80030b4 <HAL_RCC_OscConfig+0x340>)
 8002f52:	4960      	ldr	r1, [pc, #384]	@ (80030d4 <HAL_RCC_OscConfig+0x360>)
 8002f54:	400a      	ands	r2, r1
 8002f56:	601a      	str	r2, [r3, #0]

        /* Get Start Tick*/
        tickstart = HAL_GetTick();
 8002f58:	f7fe fffc 	bl	8001f54 <HAL_GetTick>
 8002f5c:	0003      	movs	r3, r0
 8002f5e:	613b      	str	r3, [r7, #16]

        /* Wait till HSI is disabled */
        while (READ_BIT(RCC->CR, RCC_CR_HSIRDY) != 0U)
 8002f60:	e008      	b.n	8002f74 <HAL_RCC_OscConfig+0x200>
        {
          if ((HAL_GetTick() - tickstart) > RCC_HSI_TIMEOUT_VALUE)
 8002f62:	f7fe fff7 	bl	8001f54 <HAL_GetTick>
 8002f66:	0002      	movs	r2, r0
 8002f68:	693b      	ldr	r3, [r7, #16]
 8002f6a:	1ad3      	subs	r3, r2, r3
 8002f6c:	2b02      	cmp	r3, #2
 8002f6e:	d901      	bls.n	8002f74 <HAL_RCC_OscConfig+0x200>
          {
            return HAL_TIMEOUT;
 8002f70:	2303      	movs	r3, #3
 8002f72:	e0d9      	b.n	8003128 <HAL_RCC_OscConfig+0x3b4>
        while (READ_BIT(RCC->CR, RCC_CR_HSIRDY) != 0U)
 8002f74:	4b4f      	ldr	r3, [pc, #316]	@ (80030b4 <HAL_RCC_OscConfig+0x340>)
 8002f76:	681a      	ldr	r2, [r3, #0]
 8002f78:	2380      	movs	r3, #128	@ 0x80
 8002f7a:	00db      	lsls	r3, r3, #3
 8002f7c:	4013      	ands	r3, r2
 8002f7e:	d1f0      	bne.n	8002f62 <HAL_RCC_OscConfig+0x1ee>
        }
      }
    }
  }
  /*------------------------------ LSI Configuration -------------------------*/
  if (((RCC_OscInitStruct->OscillatorType) & RCC_OSCILLATORTYPE_LSI) == RCC_OSCILLATORTYPE_LSI)
 8002f80:	687b      	ldr	r3, [r7, #4]
 8002f82:	681b      	ldr	r3, [r3, #0]
 8002f84:	2208      	movs	r2, #8
 8002f86:	4013      	ands	r3, r2
 8002f88:	d042      	beq.n	8003010 <HAL_RCC_OscConfig+0x29c>
  {
    /* Check the parameters */
    assert_param(IS_RCC_LSI(RCC_OscInitStruct->LSIState));

    /* Check if LSI is used as system clock */
    if (__HAL_RCC_GET_SYSCLK_SOURCE() == RCC_CFGR_SWS_LSI)
 8002f8a:	4b4a      	ldr	r3, [pc, #296]	@ (80030b4 <HAL_RCC_OscConfig+0x340>)
 8002f8c:	689b      	ldr	r3, [r3, #8]
 8002f8e:	2238      	movs	r2, #56	@ 0x38
 8002f90:	4013      	ands	r3, r2
 8002f92:	2b18      	cmp	r3, #24
 8002f94:	d105      	bne.n	8002fa2 <HAL_RCC_OscConfig+0x22e>
    {
      /* When LSI is used as system clock it will not be disabled */
      if (RCC_OscInitStruct->LSIState == RCC_LSI_OFF)
 8002f96:	687b      	ldr	r3, [r7, #4]
 8002f98:	699b      	ldr	r3, [r3, #24]
 8002f9a:	2b00      	cmp	r3, #0
 8002f9c:	d138      	bne.n	8003010 <HAL_RCC_OscConfig+0x29c>
      {
        return HAL_ERROR;
 8002f9e:	2301      	movs	r3, #1
 8002fa0:	e0c2      	b.n	8003128 <HAL_RCC_OscConfig+0x3b4>
      }
    }
    else
    {
      /* Check the LSI State */
      if (RCC_OscInitStruct->LSIState != RCC_LSI_OFF)
 8002fa2:	687b      	ldr	r3, [r7, #4]
 8002fa4:	699b      	ldr	r3, [r3, #24]
 8002fa6:	2b00      	cmp	r3, #0
 8002fa8:	d019      	beq.n	8002fde <HAL_RCC_OscConfig+0x26a>
      {
        /* Enable the Internal Low Speed oscillator (LSI). */
        __HAL_RCC_LSI_ENABLE();
 8002faa:	4b42      	ldr	r3, [pc, #264]	@ (80030b4 <HAL_RCC_OscConfig+0x340>)
 8002fac:	6e1a      	ldr	r2, [r3, #96]	@ 0x60
 8002fae:	4b41      	ldr	r3, [pc, #260]	@ (80030b4 <HAL_RCC_OscConfig+0x340>)
 8002fb0:	2101      	movs	r1, #1
 8002fb2:	430a      	orrs	r2, r1
 8002fb4:	661a      	str	r2, [r3, #96]	@ 0x60

        /* Get Start Tick*/
        tickstart = HAL_GetTick();
 8002fb6:	f7fe ffcd 	bl	8001f54 <HAL_GetTick>
 8002fba:	0003      	movs	r3, r0
 8002fbc:	613b      	str	r3, [r7, #16]

        /* Wait till LSI is ready */
        while (READ_BIT(RCC->CSR2, RCC_CSR2_LSIRDY) == 0U)
 8002fbe:	e008      	b.n	8002fd2 <HAL_RCC_OscConfig+0x25e>
        {
          if ((HAL_GetTick() - tickstart) > RCC_LSI_TIMEOUT_VALUE)
 8002fc0:	f7fe ffc8 	bl	8001f54 <HAL_GetTick>
 8002fc4:	0002      	movs	r2, r0
 8002fc6:	693b      	ldr	r3, [r7, #16]
 8002fc8:	1ad3      	subs	r3, r2, r3
 8002fca:	2b02      	cmp	r3, #2
 8002fcc:	d901      	bls.n	8002fd2 <HAL_RCC_OscConfig+0x25e>
          {
            return HAL_TIMEOUT;
 8002fce:	2303      	movs	r3, #3
 8002fd0:	e0aa      	b.n	8003128 <HAL_RCC_OscConfig+0x3b4>
        while (READ_BIT(RCC->CSR2, RCC_CSR2_LSIRDY) == 0U)
 8002fd2:	4b38      	ldr	r3, [pc, #224]	@ (80030b4 <HAL_RCC_OscConfig+0x340>)
 8002fd4:	6e1b      	ldr	r3, [r3, #96]	@ 0x60
 8002fd6:	2202      	movs	r2, #2
 8002fd8:	4013      	ands	r3, r2
 8002fda:	d0f1      	beq.n	8002fc0 <HAL_RCC_OscConfig+0x24c>
 8002fdc:	e018      	b.n	8003010 <HAL_RCC_OscConfig+0x29c>
        }
      }
      else
      {
        /* Disable the Internal Low Speed oscillator (LSI). */
        __HAL_RCC_LSI_DISABLE();
 8002fde:	4b35      	ldr	r3, [pc, #212]	@ (80030b4 <HAL_RCC_OscConfig+0x340>)
 8002fe0:	6e1a      	ldr	r2, [r3, #96]	@ 0x60
 8002fe2:	4b34      	ldr	r3, [pc, #208]	@ (80030b4 <HAL_RCC_OscConfig+0x340>)
 8002fe4:	2101      	movs	r1, #1
 8002fe6:	438a      	bics	r2, r1
 8002fe8:	661a      	str	r2, [r3, #96]	@ 0x60

        /* Get Start Tick*/
        tickstart = HAL_GetTick();
 8002fea:	f7fe ffb3 	bl	8001f54 <HAL_GetTick>
 8002fee:	0003      	movs	r3, r0
 8002ff0:	613b      	str	r3, [r7, #16]

        /* Wait till LSI is disabled */
        while (READ_BIT(RCC->CSR2, RCC_CSR2_LSIRDY) != 0U)
 8002ff2:	e008      	b.n	8003006 <HAL_RCC_OscConfig+0x292>
        {
          if ((HAL_GetTick() - tickstart) > RCC_LSI_TIMEOUT_VALUE)
 8002ff4:	f7fe ffae 	bl	8001f54 <HAL_GetTick>
 8002ff8:	0002      	movs	r2, r0
 8002ffa:	693b      	ldr	r3, [r7, #16]
 8002ffc:	1ad3      	subs	r3, r2, r3
 8002ffe:	2b02      	cmp	r3, #2
 8003000:	d901      	bls.n	8003006 <HAL_RCC_OscConfig+0x292>
          {
            return HAL_TIMEOUT;
 8003002:	2303      	movs	r3, #3
 8003004:	e090      	b.n	8003128 <HAL_RCC_OscConfig+0x3b4>
        while (READ_BIT(RCC->CSR2, RCC_CSR2_LSIRDY) != 0U)
 8003006:	4b2b      	ldr	r3, [pc, #172]	@ (80030b4 <HAL_RCC_OscConfig+0x340>)
 8003008:	6e1b      	ldr	r3, [r3, #96]	@ 0x60
 800300a:	2202      	movs	r2, #2
 800300c:	4013      	ands	r3, r2
 800300e:	d1f1      	bne.n	8002ff4 <HAL_RCC_OscConfig+0x280>
        }
      }
    }
  }
  /*------------------------------ LSE Configuration -------------------------*/
  if (((RCC_OscInitStruct->OscillatorType) & RCC_OSCILLATORTYPE_LSE) == RCC_OSCILLATORTYPE_LSE)
 8003010:	687b      	ldr	r3, [r7, #4]
 8003012:	681b      	ldr	r3, [r3, #0]
 8003014:	2204      	movs	r2, #4
 8003016:	4013      	ands	r3, r2
 8003018:	d100      	bne.n	800301c <HAL_RCC_OscConfig+0x2a8>
 800301a:	e084      	b.n	8003126 <HAL_RCC_OscConfig+0x3b2>
  {
    FlagStatus       pwrclkchanged = RESET;
 800301c:	230f      	movs	r3, #15
 800301e:	18fb      	adds	r3, r7, r3
 8003020:	2200      	movs	r2, #0
 8003022:	701a      	strb	r2, [r3, #0]

    /* Check the parameters */
    assert_param(IS_RCC_LSE(RCC_OscInitStruct->LSEState));

    /* When the LSE is used as system clock, it is not allowed disable it */
    if (__HAL_RCC_GET_SYSCLK_SOURCE() == RCC_CFGR_SWS_LSE)
 8003024:	4b23      	ldr	r3, [pc, #140]	@ (80030b4 <HAL_RCC_OscConfig+0x340>)
 8003026:	689b      	ldr	r3, [r3, #8]
 8003028:	2238      	movs	r2, #56	@ 0x38
 800302a:	4013      	ands	r3, r2
 800302c:	2b20      	cmp	r3, #32
 800302e:	d106      	bne.n	800303e <HAL_RCC_OscConfig+0x2ca>
    {
      if (RCC_OscInitStruct->LSEState == RCC_LSE_OFF)
 8003030:	687b      	ldr	r3, [r7, #4]
 8003032:	689b      	ldr	r3, [r3, #8]
 8003034:	2b00      	cmp	r3, #0
 8003036:	d000      	beq.n	800303a <HAL_RCC_OscConfig+0x2c6>
 8003038:	e075      	b.n	8003126 <HAL_RCC_OscConfig+0x3b2>
      {
        return HAL_ERROR;
 800303a:	2301      	movs	r3, #1
 800303c:	e074      	b.n	8003128 <HAL_RCC_OscConfig+0x3b4>
    }
    else
    {
      /* Update LSE configuration in RTC Domain control register    */
      /* Set the new LSE configuration -----------------------------------------*/
      __HAL_RCC_LSE_CONFIG(RCC_OscInitStruct->LSEState);
 800303e:	687b      	ldr	r3, [r7, #4]
 8003040:	689b      	ldr	r3, [r3, #8]
 8003042:	2b01      	cmp	r3, #1
 8003044:	d106      	bne.n	8003054 <HAL_RCC_OscConfig+0x2e0>
 8003046:	4b1b      	ldr	r3, [pc, #108]	@ (80030b4 <HAL_RCC_OscConfig+0x340>)
 8003048:	6dda      	ldr	r2, [r3, #92]	@ 0x5c
 800304a:	4b1a      	ldr	r3, [pc, #104]	@ (80030b4 <HAL_RCC_OscConfig+0x340>)
 800304c:	2101      	movs	r1, #1
 800304e:	430a      	orrs	r2, r1
 8003050:	65da      	str	r2, [r3, #92]	@ 0x5c
 8003052:	e01c      	b.n	800308e <HAL_RCC_OscConfig+0x31a>
 8003054:	687b      	ldr	r3, [r7, #4]
 8003056:	689b      	ldr	r3, [r3, #8]
 8003058:	2b05      	cmp	r3, #5
 800305a:	d10c      	bne.n	8003076 <HAL_RCC_OscConfig+0x302>
 800305c:	4b15      	ldr	r3, [pc, #84]	@ (80030b4 <HAL_RCC_OscConfig+0x340>)
 800305e:	6dda      	ldr	r2, [r3, #92]	@ 0x5c
 8003060:	4b14      	ldr	r3, [pc, #80]	@ (80030b4 <HAL_RCC_OscConfig+0x340>)
 8003062:	2104      	movs	r1, #4
 8003064:	430a      	orrs	r2, r1
 8003066:	65da      	str	r2, [r3, #92]	@ 0x5c
 8003068:	4b12      	ldr	r3, [pc, #72]	@ (80030b4 <HAL_RCC_OscConfig+0x340>)
 800306a:	6dda      	ldr	r2, [r3, #92]	@ 0x5c
 800306c:	4b11      	ldr	r3, [pc, #68]	@ (80030b4 <HAL_RCC_OscConfig+0x340>)
 800306e:	2101      	movs	r1, #1
 8003070:	430a      	orrs	r2, r1
 8003072:	65da      	str	r2, [r3, #92]	@ 0x5c
 8003074:	e00b      	b.n	800308e <HAL_RCC_OscConfig+0x31a>
 8003076:	4b0f      	ldr	r3, [pc, #60]	@ (80030b4 <HAL_RCC_OscConfig+0x340>)
 8003078:	6dda      	ldr	r2, [r3, #92]	@ 0x5c
 800307a:	4b0e      	ldr	r3, [pc, #56]	@ (80030b4 <HAL_RCC_OscConfig+0x340>)
 800307c:	2101      	movs	r1, #1
 800307e:	438a      	bics	r2, r1
 8003080:	65da      	str	r2, [r3, #92]	@ 0x5c
 8003082:	4b0c      	ldr	r3, [pc, #48]	@ (80030b4 <HAL_RCC_OscConfig+0x340>)
 8003084:	6dda      	ldr	r2, [r3, #92]	@ 0x5c
 8003086:	4b0b      	ldr	r3, [pc, #44]	@ (80030b4 <HAL_RCC_OscConfig+0x340>)
 8003088:	2104      	movs	r1, #4
 800308a:	438a      	bics	r2, r1
 800308c:	65da      	str	r2, [r3, #92]	@ 0x5c

      /* Check the LSE State */
      if (RCC_OscInitStruct->LSEState != RCC_LSE_OFF)
 800308e:	687b      	ldr	r3, [r7, #4]
 8003090:	689b      	ldr	r3, [r3, #8]
 8003092:	2b00      	cmp	r3, #0
 8003094:	d028      	beq.n	80030e8 <HAL_RCC_OscConfig+0x374>
      {
        /* Get Start Tick*/
        tickstart = HAL_GetTick();
 8003096:	f7fe ff5d 	bl	8001f54 <HAL_GetTick>
 800309a:	0003      	movs	r3, r0
 800309c:	613b      	str	r3, [r7, #16]

        /* Wait till LSE is ready */
        while (READ_BIT(RCC->CSR1, RCC_CSR1_LSERDY) == 0U)
 800309e:	e01d      	b.n	80030dc <HAL_RCC_OscConfig+0x368>
        {
          if ((HAL_GetTick() - tickstart) > RCC_LSE_TIMEOUT_VALUE)
 80030a0:	f7fe ff58 	bl	8001f54 <HAL_GetTick>
 80030a4:	0002      	movs	r2, r0
 80030a6:	693b      	ldr	r3, [r7, #16]
 80030a8:	1ad3      	subs	r3, r2, r3
 80030aa:	4a0b      	ldr	r2, [pc, #44]	@ (80030d8 <HAL_RCC_OscConfig+0x364>)
 80030ac:	4293      	cmp	r3, r2
 80030ae:	d915      	bls.n	80030dc <HAL_RCC_OscConfig+0x368>
          {
            return HAL_TIMEOUT;
 80030b0:	2303      	movs	r3, #3
 80030b2:	e039      	b.n	8003128 <HAL_RCC_OscConfig+0x3b4>
 80030b4:	40021000 	.word	0x40021000
 80030b8:	fffeffff 	.word	0xfffeffff
 80030bc:	fffbffff 	.word	0xfffbffff
 80030c0:	ffff80ff 	.word	0xffff80ff
 80030c4:	ffffc7ff 	.word	0xffffc7ff
 80030c8:	02dc6c00 	.word	0x02dc6c00
 80030cc:	2000000c 	.word	0x2000000c
 80030d0:	20000010 	.word	0x20000010
 80030d4:	fffffeff 	.word	0xfffffeff
 80030d8:	00001388 	.word	0x00001388
        while (READ_BIT(RCC->CSR1, RCC_CSR1_LSERDY) == 0U)
 80030dc:	4b14      	ldr	r3, [pc, #80]	@ (8003130 <HAL_RCC_OscConfig+0x3bc>)
 80030de:	6ddb      	ldr	r3, [r3, #92]	@ 0x5c
 80030e0:	2202      	movs	r2, #2
 80030e2:	4013      	ands	r3, r2
 80030e4:	d0dc      	beq.n	80030a0 <HAL_RCC_OscConfig+0x32c>
 80030e6:	e013      	b.n	8003110 <HAL_RCC_OscConfig+0x39c>
        }
      }
      else
      {
        /* Get Start Tick*/
        tickstart = HAL_GetTick();
 80030e8:	f7fe ff34 	bl	8001f54 <HAL_GetTick>
 80030ec:	0003      	movs	r3, r0
 80030ee:	613b      	str	r3, [r7, #16]

        /* Wait till LSE is disabled */
        while (READ_BIT(RCC->CSR1, RCC_CSR1_LSERDY) != 0U)
 80030f0:	e009      	b.n	8003106 <HAL_RCC_OscConfig+0x392>
        {
          if ((HAL_GetTick() - tickstart) > RCC_LSE_TIMEOUT_VALUE)
 80030f2:	f7fe ff2f 	bl	8001f54 <HAL_GetTick>
 80030f6:	0002      	movs	r2, r0
 80030f8:	693b      	ldr	r3, [r7, #16]
 80030fa:	1ad3      	subs	r3, r2, r3
 80030fc:	4a0d      	ldr	r2, [pc, #52]	@ (8003134 <HAL_RCC_OscConfig+0x3c0>)
 80030fe:	4293      	cmp	r3, r2
 8003100:	d901      	bls.n	8003106 <HAL_RCC_OscConfig+0x392>
          {
            return HAL_TIMEOUT;
 8003102:	2303      	movs	r3, #3
 8003104:	e010      	b.n	8003128 <HAL_RCC_OscConfig+0x3b4>
        while (READ_BIT(RCC->CSR1, RCC_CSR1_LSERDY) != 0U)
 8003106:	4b0a      	ldr	r3, [pc, #40]	@ (8003130 <HAL_RCC_OscConfig+0x3bc>)
 8003108:	6ddb      	ldr	r3, [r3, #92]	@ 0x5c
 800310a:	2202      	movs	r2, #2
 800310c:	4013      	ands	r3, r2
 800310e:	d1f0      	bne.n	80030f2 <HAL_RCC_OscConfig+0x37e>
          }
        }
      }

      /* Restore clock configuration if changed */
      if (pwrclkchanged == SET)
 8003110:	230f      	movs	r3, #15
 8003112:	18fb      	adds	r3, r7, r3
 8003114:	781b      	ldrb	r3, [r3, #0]
 8003116:	2b01      	cmp	r3, #1
 8003118:	d105      	bne.n	8003126 <HAL_RCC_OscConfig+0x3b2>
      {
        __HAL_RCC_PWR_CLK_DISABLE();
 800311a:	4b05      	ldr	r3, [pc, #20]	@ (8003130 <HAL_RCC_OscConfig+0x3bc>)
 800311c:	6bda      	ldr	r2, [r3, #60]	@ 0x3c
 800311e:	4b04      	ldr	r3, [pc, #16]	@ (8003130 <HAL_RCC_OscConfig+0x3bc>)
 8003120:	4905      	ldr	r1, [pc, #20]	@ (8003138 <HAL_RCC_OscConfig+0x3c4>)
 8003122:	400a      	ands	r2, r1
 8003124:	63da      	str	r2, [r3, #60]	@ 0x3c
        }
      }
    }
  }
#endif /* RCC_CR_HSIUSB48ON */
  return HAL_OK;
 8003126:	2300      	movs	r3, #0
}
 8003128:	0018      	movs	r0, r3
 800312a:	46bd      	mov	sp, r7
 800312c:	b006      	add	sp, #24
 800312e:	bd80      	pop	{r7, pc}
 8003130:	40021000 	.word	0x40021000
 8003134:	00001388 	.word	0x00001388
 8003138:	efffffff 	.word	0xefffffff

0800313c <HAL_RCC_ClockConfig>:
  *         HPRE[3:0] bits to ensure that HCLK not exceed the maximum allowed frequency
  *         (for more details refer to section above "Initialization/de-initialization functions")
  * @retval None
  */
HAL_StatusTypeDef HAL_RCC_ClockConfig(const RCC_ClkInitTypeDef  *RCC_ClkInitStruct, uint32_t FLatency)
{
 800313c:	b580      	push	{r7, lr}
 800313e:	b084      	sub	sp, #16
 8003140:	af00      	add	r7, sp, #0
 8003142:	6078      	str	r0, [r7, #4]
 8003144:	6039      	str	r1, [r7, #0]
  uint32_t tickstart;

  /* Check Null pointer */
  if (RCC_ClkInitStruct == NULL)
 8003146:	687b      	ldr	r3, [r7, #4]
 8003148:	2b00      	cmp	r3, #0
 800314a:	d101      	bne.n	8003150 <HAL_RCC_ClockConfig+0x14>
  {
    return HAL_ERROR;
 800314c:	2301      	movs	r3, #1
 800314e:	e0df      	b.n	8003310 <HAL_RCC_ClockConfig+0x1d4>
  /* To correctly read data from FLASH memory, the number of wait states (LATENCY)
    must be correctly programmed according to the frequency of the FLASH clock
    (HCLK) and the supply voltage of the device. */

  /* Increasing the number of wait states because of higher CPU frequency */
  if (FLatency > __HAL_FLASH_GET_LATENCY())
 8003150:	4b71      	ldr	r3, [pc, #452]	@ (8003318 <HAL_RCC_ClockConfig+0x1dc>)
 8003152:	681b      	ldr	r3, [r3, #0]
 8003154:	2207      	movs	r2, #7
 8003156:	4013      	ands	r3, r2
 8003158:	683a      	ldr	r2, [r7, #0]
 800315a:	429a      	cmp	r2, r3
 800315c:	d91e      	bls.n	800319c <HAL_RCC_ClockConfig+0x60>
  {
    /* Program the new number of wait states to the LATENCY bits in the FLASH_ACR register */
    __HAL_FLASH_SET_LATENCY(FLatency);
 800315e:	4b6e      	ldr	r3, [pc, #440]	@ (8003318 <HAL_RCC_ClockConfig+0x1dc>)
 8003160:	681b      	ldr	r3, [r3, #0]
 8003162:	2207      	movs	r2, #7
 8003164:	4393      	bics	r3, r2
 8003166:	0019      	movs	r1, r3
 8003168:	4b6b      	ldr	r3, [pc, #428]	@ (8003318 <HAL_RCC_ClockConfig+0x1dc>)
 800316a:	683a      	ldr	r2, [r7, #0]
 800316c:	430a      	orrs	r2, r1
 800316e:	601a      	str	r2, [r3, #0]

    /* Check that the new number of wait states is taken into account to access the Flash
    memory by polling the FLASH_ACR register */
    tickstart = HAL_GetTick();
 8003170:	f7fe fef0 	bl	8001f54 <HAL_GetTick>
 8003174:	0003      	movs	r3, r0
 8003176:	60fb      	str	r3, [r7, #12]

    while ((FLASH->ACR & FLASH_ACR_LATENCY) != FLatency)
 8003178:	e009      	b.n	800318e <HAL_RCC_ClockConfig+0x52>
    {
      if ((HAL_GetTick() - tickstart) > RCC_CLOCKSWITCH_TIMEOUT_VALUE)
 800317a:	f7fe feeb 	bl	8001f54 <HAL_GetTick>
 800317e:	0002      	movs	r2, r0
 8003180:	68fb      	ldr	r3, [r7, #12]
 8003182:	1ad3      	subs	r3, r2, r3
 8003184:	4a65      	ldr	r2, [pc, #404]	@ (800331c <HAL_RCC_ClockConfig+0x1e0>)
 8003186:	4293      	cmp	r3, r2
 8003188:	d901      	bls.n	800318e <HAL_RCC_ClockConfig+0x52>
      {
        return HAL_TIMEOUT;
 800318a:	2303      	movs	r3, #3
 800318c:	e0c0      	b.n	8003310 <HAL_RCC_ClockConfig+0x1d4>
    while ((FLASH->ACR & FLASH_ACR_LATENCY) != FLatency)
 800318e:	4b62      	ldr	r3, [pc, #392]	@ (8003318 <HAL_RCC_ClockConfig+0x1dc>)
 8003190:	681b      	ldr	r3, [r3, #0]
 8003192:	2207      	movs	r2, #7
 8003194:	4013      	ands	r3, r2
 8003196:	683a      	ldr	r2, [r7, #0]
 8003198:	429a      	cmp	r2, r3
 800319a:	d1ee      	bne.n	800317a <HAL_RCC_ClockConfig+0x3e>
      }
    }
  }

  /*-------------------------- HCLK Configuration --------------------------*/
  if (((RCC_ClkInitStruct->ClockType) & RCC_CLOCKTYPE_HCLK) == RCC_CLOCKTYPE_HCLK)
 800319c:	687b      	ldr	r3, [r7, #4]
 800319e:	681b      	ldr	r3, [r3, #0]
 80031a0:	2202      	movs	r2, #2
 80031a2:	4013      	ands	r3, r2
 80031a4:	d017      	beq.n	80031d6 <HAL_RCC_ClockConfig+0x9a>
  {
    /* Set the highest APB divider in order to ensure that we do not go through
       a non-spec phase whatever we decrease or increase HCLK. */
    if (((RCC_ClkInitStruct->ClockType) & RCC_CLOCKTYPE_PCLK1) == RCC_CLOCKTYPE_PCLK1)
 80031a6:	687b      	ldr	r3, [r7, #4]
 80031a8:	681b      	ldr	r3, [r3, #0]
 80031aa:	2204      	movs	r2, #4
 80031ac:	4013      	ands	r3, r2
 80031ae:	d008      	beq.n	80031c2 <HAL_RCC_ClockConfig+0x86>
    {
      MODIFY_REG(RCC->CFGR, RCC_CFGR_PPRE, RCC_HCLK_DIV16);
 80031b0:	4b5b      	ldr	r3, [pc, #364]	@ (8003320 <HAL_RCC_ClockConfig+0x1e4>)
 80031b2:	689b      	ldr	r3, [r3, #8]
 80031b4:	4a5b      	ldr	r2, [pc, #364]	@ (8003324 <HAL_RCC_ClockConfig+0x1e8>)
 80031b6:	401a      	ands	r2, r3
 80031b8:	4b59      	ldr	r3, [pc, #356]	@ (8003320 <HAL_RCC_ClockConfig+0x1e4>)
 80031ba:	21b0      	movs	r1, #176	@ 0xb0
 80031bc:	0109      	lsls	r1, r1, #4
 80031be:	430a      	orrs	r2, r1
 80031c0:	609a      	str	r2, [r3, #8]
    }

    /* Set the new HCLK clock divider */
    assert_param(IS_RCC_HCLK(RCC_ClkInitStruct->AHBCLKDivider));
    MODIFY_REG(RCC->CFGR, RCC_CFGR_HPRE, RCC_ClkInitStruct->AHBCLKDivider);
 80031c2:	4b57      	ldr	r3, [pc, #348]	@ (8003320 <HAL_RCC_ClockConfig+0x1e4>)
 80031c4:	689b      	ldr	r3, [r3, #8]
 80031c6:	4a58      	ldr	r2, [pc, #352]	@ (8003328 <HAL_RCC_ClockConfig+0x1ec>)
 80031c8:	4013      	ands	r3, r2
 80031ca:	0019      	movs	r1, r3
 80031cc:	687b      	ldr	r3, [r7, #4]
 80031ce:	68da      	ldr	r2, [r3, #12]
 80031d0:	4b53      	ldr	r3, [pc, #332]	@ (8003320 <HAL_RCC_ClockConfig+0x1e4>)
 80031d2:	430a      	orrs	r2, r1
 80031d4:	609a      	str	r2, [r3, #8]
  }

  /*------------------------- SYSCLK Configuration ---------------------------*/
  if (((RCC_ClkInitStruct->ClockType) & RCC_CLOCKTYPE_SYSCLK) == RCC_CLOCKTYPE_SYSCLK)
 80031d6:	687b      	ldr	r3, [r7, #4]
 80031d8:	681b      	ldr	r3, [r3, #0]
 80031da:	2201      	movs	r2, #1
 80031dc:	4013      	ands	r3, r2
 80031de:	d04b      	beq.n	8003278 <HAL_RCC_ClockConfig+0x13c>
#if defined(RCC_CR_SYSDIV)
    MODIFY_REG(RCC->CR, RCC_CR_SYSDIV, RCC_ClkInitStruct->SYSCLKDivider);
#endif /* RCC_CR_SYSDIV */

    /* HSE is selected as System Clock Source */
    if (RCC_ClkInitStruct->SYSCLKSource == RCC_SYSCLKSOURCE_HSE)
 80031e0:	687b      	ldr	r3, [r7, #4]
 80031e2:	685b      	ldr	r3, [r3, #4]
 80031e4:	2b01      	cmp	r3, #1
 80031e6:	d107      	bne.n	80031f8 <HAL_RCC_ClockConfig+0xbc>
    {
      /* Check the HSE ready flag */
      if (READ_BIT(RCC->CR, RCC_CR_HSERDY) == 0U)
 80031e8:	4b4d      	ldr	r3, [pc, #308]	@ (8003320 <HAL_RCC_ClockConfig+0x1e4>)
 80031ea:	681a      	ldr	r2, [r3, #0]
 80031ec:	2380      	movs	r3, #128	@ 0x80
 80031ee:	029b      	lsls	r3, r3, #10
 80031f0:	4013      	ands	r3, r2
 80031f2:	d11f      	bne.n	8003234 <HAL_RCC_ClockConfig+0xf8>
      {
        return HAL_ERROR;
 80031f4:	2301      	movs	r3, #1
 80031f6:	e08b      	b.n	8003310 <HAL_RCC_ClockConfig+0x1d4>
      }
    }
    /* HSI is selected as System Clock Source */
    else if (RCC_ClkInitStruct->SYSCLKSource == RCC_SYSCLKSOURCE_HSI)
 80031f8:	687b      	ldr	r3, [r7, #4]
 80031fa:	685b      	ldr	r3, [r3, #4]
 80031fc:	2b00      	cmp	r3, #0
 80031fe:	d107      	bne.n	8003210 <HAL_RCC_ClockConfig+0xd4>
    {
      /* Check the HSI ready flag */
      if (READ_BIT(RCC->CR, RCC_CR_HSIRDY) == 0U)
 8003200:	4b47      	ldr	r3, [pc, #284]	@ (8003320 <HAL_RCC_ClockConfig+0x1e4>)
 8003202:	681a      	ldr	r2, [r3, #0]
 8003204:	2380      	movs	r3, #128	@ 0x80
 8003206:	00db      	lsls	r3, r3, #3
 8003208:	4013      	ands	r3, r2
 800320a:	d113      	bne.n	8003234 <HAL_RCC_ClockConfig+0xf8>
      {
        return HAL_ERROR;
 800320c:	2301      	movs	r3, #1
 800320e:	e07f      	b.n	8003310 <HAL_RCC_ClockConfig+0x1d4>
        return HAL_ERROR;
      }
    }
#endif /* RCC_HSI48_SUPPORT */
    /* LSI is selected as System Clock Source */
    else if (RCC_ClkInitStruct->SYSCLKSource == RCC_SYSCLKSOURCE_LSI)
 8003210:	687b      	ldr	r3, [r7, #4]
 8003212:	685b      	ldr	r3, [r3, #4]
 8003214:	2b03      	cmp	r3, #3
 8003216:	d106      	bne.n	8003226 <HAL_RCC_ClockConfig+0xea>
    {
      /* Check the LSI ready flag */
      if (READ_BIT(RCC->CSR2, RCC_CSR2_LSIRDY) == 0U)
 8003218:	4b41      	ldr	r3, [pc, #260]	@ (8003320 <HAL_RCC_ClockConfig+0x1e4>)
 800321a:	6e1b      	ldr	r3, [r3, #96]	@ 0x60
 800321c:	2202      	movs	r2, #2
 800321e:	4013      	ands	r3, r2
 8003220:	d108      	bne.n	8003234 <HAL_RCC_ClockConfig+0xf8>
      {
        return HAL_ERROR;
 8003222:	2301      	movs	r3, #1
 8003224:	e074      	b.n	8003310 <HAL_RCC_ClockConfig+0x1d4>
    }
    /* LSE is selected as System Clock Source */
    else
    {
      /* Check the LSE ready flag */
      if (READ_BIT(RCC->CSR1, RCC_CSR1_LSERDY) == 0U)
 8003226:	4b3e      	ldr	r3, [pc, #248]	@ (8003320 <HAL_RCC_ClockConfig+0x1e4>)
 8003228:	6ddb      	ldr	r3, [r3, #92]	@ 0x5c
 800322a:	2202      	movs	r2, #2
 800322c:	4013      	ands	r3, r2
 800322e:	d101      	bne.n	8003234 <HAL_RCC_ClockConfig+0xf8>
      {
        return HAL_ERROR;
 8003230:	2301      	movs	r3, #1
 8003232:	e06d      	b.n	8003310 <HAL_RCC_ClockConfig+0x1d4>
      }
    }
    MODIFY_REG(RCC->CFGR, RCC_CFGR_SW, RCC_ClkInitStruct->SYSCLKSource);
 8003234:	4b3a      	ldr	r3, [pc, #232]	@ (8003320 <HAL_RCC_ClockConfig+0x1e4>)
 8003236:	689b      	ldr	r3, [r3, #8]
 8003238:	2207      	movs	r2, #7
 800323a:	4393      	bics	r3, r2
 800323c:	0019      	movs	r1, r3
 800323e:	687b      	ldr	r3, [r7, #4]
 8003240:	685a      	ldr	r2, [r3, #4]
 8003242:	4b37      	ldr	r3, [pc, #220]	@ (8003320 <HAL_RCC_ClockConfig+0x1e4>)
 8003244:	430a      	orrs	r2, r1
 8003246:	609a      	str	r2, [r3, #8]

    /* Get Start Tick*/
    tickstart = HAL_GetTick();
 8003248:	f7fe fe84 	bl	8001f54 <HAL_GetTick>
 800324c:	0003      	movs	r3, r0
 800324e:	60fb      	str	r3, [r7, #12]

    while (__HAL_RCC_GET_SYSCLK_SOURCE() != (RCC_ClkInitStruct->SYSCLKSource << RCC_CFGR_SWS_Pos))
 8003250:	e009      	b.n	8003266 <HAL_RCC_ClockConfig+0x12a>
    {
      if ((HAL_GetTick() - tickstart) > RCC_CLOCKSWITCH_TIMEOUT_VALUE)
 8003252:	f7fe fe7f 	bl	8001f54 <HAL_GetTick>
 8003256:	0002      	movs	r2, r0
 8003258:	68fb      	ldr	r3, [r7, #12]
 800325a:	1ad3      	subs	r3, r2, r3
 800325c:	4a2f      	ldr	r2, [pc, #188]	@ (800331c <HAL_RCC_ClockConfig+0x1e0>)
 800325e:	4293      	cmp	r3, r2
 8003260:	d901      	bls.n	8003266 <HAL_RCC_ClockConfig+0x12a>
      {
        return HAL_TIMEOUT;
 8003262:	2303      	movs	r3, #3
 8003264:	e054      	b.n	8003310 <HAL_RCC_ClockConfig+0x1d4>
    while (__HAL_RCC_GET_SYSCLK_SOURCE() != (RCC_ClkInitStruct->SYSCLKSource << RCC_CFGR_SWS_Pos))
 8003266:	4b2e      	ldr	r3, [pc, #184]	@ (8003320 <HAL_RCC_ClockConfig+0x1e4>)
 8003268:	689b      	ldr	r3, [r3, #8]
 800326a:	2238      	movs	r2, #56	@ 0x38
 800326c:	401a      	ands	r2, r3
 800326e:	687b      	ldr	r3, [r7, #4]
 8003270:	685b      	ldr	r3, [r3, #4]
 8003272:	00db      	lsls	r3, r3, #3
 8003274:	429a      	cmp	r2, r3
 8003276:	d1ec      	bne.n	8003252 <HAL_RCC_ClockConfig+0x116>
      }
    }
  }

  /* Decreasing the number of wait states because of lower CPU frequency */
  if (FLatency < __HAL_FLASH_GET_LATENCY())
 8003278:	4b27      	ldr	r3, [pc, #156]	@ (8003318 <HAL_RCC_ClockConfig+0x1dc>)
 800327a:	681b      	ldr	r3, [r3, #0]
 800327c:	2207      	movs	r2, #7
 800327e:	4013      	ands	r3, r2
 8003280:	683a      	ldr	r2, [r7, #0]
 8003282:	429a      	cmp	r2, r3
 8003284:	d21e      	bcs.n	80032c4 <HAL_RCC_ClockConfig+0x188>
  {
    /* Program the new number of wait states to the LATENCY bits in the FLASH_ACR register */
    __HAL_FLASH_SET_LATENCY(FLatency);
 8003286:	4b24      	ldr	r3, [pc, #144]	@ (8003318 <HAL_RCC_ClockConfig+0x1dc>)
 8003288:	681b      	ldr	r3, [r3, #0]
 800328a:	2207      	movs	r2, #7
 800328c:	4393      	bics	r3, r2
 800328e:	0019      	movs	r1, r3
 8003290:	4b21      	ldr	r3, [pc, #132]	@ (8003318 <HAL_RCC_ClockConfig+0x1dc>)
 8003292:	683a      	ldr	r2, [r7, #0]
 8003294:	430a      	orrs	r2, r1
 8003296:	601a      	str	r2, [r3, #0]

    /* Check that the new number of wait states is taken into account to access the Flash
    memory by polling the FLASH_ACR register */
    tickstart = HAL_GetTick();
 8003298:	f7fe fe5c 	bl	8001f54 <HAL_GetTick>
 800329c:	0003      	movs	r3, r0
 800329e:	60fb      	str	r3, [r7, #12]

    while ((FLASH->ACR & FLASH_ACR_LATENCY) != FLatency)
 80032a0:	e009      	b.n	80032b6 <HAL_RCC_ClockConfig+0x17a>
    {
      if ((HAL_GetTick() - tickstart) > RCC_CLOCKSWITCH_TIMEOUT_VALUE)
 80032a2:	f7fe fe57 	bl	8001f54 <HAL_GetTick>
 80032a6:	0002      	movs	r2, r0
 80032a8:	68fb      	ldr	r3, [r7, #12]
 80032aa:	1ad3      	subs	r3, r2, r3
 80032ac:	4a1b      	ldr	r2, [pc, #108]	@ (800331c <HAL_RCC_ClockConfig+0x1e0>)
 80032ae:	4293      	cmp	r3, r2
 80032b0:	d901      	bls.n	80032b6 <HAL_RCC_ClockConfig+0x17a>
      {
        return HAL_TIMEOUT;
 80032b2:	2303      	movs	r3, #3
 80032b4:	e02c      	b.n	8003310 <HAL_RCC_ClockConfig+0x1d4>
    while ((FLASH->ACR & FLASH_ACR_LATENCY) != FLatency)
 80032b6:	4b18      	ldr	r3, [pc, #96]	@ (8003318 <HAL_RCC_ClockConfig+0x1dc>)
 80032b8:	681b      	ldr	r3, [r3, #0]
 80032ba:	2207      	movs	r2, #7
 80032bc:	4013      	ands	r3, r2
 80032be:	683a      	ldr	r2, [r7, #0]
 80032c0:	429a      	cmp	r2, r3
 80032c2:	d1ee      	bne.n	80032a2 <HAL_RCC_ClockConfig+0x166>
      }
    }
  }

  /*-------------------------- PCLK1 Configuration ---------------------------*/
  if (((RCC_ClkInitStruct->ClockType) & RCC_CLOCKTYPE_PCLK1) == RCC_CLOCKTYPE_PCLK1)
 80032c4:	687b      	ldr	r3, [r7, #4]
 80032c6:	681b      	ldr	r3, [r3, #0]
 80032c8:	2204      	movs	r2, #4
 80032ca:	4013      	ands	r3, r2
 80032cc:	d009      	beq.n	80032e2 <HAL_RCC_ClockConfig+0x1a6>
  {
    assert_param(IS_RCC_PCLK(RCC_ClkInitStruct->APB1CLKDivider));
    MODIFY_REG(RCC->CFGR, RCC_CFGR_PPRE, RCC_ClkInitStruct->APB1CLKDivider);
 80032ce:	4b14      	ldr	r3, [pc, #80]	@ (8003320 <HAL_RCC_ClockConfig+0x1e4>)
 80032d0:	689b      	ldr	r3, [r3, #8]
 80032d2:	4a16      	ldr	r2, [pc, #88]	@ (800332c <HAL_RCC_ClockConfig+0x1f0>)
 80032d4:	4013      	ands	r3, r2
 80032d6:	0019      	movs	r1, r3
 80032d8:	687b      	ldr	r3, [r7, #4]
 80032da:	691a      	ldr	r2, [r3, #16]
 80032dc:	4b10      	ldr	r3, [pc, #64]	@ (8003320 <HAL_RCC_ClockConfig+0x1e4>)
 80032de:	430a      	orrs	r2, r1
 80032e0:	609a      	str	r2, [r3, #8]
  }

  /* Update the SystemCoreClock global variable */
  SystemCoreClock = (HAL_RCC_GetSysClockFreq() >> ((AHBPrescTable[(RCC->CFGR & RCC_CFGR_HPRE) \
 80032e2:	f000 f82b 	bl	800333c <HAL_RCC_GetSysClockFreq>
 80032e6:	0001      	movs	r1, r0
 80032e8:	4b0d      	ldr	r3, [pc, #52]	@ (8003320 <HAL_RCC_ClockConfig+0x1e4>)
 80032ea:	689b      	ldr	r3, [r3, #8]
                                                                  >> RCC_CFGR_HPRE_Pos]) & 0x1FU));
 80032ec:	0a1b      	lsrs	r3, r3, #8
 80032ee:	220f      	movs	r2, #15
 80032f0:	401a      	ands	r2, r3
  SystemCoreClock = (HAL_RCC_GetSysClockFreq() >> ((AHBPrescTable[(RCC->CFGR & RCC_CFGR_HPRE) \
 80032f2:	4b0f      	ldr	r3, [pc, #60]	@ (8003330 <HAL_RCC_ClockConfig+0x1f4>)
 80032f4:	0092      	lsls	r2, r2, #2
 80032f6:	58d3      	ldr	r3, [r2, r3]
                                                                  >> RCC_CFGR_HPRE_Pos]) & 0x1FU));
 80032f8:	221f      	movs	r2, #31
 80032fa:	4013      	ands	r3, r2
  SystemCoreClock = (HAL_RCC_GetSysClockFreq() >> ((AHBPrescTable[(RCC->CFGR & RCC_CFGR_HPRE) \
 80032fc:	000a      	movs	r2, r1
 80032fe:	40da      	lsrs	r2, r3
 8003300:	4b0c      	ldr	r3, [pc, #48]	@ (8003334 <HAL_RCC_ClockConfig+0x1f8>)
 8003302:	601a      	str	r2, [r3, #0]

  /* Configure the source of time base considering new system clocks settings*/
  return HAL_InitTick(uwTickPrio);
 8003304:	4b0c      	ldr	r3, [pc, #48]	@ (8003338 <HAL_RCC_ClockConfig+0x1fc>)
 8003306:	681b      	ldr	r3, [r3, #0]
 8003308:	0018      	movs	r0, r3
 800330a:	f7fe fdc7 	bl	8001e9c <HAL_InitTick>
 800330e:	0003      	movs	r3, r0
}
 8003310:	0018      	movs	r0, r3
 8003312:	46bd      	mov	sp, r7
 8003314:	b004      	add	sp, #16
 8003316:	bd80      	pop	{r7, pc}
 8003318:	40022000 	.word	0x40022000
 800331c:	00001388 	.word	0x00001388
 8003320:	40021000 	.word	0x40021000
 8003324:	ffff84ff 	.word	0xffff84ff
 8003328:	fffff0ff 	.word	0xfffff0ff
 800332c:	ffff8fff 	.word	0xffff8fff
 8003330:	08005d3c 	.word	0x08005d3c
 8003334:	2000000c 	.word	0x2000000c
 8003338:	20000010 	.word	0x20000010

0800333c <HAL_RCC_GetSysClockFreq>:
  *
  *
  * @retval SYSCLK frequency
  */
uint32_t HAL_RCC_GetSysClockFreq(void)
{
 800333c:	b580      	push	{r7, lr}
 800333e:	b082      	sub	sp, #8
 8003340:	af00      	add	r7, sp, #0
  uint32_t sysclockfreq;
#if defined(RCC_CR_SYSDIV)
  uint32_t sysclockdiv = (uint32_t)(((RCC->CR & RCC_CR_SYSDIV) >> RCC_CR_SYSDIV_Pos) + 1U);
#endif /* RCC_CR_SYSDIV */

  if (__HAL_RCC_GET_SYSCLK_SOURCE() == RCC_CFGR_SWS_HSI)
 8003342:	4b1c      	ldr	r3, [pc, #112]	@ (80033b4 <HAL_RCC_GetSysClockFreq+0x78>)
 8003344:	689b      	ldr	r3, [r3, #8]
 8003346:	2238      	movs	r2, #56	@ 0x38
 8003348:	4013      	ands	r3, r2
 800334a:	d10f      	bne.n	800336c <HAL_RCC_GetSysClockFreq+0x30>
  {
    /* HSISYS can be derived for HSI48 */
    hsidiv = (1UL << ((READ_BIT(RCC->CR, RCC_CR_HSIDIV)) >> RCC_CR_HSIDIV_Pos));
 800334c:	4b19      	ldr	r3, [pc, #100]	@ (80033b4 <HAL_RCC_GetSysClockFreq+0x78>)
 800334e:	681b      	ldr	r3, [r3, #0]
 8003350:	0adb      	lsrs	r3, r3, #11
 8003352:	2207      	movs	r2, #7
 8003354:	4013      	ands	r3, r2
 8003356:	2201      	movs	r2, #1
 8003358:	409a      	lsls	r2, r3
 800335a:	0013      	movs	r3, r2
 800335c:	603b      	str	r3, [r7, #0]

    /* HSI used as system clock source */
    sysclockfreq = (HSI_VALUE / hsidiv);
 800335e:	6839      	ldr	r1, [r7, #0]
 8003360:	4815      	ldr	r0, [pc, #84]	@ (80033b8 <HAL_RCC_GetSysClockFreq+0x7c>)
 8003362:	f7fc fee3 	bl	800012c <__udivsi3>
 8003366:	0003      	movs	r3, r0
 8003368:	607b      	str	r3, [r7, #4]
 800336a:	e01e      	b.n	80033aa <HAL_RCC_GetSysClockFreq+0x6e>
  }
  else if (__HAL_RCC_GET_SYSCLK_SOURCE() == RCC_CFGR_SWS_HSE)
 800336c:	4b11      	ldr	r3, [pc, #68]	@ (80033b4 <HAL_RCC_GetSysClockFreq+0x78>)
 800336e:	689b      	ldr	r3, [r3, #8]
 8003370:	2238      	movs	r2, #56	@ 0x38
 8003372:	4013      	ands	r3, r2
 8003374:	2b08      	cmp	r3, #8
 8003376:	d102      	bne.n	800337e <HAL_RCC_GetSysClockFreq+0x42>
  {
    /* HSE used as system clock source */
    sysclockfreq = HSE_VALUE;
 8003378:	4b10      	ldr	r3, [pc, #64]	@ (80033bc <HAL_RCC_GetSysClockFreq+0x80>)
 800337a:	607b      	str	r3, [r7, #4]
 800337c:	e015      	b.n	80033aa <HAL_RCC_GetSysClockFreq+0x6e>
  }
  else if (__HAL_RCC_GET_SYSCLK_SOURCE() == RCC_CFGR_SWS_LSE)
 800337e:	4b0d      	ldr	r3, [pc, #52]	@ (80033b4 <HAL_RCC_GetSysClockFreq+0x78>)
 8003380:	689b      	ldr	r3, [r3, #8]
 8003382:	2238      	movs	r2, #56	@ 0x38
 8003384:	4013      	ands	r3, r2
 8003386:	2b20      	cmp	r3, #32
 8003388:	d103      	bne.n	8003392 <HAL_RCC_GetSysClockFreq+0x56>
  {
    /* LSE used as system clock source */
    sysclockfreq = LSE_VALUE;
 800338a:	2380      	movs	r3, #128	@ 0x80
 800338c:	021b      	lsls	r3, r3, #8
 800338e:	607b      	str	r3, [r7, #4]
 8003390:	e00b      	b.n	80033aa <HAL_RCC_GetSysClockFreq+0x6e>
  }
  else if (__HAL_RCC_GET_SYSCLK_SOURCE() == RCC_CFGR_SWS_LSI)
 8003392:	4b08      	ldr	r3, [pc, #32]	@ (80033b4 <HAL_RCC_GetSysClockFreq+0x78>)
 8003394:	689b      	ldr	r3, [r3, #8]
 8003396:	2238      	movs	r2, #56	@ 0x38
 8003398:	4013      	ands	r3, r2
 800339a:	2b18      	cmp	r3, #24
 800339c:	d103      	bne.n	80033a6 <HAL_RCC_GetSysClockFreq+0x6a>
  {
    /* LSI used as system clock source */
    sysclockfreq = LSI_VALUE;
 800339e:	23fa      	movs	r3, #250	@ 0xfa
 80033a0:	01db      	lsls	r3, r3, #7
 80033a2:	607b      	str	r3, [r7, #4]
 80033a4:	e001      	b.n	80033aa <HAL_RCC_GetSysClockFreq+0x6e>
    sysclockfreq = HSI48_VALUE;
  }
#endif /* RCC_HSI48_SUPPORT */
  else
  {
    sysclockfreq = 0U;
 80033a6:	2300      	movs	r3, #0
 80033a8:	607b      	str	r3, [r7, #4]
  }
#if defined(RCC_CR_SYSDIV)
  sysclockfreq = sysclockfreq / sysclockdiv;
#endif /* RCC_CR_SYSDIV */
  return sysclockfreq;
 80033aa:	687b      	ldr	r3, [r7, #4]
}
 80033ac:	0018      	movs	r0, r3
 80033ae:	46bd      	mov	sp, r7
 80033b0:	b002      	add	sp, #8
 80033b2:	bd80      	pop	{r7, pc}
 80033b4:	40021000 	.word	0x40021000
 80033b8:	02dc6c00 	.word	0x02dc6c00
 80033bc:	007a1200 	.word	0x007a1200

080033c0 <HAL_RCC_GetHCLKFreq>:
  *
  * @note   The SystemCoreClock CMSIS variable is used to store System Clock Frequency.
  * @retval HCLK frequency in Hz
  */
uint32_t HAL_RCC_GetHCLKFreq(void)
{
 80033c0:	b580      	push	{r7, lr}
 80033c2:	af00      	add	r7, sp, #0
  SystemCoreClock = (HAL_RCC_GetSysClockFreq() >> ((AHBPrescTable[(RCC->CFGR & RCC_CFGR_HPRE) \
 80033c4:	f7ff ffba 	bl	800333c <HAL_RCC_GetSysClockFreq>
 80033c8:	0001      	movs	r1, r0
 80033ca:	4b09      	ldr	r3, [pc, #36]	@ (80033f0 <HAL_RCC_GetHCLKFreq+0x30>)
 80033cc:	689b      	ldr	r3, [r3, #8]
                                                                  >> RCC_CFGR_HPRE_Pos]) & 0x1FU));
 80033ce:	0a1b      	lsrs	r3, r3, #8
 80033d0:	220f      	movs	r2, #15
 80033d2:	401a      	ands	r2, r3
  SystemCoreClock = (HAL_RCC_GetSysClockFreq() >> ((AHBPrescTable[(RCC->CFGR & RCC_CFGR_HPRE) \
 80033d4:	4b07      	ldr	r3, [pc, #28]	@ (80033f4 <HAL_RCC_GetHCLKFreq+0x34>)
 80033d6:	0092      	lsls	r2, r2, #2
 80033d8:	58d3      	ldr	r3, [r2, r3]
                                                                  >> RCC_CFGR_HPRE_Pos]) & 0x1FU));
 80033da:	221f      	movs	r2, #31
 80033dc:	4013      	ands	r3, r2
  SystemCoreClock = (HAL_RCC_GetSysClockFreq() >> ((AHBPrescTable[(RCC->CFGR & RCC_CFGR_HPRE) \
 80033de:	000a      	movs	r2, r1
 80033e0:	40da      	lsrs	r2, r3
 80033e2:	4b05      	ldr	r3, [pc, #20]	@ (80033f8 <HAL_RCC_GetHCLKFreq+0x38>)
 80033e4:	601a      	str	r2, [r3, #0]
  return SystemCoreClock;
 80033e6:	4b04      	ldr	r3, [pc, #16]	@ (80033f8 <HAL_RCC_GetHCLKFreq+0x38>)
 80033e8:	681b      	ldr	r3, [r3, #0]
}
 80033ea:	0018      	movs	r0, r3
 80033ec:	46bd      	mov	sp, r7
 80033ee:	bd80      	pop	{r7, pc}
 80033f0:	40021000 	.word	0x40021000
 80033f4:	08005d3c 	.word	0x08005d3c
 80033f8:	2000000c 	.word	0x2000000c

080033fc <HAL_RCC_GetPCLK1Freq>:
  * @note   Each time PCLK1 changes, this function must be called to update the
  *         right PCLK1 value. Otherwise, any configuration based on this function will be incorrect.
  * @retval PCLK1 frequency in Hz
  */
uint32_t HAL_RCC_GetPCLK1Freq(void)
{
 80033fc:	b580      	push	{r7, lr}
 80033fe:	af00      	add	r7, sp, #0
  /* Get HCLK source and Compute PCLK1 frequency ---------------------------*/
  return (HAL_RCC_GetHCLKFreq() >> ((APBPrescTable[(RCC->CFGR & RCC_CFGR_PPRE) >> RCC_CFGR_PPRE_Pos]) & 0x1FU));
 8003400:	f7ff ffde 	bl	80033c0 <HAL_RCC_GetHCLKFreq>
 8003404:	0001      	movs	r1, r0
 8003406:	4b07      	ldr	r3, [pc, #28]	@ (8003424 <HAL_RCC_GetPCLK1Freq+0x28>)
 8003408:	689b      	ldr	r3, [r3, #8]
 800340a:	0b1b      	lsrs	r3, r3, #12
 800340c:	2207      	movs	r2, #7
 800340e:	401a      	ands	r2, r3
 8003410:	4b05      	ldr	r3, [pc, #20]	@ (8003428 <HAL_RCC_GetPCLK1Freq+0x2c>)
 8003412:	0092      	lsls	r2, r2, #2
 8003414:	58d3      	ldr	r3, [r2, r3]
 8003416:	221f      	movs	r2, #31
 8003418:	4013      	ands	r3, r2
 800341a:	40d9      	lsrs	r1, r3
 800341c:	000b      	movs	r3, r1
}
 800341e:	0018      	movs	r0, r3
 8003420:	46bd      	mov	sp, r7
 8003422:	bd80      	pop	{r7, pc}
 8003424:	40021000 	.word	0x40021000
 8003428:	08005d7c 	.word	0x08005d7c

0800342c <HAL_RCCEx_PeriphCLKConfig>:
  * @note (*) not available on all devices
  *
  * @retval HAL status
  */
HAL_StatusTypeDef HAL_RCCEx_PeriphCLKConfig(const RCC_PeriphCLKInitTypeDef  *PeriphClkInit)
{
 800342c:	b580      	push	{r7, lr}
 800342e:	b086      	sub	sp, #24
 8003430:	af00      	add	r7, sp, #0
 8003432:	6078      	str	r0, [r7, #4]
  uint32_t tmpregister;
  uint32_t tickstart;
  HAL_StatusTypeDef ret    = HAL_OK;   /* Intermediate status */
 8003434:	2313      	movs	r3, #19
 8003436:	18fb      	adds	r3, r7, r3
 8003438:	2200      	movs	r2, #0
 800343a:	701a      	strb	r2, [r3, #0]
  HAL_StatusTypeDef status = HAL_OK;   /* Final status */
 800343c:	2312      	movs	r3, #18
 800343e:	18fb      	adds	r3, r7, r3
 8003440:	2200      	movs	r2, #0
 8003442:	701a      	strb	r2, [r3, #0]

  /* Check the parameters */
  assert_param(IS_RCC_PERIPHCLOCK(PeriphClkInit->PeriphClockSelection));

  /*-------------------------- RTC clock source configuration ----------------------*/
  if ((PeriphClkInit->PeriphClockSelection & RCC_PERIPHCLK_RTC) == RCC_PERIPHCLK_RTC)
 8003444:	687b      	ldr	r3, [r7, #4]
 8003446:	681b      	ldr	r3, [r3, #0]
 8003448:	2240      	movs	r2, #64	@ 0x40
 800344a:	4013      	ands	r3, r2
 800344c:	d100      	bne.n	8003450 <HAL_RCCEx_PeriphCLKConfig+0x24>
 800344e:	e079      	b.n	8003544 <HAL_RCCEx_PeriphCLKConfig+0x118>
  {
    FlagStatus       pwrclkchanged = RESET;
 8003450:	2011      	movs	r0, #17
 8003452:	183b      	adds	r3, r7, r0
 8003454:	2200      	movs	r2, #0
 8003456:	701a      	strb	r2, [r3, #0]

    /* Check for RTC Parameters used to output RTCCLK */
    assert_param(IS_RCC_RTCCLKSOURCE(PeriphClkInit->RTCClockSelection));

    /* Enable Power Clock */
    if (__HAL_RCC_PWR_IS_CLK_DISABLED())
 8003458:	4b63      	ldr	r3, [pc, #396]	@ (80035e8 <HAL_RCCEx_PeriphCLKConfig+0x1bc>)
 800345a:	6bda      	ldr	r2, [r3, #60]	@ 0x3c
 800345c:	2380      	movs	r3, #128	@ 0x80
 800345e:	055b      	lsls	r3, r3, #21
 8003460:	4013      	ands	r3, r2
 8003462:	d110      	bne.n	8003486 <HAL_RCCEx_PeriphCLKConfig+0x5a>
    {
      __HAL_RCC_PWR_CLK_ENABLE();
 8003464:	4b60      	ldr	r3, [pc, #384]	@ (80035e8 <HAL_RCCEx_PeriphCLKConfig+0x1bc>)
 8003466:	6bda      	ldr	r2, [r3, #60]	@ 0x3c
 8003468:	4b5f      	ldr	r3, [pc, #380]	@ (80035e8 <HAL_RCCEx_PeriphCLKConfig+0x1bc>)
 800346a:	2180      	movs	r1, #128	@ 0x80
 800346c:	0549      	lsls	r1, r1, #21
 800346e:	430a      	orrs	r2, r1
 8003470:	63da      	str	r2, [r3, #60]	@ 0x3c
 8003472:	4b5d      	ldr	r3, [pc, #372]	@ (80035e8 <HAL_RCCEx_PeriphCLKConfig+0x1bc>)
 8003474:	6bda      	ldr	r2, [r3, #60]	@ 0x3c
 8003476:	2380      	movs	r3, #128	@ 0x80
 8003478:	055b      	lsls	r3, r3, #21
 800347a:	4013      	ands	r3, r2
 800347c:	60bb      	str	r3, [r7, #8]
 800347e:	68bb      	ldr	r3, [r7, #8]
      pwrclkchanged = SET;
 8003480:	183b      	adds	r3, r7, r0
 8003482:	2201      	movs	r2, #1
 8003484:	701a      	strb	r2, [r3, #0]
    }


    /* Reset the RTC domain only if the RTC Clock source selection is modified from default */
    tmpregister = READ_BIT(RCC->CSR1, RCC_CSR1_RTCSEL);
 8003486:	4b58      	ldr	r3, [pc, #352]	@ (80035e8 <HAL_RCCEx_PeriphCLKConfig+0x1bc>)
 8003488:	6dda      	ldr	r2, [r3, #92]	@ 0x5c
 800348a:	23c0      	movs	r3, #192	@ 0xc0
 800348c:	009b      	lsls	r3, r3, #2
 800348e:	4013      	ands	r3, r2
 8003490:	617b      	str	r3, [r7, #20]

    /* Reset the RTC domain only if the RTC Clock source selection is modified */
    if ((tmpregister != RCC_RTCCLKSOURCE_NONE) && (tmpregister != PeriphClkInit->RTCClockSelection))
 8003492:	697b      	ldr	r3, [r7, #20]
 8003494:	2b00      	cmp	r3, #0
 8003496:	d019      	beq.n	80034cc <HAL_RCCEx_PeriphCLKConfig+0xa0>
 8003498:	687b      	ldr	r3, [r7, #4]
 800349a:	699b      	ldr	r3, [r3, #24]
 800349c:	697a      	ldr	r2, [r7, #20]
 800349e:	429a      	cmp	r2, r3
 80034a0:	d014      	beq.n	80034cc <HAL_RCCEx_PeriphCLKConfig+0xa0>
    {
      /* Store the content of CSR1 register before the reset of RTC Domain */
      tmpregister = READ_BIT(RCC->CSR1, ~(RCC_CSR1_RTCSEL));
 80034a2:	4b51      	ldr	r3, [pc, #324]	@ (80035e8 <HAL_RCCEx_PeriphCLKConfig+0x1bc>)
 80034a4:	6ddb      	ldr	r3, [r3, #92]	@ 0x5c
 80034a6:	4a51      	ldr	r2, [pc, #324]	@ (80035ec <HAL_RCCEx_PeriphCLKConfig+0x1c0>)
 80034a8:	4013      	ands	r3, r2
 80034aa:	617b      	str	r3, [r7, #20]
      /* RTC Clock selection can be changed only if the RTC Domain is reset */
      __HAL_RCC_BACKUPRESET_FORCE();
 80034ac:	4b4e      	ldr	r3, [pc, #312]	@ (80035e8 <HAL_RCCEx_PeriphCLKConfig+0x1bc>)
 80034ae:	6dda      	ldr	r2, [r3, #92]	@ 0x5c
 80034b0:	4b4d      	ldr	r3, [pc, #308]	@ (80035e8 <HAL_RCCEx_PeriphCLKConfig+0x1bc>)
 80034b2:	2180      	movs	r1, #128	@ 0x80
 80034b4:	0249      	lsls	r1, r1, #9
 80034b6:	430a      	orrs	r2, r1
 80034b8:	65da      	str	r2, [r3, #92]	@ 0x5c
      __HAL_RCC_BACKUPRESET_RELEASE();
 80034ba:	4b4b      	ldr	r3, [pc, #300]	@ (80035e8 <HAL_RCCEx_PeriphCLKConfig+0x1bc>)
 80034bc:	6dda      	ldr	r2, [r3, #92]	@ 0x5c
 80034be:	4b4a      	ldr	r3, [pc, #296]	@ (80035e8 <HAL_RCCEx_PeriphCLKConfig+0x1bc>)
 80034c0:	494b      	ldr	r1, [pc, #300]	@ (80035f0 <HAL_RCCEx_PeriphCLKConfig+0x1c4>)
 80034c2:	400a      	ands	r2, r1
 80034c4:	65da      	str	r2, [r3, #92]	@ 0x5c
      /* Restore the Content of CSR1 register */
      RCC->CSR1 = tmpregister;
 80034c6:	4b48      	ldr	r3, [pc, #288]	@ (80035e8 <HAL_RCCEx_PeriphCLKConfig+0x1bc>)
 80034c8:	697a      	ldr	r2, [r7, #20]
 80034ca:	65da      	str	r2, [r3, #92]	@ 0x5c
    }

    /* Wait for LSE reactivation if LSE was enable prior to RTC Domain reset */
    if (HAL_IS_BIT_SET(tmpregister, RCC_CSR1_LSEON))
 80034cc:	697b      	ldr	r3, [r7, #20]
 80034ce:	2201      	movs	r2, #1
 80034d0:	4013      	ands	r3, r2
 80034d2:	d016      	beq.n	8003502 <HAL_RCCEx_PeriphCLKConfig+0xd6>
    {
      /* Get Start Tick*/
      tickstart = HAL_GetTick();
 80034d4:	f7fe fd3e 	bl	8001f54 <HAL_GetTick>
 80034d8:	0003      	movs	r3, r0
 80034da:	60fb      	str	r3, [r7, #12]

      /* Wait till LSE is ready */
      while (READ_BIT(RCC->CSR1, RCC_CSR1_LSERDY) == 0U)
 80034dc:	e00c      	b.n	80034f8 <HAL_RCCEx_PeriphCLKConfig+0xcc>
      {
        if ((HAL_GetTick() - tickstart) > RCC_LSE_TIMEOUT_VALUE)
 80034de:	f7fe fd39 	bl	8001f54 <HAL_GetTick>
 80034e2:	0002      	movs	r2, r0
 80034e4:	68fb      	ldr	r3, [r7, #12]
 80034e6:	1ad3      	subs	r3, r2, r3
 80034e8:	4a42      	ldr	r2, [pc, #264]	@ (80035f4 <HAL_RCCEx_PeriphCLKConfig+0x1c8>)
 80034ea:	4293      	cmp	r3, r2
 80034ec:	d904      	bls.n	80034f8 <HAL_RCCEx_PeriphCLKConfig+0xcc>
        {
          ret = HAL_TIMEOUT;
 80034ee:	2313      	movs	r3, #19
 80034f0:	18fb      	adds	r3, r7, r3
 80034f2:	2203      	movs	r2, #3
 80034f4:	701a      	strb	r2, [r3, #0]
          break;
 80034f6:	e004      	b.n	8003502 <HAL_RCCEx_PeriphCLKConfig+0xd6>
      while (READ_BIT(RCC->CSR1, RCC_CSR1_LSERDY) == 0U)
 80034f8:	4b3b      	ldr	r3, [pc, #236]	@ (80035e8 <HAL_RCCEx_PeriphCLKConfig+0x1bc>)
 80034fa:	6ddb      	ldr	r3, [r3, #92]	@ 0x5c
 80034fc:	2202      	movs	r2, #2
 80034fe:	4013      	ands	r3, r2
 8003500:	d0ed      	beq.n	80034de <HAL_RCCEx_PeriphCLKConfig+0xb2>
        }
      }
    }

    if (ret == HAL_OK)
 8003502:	2313      	movs	r3, #19
 8003504:	18fb      	adds	r3, r7, r3
 8003506:	781b      	ldrb	r3, [r3, #0]
 8003508:	2b00      	cmp	r3, #0
 800350a:	d10a      	bne.n	8003522 <HAL_RCCEx_PeriphCLKConfig+0xf6>
    {
      /* Apply new RTC clock source selection */
      __HAL_RCC_RTC_CONFIG(PeriphClkInit->RTCClockSelection);
 800350c:	4b36      	ldr	r3, [pc, #216]	@ (80035e8 <HAL_RCCEx_PeriphCLKConfig+0x1bc>)
 800350e:	6ddb      	ldr	r3, [r3, #92]	@ 0x5c
 8003510:	4a36      	ldr	r2, [pc, #216]	@ (80035ec <HAL_RCCEx_PeriphCLKConfig+0x1c0>)
 8003512:	4013      	ands	r3, r2
 8003514:	0019      	movs	r1, r3
 8003516:	687b      	ldr	r3, [r7, #4]
 8003518:	699a      	ldr	r2, [r3, #24]
 800351a:	4b33      	ldr	r3, [pc, #204]	@ (80035e8 <HAL_RCCEx_PeriphCLKConfig+0x1bc>)
 800351c:	430a      	orrs	r2, r1
 800351e:	65da      	str	r2, [r3, #92]	@ 0x5c
 8003520:	e005      	b.n	800352e <HAL_RCCEx_PeriphCLKConfig+0x102>
    }
    else
    {
      /* set overall return value */
      status = ret;
 8003522:	2312      	movs	r3, #18
 8003524:	18fb      	adds	r3, r7, r3
 8003526:	2213      	movs	r2, #19
 8003528:	18ba      	adds	r2, r7, r2
 800352a:	7812      	ldrb	r2, [r2, #0]
 800352c:	701a      	strb	r2, [r3, #0]
    }

    /* Restore clock configuration if changed */
    if (pwrclkchanged == SET)
 800352e:	2311      	movs	r3, #17
 8003530:	18fb      	adds	r3, r7, r3
 8003532:	781b      	ldrb	r3, [r3, #0]
 8003534:	2b01      	cmp	r3, #1
 8003536:	d105      	bne.n	8003544 <HAL_RCCEx_PeriphCLKConfig+0x118>
    {
      __HAL_RCC_PWR_CLK_DISABLE();
 8003538:	4b2b      	ldr	r3, [pc, #172]	@ (80035e8 <HAL_RCCEx_PeriphCLKConfig+0x1bc>)
 800353a:	6bda      	ldr	r2, [r3, #60]	@ 0x3c
 800353c:	4b2a      	ldr	r3, [pc, #168]	@ (80035e8 <HAL_RCCEx_PeriphCLKConfig+0x1bc>)
 800353e:	492e      	ldr	r1, [pc, #184]	@ (80035f8 <HAL_RCCEx_PeriphCLKConfig+0x1cc>)
 8003540:	400a      	ands	r2, r1
 8003542:	63da      	str	r2, [r3, #60]	@ 0x3c
    }
  }

  /*-------------------------- USART1 clock source configuration -------------------*/
  if (((PeriphClkInit->PeriphClockSelection) & RCC_PERIPHCLK_USART1) == RCC_PERIPHCLK_USART1)
 8003544:	687b      	ldr	r3, [r7, #4]
 8003546:	681b      	ldr	r3, [r3, #0]
 8003548:	2201      	movs	r2, #1
 800354a:	4013      	ands	r3, r2
 800354c:	d009      	beq.n	8003562 <HAL_RCCEx_PeriphCLKConfig+0x136>
  {
    /* Check the parameters */
    assert_param(IS_RCC_USART1CLKSOURCE(PeriphClkInit->Usart1ClockSelection));

    /* Configure the USART1 clock source */
    __HAL_RCC_USART1_CONFIG(PeriphClkInit->Usart1ClockSelection);
 800354e:	4b26      	ldr	r3, [pc, #152]	@ (80035e8 <HAL_RCCEx_PeriphCLKConfig+0x1bc>)
 8003550:	6d5b      	ldr	r3, [r3, #84]	@ 0x54
 8003552:	2203      	movs	r2, #3
 8003554:	4393      	bics	r3, r2
 8003556:	0019      	movs	r1, r3
 8003558:	687b      	ldr	r3, [r7, #4]
 800355a:	689a      	ldr	r2, [r3, #8]
 800355c:	4b22      	ldr	r3, [pc, #136]	@ (80035e8 <HAL_RCCEx_PeriphCLKConfig+0x1bc>)
 800355e:	430a      	orrs	r2, r1
 8003560:	655a      	str	r2, [r3, #84]	@ 0x54
  }

  /*-------------------------- I2C1 clock source configuration ---------------------*/
  if (((PeriphClkInit->PeriphClockSelection) & RCC_PERIPHCLK_I2C1) == RCC_PERIPHCLK_I2C1)
 8003562:	687b      	ldr	r3, [r7, #4]
 8003564:	681b      	ldr	r3, [r3, #0]
 8003566:	2202      	movs	r2, #2
 8003568:	4013      	ands	r3, r2
 800356a:	d009      	beq.n	8003580 <HAL_RCCEx_PeriphCLKConfig+0x154>
  {
    /* Check the parameters */
    assert_param(IS_RCC_I2C1CLKSOURCE(PeriphClkInit->I2c1ClockSelection));

    /* Configure the I2C1 clock source */
    __HAL_RCC_I2C1_CONFIG(PeriphClkInit->I2c1ClockSelection);
 800356c:	4b1e      	ldr	r3, [pc, #120]	@ (80035e8 <HAL_RCCEx_PeriphCLKConfig+0x1bc>)
 800356e:	6d5b      	ldr	r3, [r3, #84]	@ 0x54
 8003570:	4a22      	ldr	r2, [pc, #136]	@ (80035fc <HAL_RCCEx_PeriphCLKConfig+0x1d0>)
 8003572:	4013      	ands	r3, r2
 8003574:	0019      	movs	r1, r3
 8003576:	687b      	ldr	r3, [r7, #4]
 8003578:	68da      	ldr	r2, [r3, #12]
 800357a:	4b1b      	ldr	r3, [pc, #108]	@ (80035e8 <HAL_RCCEx_PeriphCLKConfig+0x1bc>)
 800357c:	430a      	orrs	r2, r1
 800357e:	655a      	str	r2, [r3, #84]	@ 0x54
  }

  /*-------------------------- ADC clock source configuration ----------------------*/
  if (((PeriphClkInit->PeriphClockSelection) & RCC_PERIPHCLK_ADC) == RCC_PERIPHCLK_ADC)
 8003580:	687b      	ldr	r3, [r7, #4]
 8003582:	681b      	ldr	r3, [r3, #0]
 8003584:	2220      	movs	r2, #32
 8003586:	4013      	ands	r3, r2
 8003588:	d008      	beq.n	800359c <HAL_RCCEx_PeriphCLKConfig+0x170>
  {
    /* Check the parameters */
    assert_param(IS_RCC_ADCCLKSOURCE(PeriphClkInit->AdcClockSelection));

    /* Configure the ADC interface clock source */
    __HAL_RCC_ADC_CONFIG(PeriphClkInit->AdcClockSelection);
 800358a:	4b17      	ldr	r3, [pc, #92]	@ (80035e8 <HAL_RCCEx_PeriphCLKConfig+0x1bc>)
 800358c:	6d5b      	ldr	r3, [r3, #84]	@ 0x54
 800358e:	009b      	lsls	r3, r3, #2
 8003590:	0899      	lsrs	r1, r3, #2
 8003592:	687b      	ldr	r3, [r7, #4]
 8003594:	695a      	ldr	r2, [r3, #20]
 8003596:	4b14      	ldr	r3, [pc, #80]	@ (80035e8 <HAL_RCCEx_PeriphCLKConfig+0x1bc>)
 8003598:	430a      	orrs	r2, r1
 800359a:	655a      	str	r2, [r3, #84]	@ 0x54
    __HAL_RCC_FDCAN1_CONFIG(PeriphClkInit->Fdcan1ClockSelection);

  }
#endif /* FDCAN1 */
  /*-------------------------- I2S1 clock source configuration ---------------------*/
  if (((PeriphClkInit->PeriphClockSelection) & RCC_PERIPHCLK_I2S1) == RCC_PERIPHCLK_I2S1)
 800359c:	687b      	ldr	r3, [r7, #4]
 800359e:	681b      	ldr	r3, [r3, #0]
 80035a0:	2204      	movs	r2, #4
 80035a2:	4013      	ands	r3, r2
 80035a4:	d009      	beq.n	80035ba <HAL_RCCEx_PeriphCLKConfig+0x18e>
  {
    /* Check the parameters */
    assert_param(IS_RCC_I2S1CLKSOURCE(PeriphClkInit->I2s1ClockSelection));

    /* Configure the I2S1 clock source */
    __HAL_RCC_I2S1_CONFIG(PeriphClkInit->I2s1ClockSelection);
 80035a6:	4b10      	ldr	r3, [pc, #64]	@ (80035e8 <HAL_RCCEx_PeriphCLKConfig+0x1bc>)
 80035a8:	6d5b      	ldr	r3, [r3, #84]	@ 0x54
 80035aa:	4a15      	ldr	r2, [pc, #84]	@ (8003600 <HAL_RCCEx_PeriphCLKConfig+0x1d4>)
 80035ac:	4013      	ands	r3, r2
 80035ae:	0019      	movs	r1, r3
 80035b0:	687b      	ldr	r3, [r7, #4]
 80035b2:	691a      	ldr	r2, [r3, #16]
 80035b4:	4b0c      	ldr	r3, [pc, #48]	@ (80035e8 <HAL_RCCEx_PeriphCLKConfig+0x1bc>)
 80035b6:	430a      	orrs	r2, r1
 80035b8:	655a      	str	r2, [r3, #84]	@ 0x54
  }
  /*------------------------------------ HSI Kernel clock source configuration --------------------------------------*/
  if (((PeriphClkInit->PeriphClockSelection) & RCC_PERIPHCLK_HSIKER) == RCC_PERIPHCLK_HSIKER)
 80035ba:	687b      	ldr	r3, [r7, #4]
 80035bc:	681b      	ldr	r3, [r3, #0]
 80035be:	2280      	movs	r2, #128	@ 0x80
 80035c0:	4013      	ands	r3, r2
 80035c2:	d009      	beq.n	80035d8 <HAL_RCCEx_PeriphCLKConfig+0x1ac>
  {
    /* Check the parameters */
    assert_param(IS_RCC_HSIKERDIV(PeriphClkInit->HSIKerClockDivider));

    /* Configure the HSI Kernel clock source Divider */
    __HAL_RCC_HSIKER_CONFIG(PeriphClkInit->HSIKerClockDivider);
 80035c4:	4b08      	ldr	r3, [pc, #32]	@ (80035e8 <HAL_RCCEx_PeriphCLKConfig+0x1bc>)
 80035c6:	681b      	ldr	r3, [r3, #0]
 80035c8:	22e0      	movs	r2, #224	@ 0xe0
 80035ca:	4393      	bics	r3, r2
 80035cc:	0019      	movs	r1, r3
 80035ce:	687b      	ldr	r3, [r7, #4]
 80035d0:	685a      	ldr	r2, [r3, #4]
 80035d2:	4b05      	ldr	r3, [pc, #20]	@ (80035e8 <HAL_RCCEx_PeriphCLKConfig+0x1bc>)
 80035d4:	430a      	orrs	r2, r1
 80035d6:	601a      	str	r2, [r3, #0]
  }
  return status;
 80035d8:	2312      	movs	r3, #18
 80035da:	18fb      	adds	r3, r7, r3
 80035dc:	781b      	ldrb	r3, [r3, #0]
}
 80035de:	0018      	movs	r0, r3
 80035e0:	46bd      	mov	sp, r7
 80035e2:	b006      	add	sp, #24
 80035e4:	bd80      	pop	{r7, pc}
 80035e6:	46c0      	nop			@ (mov r8, r8)
 80035e8:	40021000 	.word	0x40021000
 80035ec:	fffffcff 	.word	0xfffffcff
 80035f0:	fffeffff 	.word	0xfffeffff
 80035f4:	00001388 	.word	0x00001388
 80035f8:	efffffff 	.word	0xefffffff
 80035fc:	ffffcfff 	.word	0xffffcfff
 8003600:	ffff3fff 	.word	0xffff3fff

08003604 <HAL_SPI_Init>:
  * @param  hspi pointer to a SPI_HandleTypeDef structure that contains
  *               the configuration information for SPI module.
  * @retval HAL status
  */
HAL_StatusTypeDef HAL_SPI_Init(SPI_HandleTypeDef *hspi)
{
 8003604:	b580      	push	{r7, lr}
 8003606:	b084      	sub	sp, #16
 8003608:	af00      	add	r7, sp, #0
 800360a:	6078      	str	r0, [r7, #4]
  uint32_t frxth;

  /* Check the SPI handle allocation */
  if (hspi == NULL)
 800360c:	687b      	ldr	r3, [r7, #4]
 800360e:	2b00      	cmp	r3, #0
 8003610:	d101      	bne.n	8003616 <HAL_SPI_Init+0x12>
  {
    return HAL_ERROR;
 8003612:	2301      	movs	r3, #1
 8003614:	e0a8      	b.n	8003768 <HAL_SPI_Init+0x164>
  assert_param(IS_SPI_NSS(hspi->Init.NSS));
  assert_param(IS_SPI_NSSP(hspi->Init.NSSPMode));
  assert_param(IS_SPI_BAUDRATE_PRESCALER(hspi->Init.BaudRatePrescaler));
  assert_param(IS_SPI_FIRST_BIT(hspi->Init.FirstBit));
  assert_param(IS_SPI_TIMODE(hspi->Init.TIMode));
  if (hspi->Init.TIMode == SPI_TIMODE_DISABLE)
 8003616:	687b      	ldr	r3, [r7, #4]
 8003618:	6a5b      	ldr	r3, [r3, #36]	@ 0x24
 800361a:	2b00      	cmp	r3, #0
 800361c:	d109      	bne.n	8003632 <HAL_SPI_Init+0x2e>
  {
    assert_param(IS_SPI_CPOL(hspi->Init.CLKPolarity));
    assert_param(IS_SPI_CPHA(hspi->Init.CLKPhase));

    if (hspi->Init.Mode == SPI_MODE_MASTER)
 800361e:	687b      	ldr	r3, [r7, #4]
 8003620:	685a      	ldr	r2, [r3, #4]
 8003622:	2382      	movs	r3, #130	@ 0x82
 8003624:	005b      	lsls	r3, r3, #1
 8003626:	429a      	cmp	r2, r3
 8003628:	d009      	beq.n	800363e <HAL_SPI_Init+0x3a>
      assert_param(IS_SPI_BAUDRATE_PRESCALER(hspi->Init.BaudRatePrescaler));
    }
    else
    {
      /* Baudrate prescaler not use in Motoraola Slave mode. force to default value */
      hspi->Init.BaudRatePrescaler = SPI_BAUDRATEPRESCALER_2;
 800362a:	687b      	ldr	r3, [r7, #4]
 800362c:	2200      	movs	r2, #0
 800362e:	61da      	str	r2, [r3, #28]
 8003630:	e005      	b.n	800363e <HAL_SPI_Init+0x3a>
  else
  {
    assert_param(IS_SPI_BAUDRATE_PRESCALER(hspi->Init.BaudRatePrescaler));

    /* Force polarity and phase to TI protocaol requirements */
    hspi->Init.CLKPolarity = SPI_POLARITY_LOW;
 8003632:	687b      	ldr	r3, [r7, #4]
 8003634:	2200      	movs	r2, #0
 8003636:	611a      	str	r2, [r3, #16]
    hspi->Init.CLKPhase    = SPI_PHASE_1EDGE;
 8003638:	687b      	ldr	r3, [r7, #4]
 800363a:	2200      	movs	r2, #0
 800363c:	615a      	str	r2, [r3, #20]
  {
    assert_param(IS_SPI_CRC_POLYNOMIAL(hspi->Init.CRCPolynomial));
    assert_param(IS_SPI_CRC_LENGTH(hspi->Init.CRCLength));
  }
#else
  hspi->Init.CRCCalculation = SPI_CRCCALCULATION_DISABLE;
 800363e:	687b      	ldr	r3, [r7, #4]
 8003640:	2200      	movs	r2, #0
 8003642:	629a      	str	r2, [r3, #40]	@ 0x28
#endif /* USE_SPI_CRC */

  if (hspi->State == HAL_SPI_STATE_RESET)
 8003644:	687b      	ldr	r3, [r7, #4]
 8003646:	225d      	movs	r2, #93	@ 0x5d
 8003648:	5c9b      	ldrb	r3, [r3, r2]
 800364a:	b2db      	uxtb	r3, r3
 800364c:	2b00      	cmp	r3, #0
 800364e:	d107      	bne.n	8003660 <HAL_SPI_Init+0x5c>
  {
    /* Allocate lock resource and initialize it */
    hspi->Lock = HAL_UNLOCKED;
 8003650:	687b      	ldr	r3, [r7, #4]
 8003652:	225c      	movs	r2, #92	@ 0x5c
 8003654:	2100      	movs	r1, #0
 8003656:	5499      	strb	r1, [r3, r2]

    /* Init the low level hardware : GPIO, CLOCK, NVIC... */
    hspi->MspInitCallback(hspi);
#else
    /* Init the low level hardware : GPIO, CLOCK, NVIC... */
    HAL_SPI_MspInit(hspi);
 8003658:	687b      	ldr	r3, [r7, #4]
 800365a:	0018      	movs	r0, r3
 800365c:	f7fe fa4e 	bl	8001afc <HAL_SPI_MspInit>
#endif /* USE_HAL_SPI_REGISTER_CALLBACKS */
  }

  hspi->State = HAL_SPI_STATE_BUSY;
 8003660:	687b      	ldr	r3, [r7, #4]
 8003662:	225d      	movs	r2, #93	@ 0x5d
 8003664:	2102      	movs	r1, #2
 8003666:	5499      	strb	r1, [r3, r2]

  /* Disable the selected SPI peripheral */
  __HAL_SPI_DISABLE(hspi);
 8003668:	687b      	ldr	r3, [r7, #4]
 800366a:	681b      	ldr	r3, [r3, #0]
 800366c:	681a      	ldr	r2, [r3, #0]
 800366e:	687b      	ldr	r3, [r7, #4]
 8003670:	681b      	ldr	r3, [r3, #0]
 8003672:	2140      	movs	r1, #64	@ 0x40
 8003674:	438a      	bics	r2, r1
 8003676:	601a      	str	r2, [r3, #0]

  /* Align by default the rs fifo threshold on the data size */
  if (hspi->Init.DataSize > SPI_DATASIZE_8BIT)
 8003678:	687b      	ldr	r3, [r7, #4]
 800367a:	68da      	ldr	r2, [r3, #12]
 800367c:	23e0      	movs	r3, #224	@ 0xe0
 800367e:	00db      	lsls	r3, r3, #3
 8003680:	429a      	cmp	r2, r3
 8003682:	d902      	bls.n	800368a <HAL_SPI_Init+0x86>
  {
    frxth = SPI_RXFIFO_THRESHOLD_HF;
 8003684:	2300      	movs	r3, #0
 8003686:	60fb      	str	r3, [r7, #12]
 8003688:	e002      	b.n	8003690 <HAL_SPI_Init+0x8c>
  }
  else
  {
    frxth = SPI_RXFIFO_THRESHOLD_QF;
 800368a:	2380      	movs	r3, #128	@ 0x80
 800368c:	015b      	lsls	r3, r3, #5
 800368e:	60fb      	str	r3, [r7, #12]
  }

  /* CRC calculation is valid only for 16Bit and 8 Bit */
  if ((hspi->Init.DataSize != SPI_DATASIZE_16BIT) && (hspi->Init.DataSize != SPI_DATASIZE_8BIT))
 8003690:	687b      	ldr	r3, [r7, #4]
 8003692:	68da      	ldr	r2, [r3, #12]
 8003694:	23f0      	movs	r3, #240	@ 0xf0
 8003696:	011b      	lsls	r3, r3, #4
 8003698:	429a      	cmp	r2, r3
 800369a:	d008      	beq.n	80036ae <HAL_SPI_Init+0xaa>
 800369c:	687b      	ldr	r3, [r7, #4]
 800369e:	68da      	ldr	r2, [r3, #12]
 80036a0:	23e0      	movs	r3, #224	@ 0xe0
 80036a2:	00db      	lsls	r3, r3, #3
 80036a4:	429a      	cmp	r2, r3
 80036a6:	d002      	beq.n	80036ae <HAL_SPI_Init+0xaa>
  {
    /* CRC must be disabled */
    hspi->Init.CRCCalculation = SPI_CRCCALCULATION_DISABLE;
 80036a8:	687b      	ldr	r3, [r7, #4]
 80036aa:	2200      	movs	r2, #0
 80036ac:	629a      	str	r2, [r3, #40]	@ 0x28
  }

  /*----------------------- SPIx CR1 & CR2 Configuration ---------------------*/
  /* Configure : SPI Mode, Communication Mode, Clock polarity and phase, NSS management,
  Communication speed, First bit and CRC calculation state */
  WRITE_REG(hspi->Instance->CR1, ((hspi->Init.Mode & (SPI_CR1_MSTR | SPI_CR1_SSI)) |
 80036ae:	687b      	ldr	r3, [r7, #4]
 80036b0:	685a      	ldr	r2, [r3, #4]
 80036b2:	2382      	movs	r3, #130	@ 0x82
 80036b4:	005b      	lsls	r3, r3, #1
 80036b6:	401a      	ands	r2, r3
 80036b8:	687b      	ldr	r3, [r7, #4]
 80036ba:	6899      	ldr	r1, [r3, #8]
 80036bc:	2384      	movs	r3, #132	@ 0x84
 80036be:	021b      	lsls	r3, r3, #8
 80036c0:	400b      	ands	r3, r1
 80036c2:	431a      	orrs	r2, r3
 80036c4:	687b      	ldr	r3, [r7, #4]
 80036c6:	691b      	ldr	r3, [r3, #16]
 80036c8:	2102      	movs	r1, #2
 80036ca:	400b      	ands	r3, r1
 80036cc:	431a      	orrs	r2, r3
 80036ce:	687b      	ldr	r3, [r7, #4]
 80036d0:	695b      	ldr	r3, [r3, #20]
 80036d2:	2101      	movs	r1, #1
 80036d4:	400b      	ands	r3, r1
 80036d6:	431a      	orrs	r2, r3
 80036d8:	687b      	ldr	r3, [r7, #4]
 80036da:	6999      	ldr	r1, [r3, #24]
 80036dc:	2380      	movs	r3, #128	@ 0x80
 80036de:	009b      	lsls	r3, r3, #2
 80036e0:	400b      	ands	r3, r1
 80036e2:	431a      	orrs	r2, r3
 80036e4:	687b      	ldr	r3, [r7, #4]
 80036e6:	69db      	ldr	r3, [r3, #28]
 80036e8:	2138      	movs	r1, #56	@ 0x38
 80036ea:	400b      	ands	r3, r1
 80036ec:	431a      	orrs	r2, r3
 80036ee:	687b      	ldr	r3, [r7, #4]
 80036f0:	6a1b      	ldr	r3, [r3, #32]
 80036f2:	2180      	movs	r1, #128	@ 0x80
 80036f4:	400b      	ands	r3, r1
 80036f6:	431a      	orrs	r2, r3
 80036f8:	0011      	movs	r1, r2
 80036fa:	687b      	ldr	r3, [r7, #4]
 80036fc:	6a9a      	ldr	r2, [r3, #40]	@ 0x28
 80036fe:	2380      	movs	r3, #128	@ 0x80
 8003700:	019b      	lsls	r3, r3, #6
 8003702:	401a      	ands	r2, r3
 8003704:	687b      	ldr	r3, [r7, #4]
 8003706:	681b      	ldr	r3, [r3, #0]
 8003708:	430a      	orrs	r2, r1
 800370a:	601a      	str	r2, [r3, #0]
    }
  }
#endif /* USE_SPI_CRC */

  /* Configure : NSS management, TI Mode, NSS Pulse, Data size and Rx Fifo threshold */
  WRITE_REG(hspi->Instance->CR2, (((hspi->Init.NSS >> 16U) & SPI_CR2_SSOE) |
 800370c:	687b      	ldr	r3, [r7, #4]
 800370e:	699b      	ldr	r3, [r3, #24]
 8003710:	0c1b      	lsrs	r3, r3, #16
 8003712:	2204      	movs	r2, #4
 8003714:	401a      	ands	r2, r3
 8003716:	687b      	ldr	r3, [r7, #4]
 8003718:	6a5b      	ldr	r3, [r3, #36]	@ 0x24
 800371a:	2110      	movs	r1, #16
 800371c:	400b      	ands	r3, r1
 800371e:	431a      	orrs	r2, r3
 8003720:	687b      	ldr	r3, [r7, #4]
 8003722:	6b5b      	ldr	r3, [r3, #52]	@ 0x34
 8003724:	2108      	movs	r1, #8
 8003726:	400b      	ands	r3, r1
 8003728:	431a      	orrs	r2, r3
 800372a:	687b      	ldr	r3, [r7, #4]
 800372c:	68d9      	ldr	r1, [r3, #12]
 800372e:	23f0      	movs	r3, #240	@ 0xf0
 8003730:	011b      	lsls	r3, r3, #4
 8003732:	400b      	ands	r3, r1
 8003734:	431a      	orrs	r2, r3
 8003736:	0011      	movs	r1, r2
 8003738:	68fa      	ldr	r2, [r7, #12]
 800373a:	2380      	movs	r3, #128	@ 0x80
 800373c:	015b      	lsls	r3, r3, #5
 800373e:	401a      	ands	r2, r3
 8003740:	687b      	ldr	r3, [r7, #4]
 8003742:	681b      	ldr	r3, [r3, #0]
 8003744:	430a      	orrs	r2, r1
 8003746:	605a      	str	r2, [r3, #4]
  }
#endif /* USE_SPI_CRC */

#if defined(SPI_I2SCFGR_I2SMOD)
  /* Activate the SPI mode (Make sure that I2SMOD bit in I2SCFGR register is reset) */
  CLEAR_BIT(hspi->Instance->I2SCFGR, SPI_I2SCFGR_I2SMOD);
 8003748:	687b      	ldr	r3, [r7, #4]
 800374a:	681b      	ldr	r3, [r3, #0]
 800374c:	69da      	ldr	r2, [r3, #28]
 800374e:	687b      	ldr	r3, [r7, #4]
 8003750:	681b      	ldr	r3, [r3, #0]
 8003752:	4907      	ldr	r1, [pc, #28]	@ (8003770 <HAL_SPI_Init+0x16c>)
 8003754:	400a      	ands	r2, r1
 8003756:	61da      	str	r2, [r3, #28]
#endif /* SPI_I2SCFGR_I2SMOD */

  hspi->ErrorCode = HAL_SPI_ERROR_NONE;
 8003758:	687b      	ldr	r3, [r7, #4]
 800375a:	2200      	movs	r2, #0
 800375c:	661a      	str	r2, [r3, #96]	@ 0x60
  hspi->State     = HAL_SPI_STATE_READY;
 800375e:	687b      	ldr	r3, [r7, #4]
 8003760:	225d      	movs	r2, #93	@ 0x5d
 8003762:	2101      	movs	r1, #1
 8003764:	5499      	strb	r1, [r3, r2]

  return HAL_OK;
 8003766:	2300      	movs	r3, #0
}
 8003768:	0018      	movs	r0, r3
 800376a:	46bd      	mov	sp, r7
 800376c:	b004      	add	sp, #16
 800376e:	bd80      	pop	{r7, pc}
 8003770:	fffff7ff 	.word	0xfffff7ff

08003774 <HAL_TIM_Base_Init>:
  *         Ex: call @ref HAL_TIM_Base_DeInit() before HAL_TIM_Base_Init()
  * @param  htim TIM Base handle
  * @retval HAL status
  */
HAL_StatusTypeDef HAL_TIM_Base_Init(TIM_HandleTypeDef *htim)
{
 8003774:	b580      	push	{r7, lr}
 8003776:	b082      	sub	sp, #8
 8003778:	af00      	add	r7, sp, #0
 800377a:	6078      	str	r0, [r7, #4]
  /* Check the TIM handle allocation */
  if (htim == NULL)
 800377c:	687b      	ldr	r3, [r7, #4]
 800377e:	2b00      	cmp	r3, #0
 8003780:	d101      	bne.n	8003786 <HAL_TIM_Base_Init+0x12>
  {
    return HAL_ERROR;
 8003782:	2301      	movs	r3, #1
 8003784:	e04a      	b.n	800381c <HAL_TIM_Base_Init+0xa8>
  assert_param(IS_TIM_COUNTER_MODE(htim->Init.CounterMode));
  assert_param(IS_TIM_CLOCKDIVISION_DIV(htim->Init.ClockDivision));
  assert_param(IS_TIM_PERIOD(htim, htim->Init.Period));
  assert_param(IS_TIM_AUTORELOAD_PRELOAD(htim->Init.AutoReloadPreload));

  if (htim->State == HAL_TIM_STATE_RESET)
 8003786:	687b      	ldr	r3, [r7, #4]
 8003788:	223d      	movs	r2, #61	@ 0x3d
 800378a:	5c9b      	ldrb	r3, [r3, r2]
 800378c:	b2db      	uxtb	r3, r3
 800378e:	2b00      	cmp	r3, #0
 8003790:	d107      	bne.n	80037a2 <HAL_TIM_Base_Init+0x2e>
  {
    /* Allocate lock resource and initialize it */
    htim->Lock = HAL_UNLOCKED;
 8003792:	687b      	ldr	r3, [r7, #4]
 8003794:	223c      	movs	r2, #60	@ 0x3c
 8003796:	2100      	movs	r1, #0
 8003798:	5499      	strb	r1, [r3, r2]
    }
    /* Init the low level hardware : GPIO, CLOCK, NVIC */
    htim->Base_MspInitCallback(htim);
#else
    /* Init the low level hardware : GPIO, CLOCK, NVIC */
    HAL_TIM_Base_MspInit(htim);
 800379a:	687b      	ldr	r3, [r7, #4]
 800379c:	0018      	movs	r0, r3
 800379e:	f7fe fa0d 	bl	8001bbc <HAL_TIM_Base_MspInit>
#endif /* USE_HAL_TIM_REGISTER_CALLBACKS */
  }

  /* Set the TIM state */
  htim->State = HAL_TIM_STATE_BUSY;
 80037a2:	687b      	ldr	r3, [r7, #4]
 80037a4:	223d      	movs	r2, #61	@ 0x3d
 80037a6:	2102      	movs	r1, #2
 80037a8:	5499      	strb	r1, [r3, r2]

  /* Set the Time Base configuration */
  TIM_Base_SetConfig(htim->Instance, &htim->Init);
 80037aa:	687b      	ldr	r3, [r7, #4]
 80037ac:	681a      	ldr	r2, [r3, #0]
 80037ae:	687b      	ldr	r3, [r7, #4]
 80037b0:	3304      	adds	r3, #4
 80037b2:	0019      	movs	r1, r3
 80037b4:	0010      	movs	r0, r2
 80037b6:	f000 fb43 	bl	8003e40 <TIM_Base_SetConfig>

  /* Initialize the DMA burst operation state */
  htim->DMABurstState = HAL_DMA_BURST_STATE_READY;
 80037ba:	687b      	ldr	r3, [r7, #4]
 80037bc:	2248      	movs	r2, #72	@ 0x48
 80037be:	2101      	movs	r1, #1
 80037c0:	5499      	strb	r1, [r3, r2]

  /* Initialize the TIM channels state */
  TIM_CHANNEL_STATE_SET_ALL(htim, HAL_TIM_CHANNEL_STATE_READY);
 80037c2:	687b      	ldr	r3, [r7, #4]
 80037c4:	223e      	movs	r2, #62	@ 0x3e
 80037c6:	2101      	movs	r1, #1
 80037c8:	5499      	strb	r1, [r3, r2]
 80037ca:	687b      	ldr	r3, [r7, #4]
 80037cc:	223f      	movs	r2, #63	@ 0x3f
 80037ce:	2101      	movs	r1, #1
 80037d0:	5499      	strb	r1, [r3, r2]
 80037d2:	687b      	ldr	r3, [r7, #4]
 80037d4:	2240      	movs	r2, #64	@ 0x40
 80037d6:	2101      	movs	r1, #1
 80037d8:	5499      	strb	r1, [r3, r2]
 80037da:	687b      	ldr	r3, [r7, #4]
 80037dc:	2241      	movs	r2, #65	@ 0x41
 80037de:	2101      	movs	r1, #1
 80037e0:	5499      	strb	r1, [r3, r2]
 80037e2:	687b      	ldr	r3, [r7, #4]
 80037e4:	2242      	movs	r2, #66	@ 0x42
 80037e6:	2101      	movs	r1, #1
 80037e8:	5499      	strb	r1, [r3, r2]
 80037ea:	687b      	ldr	r3, [r7, #4]
 80037ec:	2243      	movs	r2, #67	@ 0x43
 80037ee:	2101      	movs	r1, #1
 80037f0:	5499      	strb	r1, [r3, r2]
  TIM_CHANNEL_N_STATE_SET_ALL(htim, HAL_TIM_CHANNEL_STATE_READY);
 80037f2:	687b      	ldr	r3, [r7, #4]
 80037f4:	2244      	movs	r2, #68	@ 0x44
 80037f6:	2101      	movs	r1, #1
 80037f8:	5499      	strb	r1, [r3, r2]
 80037fa:	687b      	ldr	r3, [r7, #4]
 80037fc:	2245      	movs	r2, #69	@ 0x45
 80037fe:	2101      	movs	r1, #1
 8003800:	5499      	strb	r1, [r3, r2]
 8003802:	687b      	ldr	r3, [r7, #4]
 8003804:	2246      	movs	r2, #70	@ 0x46
 8003806:	2101      	movs	r1, #1
 8003808:	5499      	strb	r1, [r3, r2]
 800380a:	687b      	ldr	r3, [r7, #4]
 800380c:	2247      	movs	r2, #71	@ 0x47
 800380e:	2101      	movs	r1, #1
 8003810:	5499      	strb	r1, [r3, r2]

  /* Initialize the TIM state*/
  htim->State = HAL_TIM_STATE_READY;
 8003812:	687b      	ldr	r3, [r7, #4]
 8003814:	223d      	movs	r2, #61	@ 0x3d
 8003816:	2101      	movs	r1, #1
 8003818:	5499      	strb	r1, [r3, r2]

  return HAL_OK;
 800381a:	2300      	movs	r3, #0
}
 800381c:	0018      	movs	r0, r3
 800381e:	46bd      	mov	sp, r7
 8003820:	b002      	add	sp, #8
 8003822:	bd80      	pop	{r7, pc}

08003824 <HAL_TIM_PWM_Init>:
  *         Ex: call @ref HAL_TIM_PWM_DeInit() before HAL_TIM_PWM_Init()
  * @param  htim TIM PWM handle
  * @retval HAL status
  */
HAL_StatusTypeDef HAL_TIM_PWM_Init(TIM_HandleTypeDef *htim)
{
 8003824:	b580      	push	{r7, lr}
 8003826:	b082      	sub	sp, #8
 8003828:	af00      	add	r7, sp, #0
 800382a:	6078      	str	r0, [r7, #4]
  /* Check the TIM handle allocation */
  if (htim == NULL)
 800382c:	687b      	ldr	r3, [r7, #4]
 800382e:	2b00      	cmp	r3, #0
 8003830:	d101      	bne.n	8003836 <HAL_TIM_PWM_Init+0x12>
  {
    return HAL_ERROR;
 8003832:	2301      	movs	r3, #1
 8003834:	e04a      	b.n	80038cc <HAL_TIM_PWM_Init+0xa8>
  assert_param(IS_TIM_COUNTER_MODE(htim->Init.CounterMode));
  assert_param(IS_TIM_CLOCKDIVISION_DIV(htim->Init.ClockDivision));
  assert_param(IS_TIM_PERIOD(htim, htim->Init.Period));
  assert_param(IS_TIM_AUTORELOAD_PRELOAD(htim->Init.AutoReloadPreload));

  if (htim->State == HAL_TIM_STATE_RESET)
 8003836:	687b      	ldr	r3, [r7, #4]
 8003838:	223d      	movs	r2, #61	@ 0x3d
 800383a:	5c9b      	ldrb	r3, [r3, r2]
 800383c:	b2db      	uxtb	r3, r3
 800383e:	2b00      	cmp	r3, #0
 8003840:	d107      	bne.n	8003852 <HAL_TIM_PWM_Init+0x2e>
  {
    /* Allocate lock resource and initialize it */
    htim->Lock = HAL_UNLOCKED;
 8003842:	687b      	ldr	r3, [r7, #4]
 8003844:	223c      	movs	r2, #60	@ 0x3c
 8003846:	2100      	movs	r1, #0
 8003848:	5499      	strb	r1, [r3, r2]
    }
    /* Init the low level hardware : GPIO, CLOCK, NVIC */
    htim->PWM_MspInitCallback(htim);
#else
    /* Init the low level hardware : GPIO, CLOCK, NVIC and DMA */
    HAL_TIM_PWM_MspInit(htim);
 800384a:	687b      	ldr	r3, [r7, #4]
 800384c:	0018      	movs	r0, r3
 800384e:	f000 f841 	bl	80038d4 <HAL_TIM_PWM_MspInit>
#endif /* USE_HAL_TIM_REGISTER_CALLBACKS */
  }

  /* Set the TIM state */
  htim->State = HAL_TIM_STATE_BUSY;
 8003852:	687b      	ldr	r3, [r7, #4]
 8003854:	223d      	movs	r2, #61	@ 0x3d
 8003856:	2102      	movs	r1, #2
 8003858:	5499      	strb	r1, [r3, r2]

  /* Init the base time for the PWM */
  TIM_Base_SetConfig(htim->Instance, &htim->Init);
 800385a:	687b      	ldr	r3, [r7, #4]
 800385c:	681a      	ldr	r2, [r3, #0]
 800385e:	687b      	ldr	r3, [r7, #4]
 8003860:	3304      	adds	r3, #4
 8003862:	0019      	movs	r1, r3
 8003864:	0010      	movs	r0, r2
 8003866:	f000 faeb 	bl	8003e40 <TIM_Base_SetConfig>

  /* Initialize the DMA burst operation state */
  htim->DMABurstState = HAL_DMA_BURST_STATE_READY;
 800386a:	687b      	ldr	r3, [r7, #4]
 800386c:	2248      	movs	r2, #72	@ 0x48
 800386e:	2101      	movs	r1, #1
 8003870:	5499      	strb	r1, [r3, r2]

  /* Initialize the TIM channels state */
  TIM_CHANNEL_STATE_SET_ALL(htim, HAL_TIM_CHANNEL_STATE_READY);
 8003872:	687b      	ldr	r3, [r7, #4]
 8003874:	223e      	movs	r2, #62	@ 0x3e
 8003876:	2101      	movs	r1, #1
 8003878:	5499      	strb	r1, [r3, r2]
 800387a:	687b      	ldr	r3, [r7, #4]
 800387c:	223f      	movs	r2, #63	@ 0x3f
 800387e:	2101      	movs	r1, #1
 8003880:	5499      	strb	r1, [r3, r2]
 8003882:	687b      	ldr	r3, [r7, #4]
 8003884:	2240      	movs	r2, #64	@ 0x40
 8003886:	2101      	movs	r1, #1
 8003888:	5499      	strb	r1, [r3, r2]
 800388a:	687b      	ldr	r3, [r7, #4]
 800388c:	2241      	movs	r2, #65	@ 0x41
 800388e:	2101      	movs	r1, #1
 8003890:	5499      	strb	r1, [r3, r2]
 8003892:	687b      	ldr	r3, [r7, #4]
 8003894:	2242      	movs	r2, #66	@ 0x42
 8003896:	2101      	movs	r1, #1
 8003898:	5499      	strb	r1, [r3, r2]
 800389a:	687b      	ldr	r3, [r7, #4]
 800389c:	2243      	movs	r2, #67	@ 0x43
 800389e:	2101      	movs	r1, #1
 80038a0:	5499      	strb	r1, [r3, r2]
  TIM_CHANNEL_N_STATE_SET_ALL(htim, HAL_TIM_CHANNEL_STATE_READY);
 80038a2:	687b      	ldr	r3, [r7, #4]
 80038a4:	2244      	movs	r2, #68	@ 0x44
 80038a6:	2101      	movs	r1, #1
 80038a8:	5499      	strb	r1, [r3, r2]
 80038aa:	687b      	ldr	r3, [r7, #4]
 80038ac:	2245      	movs	r2, #69	@ 0x45
 80038ae:	2101      	movs	r1, #1
 80038b0:	5499      	strb	r1, [r3, r2]
 80038b2:	687b      	ldr	r3, [r7, #4]
 80038b4:	2246      	movs	r2, #70	@ 0x46
 80038b6:	2101      	movs	r1, #1
 80038b8:	5499      	strb	r1, [r3, r2]
 80038ba:	687b      	ldr	r3, [r7, #4]
 80038bc:	2247      	movs	r2, #71	@ 0x47
 80038be:	2101      	movs	r1, #1
 80038c0:	5499      	strb	r1, [r3, r2]

  /* Initialize the TIM state*/
  htim->State = HAL_TIM_STATE_READY;
 80038c2:	687b      	ldr	r3, [r7, #4]
 80038c4:	223d      	movs	r2, #61	@ 0x3d
 80038c6:	2101      	movs	r1, #1
 80038c8:	5499      	strb	r1, [r3, r2]

  return HAL_OK;
 80038ca:	2300      	movs	r3, #0
}
 80038cc:	0018      	movs	r0, r3
 80038ce:	46bd      	mov	sp, r7
 80038d0:	b002      	add	sp, #8
 80038d2:	bd80      	pop	{r7, pc}

080038d4 <HAL_TIM_PWM_MspInit>:
  * @brief  Initializes the TIM PWM MSP.
  * @param  htim TIM PWM handle
  * @retval None
  */
__weak void HAL_TIM_PWM_MspInit(TIM_HandleTypeDef *htim)
{
 80038d4:	b580      	push	{r7, lr}
 80038d6:	b082      	sub	sp, #8
 80038d8:	af00      	add	r7, sp, #0
 80038da:	6078      	str	r0, [r7, #4]
  UNUSED(htim);

  /* NOTE : This function should not be modified, when the callback is needed,
            the HAL_TIM_PWM_MspInit could be implemented in the user file
   */
}
 80038dc:	46c0      	nop			@ (mov r8, r8)
 80038de:	46bd      	mov	sp, r7
 80038e0:	b002      	add	sp, #8
 80038e2:	bd80      	pop	{r7, pc}

080038e4 <HAL_TIM_PWM_Start>:
  *            @arg TIM_CHANNEL_5: TIM Channel 5 selected
  *            @arg TIM_CHANNEL_6: TIM Channel 6 selected
  * @retval HAL status
  */
HAL_StatusTypeDef HAL_TIM_PWM_Start(TIM_HandleTypeDef *htim, uint32_t Channel)
{
 80038e4:	b580      	push	{r7, lr}
 80038e6:	b084      	sub	sp, #16
 80038e8:	af00      	add	r7, sp, #0
 80038ea:	6078      	str	r0, [r7, #4]
 80038ec:	6039      	str	r1, [r7, #0]

  /* Check the parameters */
  assert_param(IS_TIM_CCX_INSTANCE(htim->Instance, Channel));

  /* Check the TIM channel state */
  if (TIM_CHANNEL_STATE_GET(htim, Channel) != HAL_TIM_CHANNEL_STATE_READY)
 80038ee:	683b      	ldr	r3, [r7, #0]
 80038f0:	2b00      	cmp	r3, #0
 80038f2:	d108      	bne.n	8003906 <HAL_TIM_PWM_Start+0x22>
 80038f4:	687b      	ldr	r3, [r7, #4]
 80038f6:	223e      	movs	r2, #62	@ 0x3e
 80038f8:	5c9b      	ldrb	r3, [r3, r2]
 80038fa:	b2db      	uxtb	r3, r3
 80038fc:	3b01      	subs	r3, #1
 80038fe:	1e5a      	subs	r2, r3, #1
 8003900:	4193      	sbcs	r3, r2
 8003902:	b2db      	uxtb	r3, r3
 8003904:	e037      	b.n	8003976 <HAL_TIM_PWM_Start+0x92>
 8003906:	683b      	ldr	r3, [r7, #0]
 8003908:	2b04      	cmp	r3, #4
 800390a:	d108      	bne.n	800391e <HAL_TIM_PWM_Start+0x3a>
 800390c:	687b      	ldr	r3, [r7, #4]
 800390e:	223f      	movs	r2, #63	@ 0x3f
 8003910:	5c9b      	ldrb	r3, [r3, r2]
 8003912:	b2db      	uxtb	r3, r3
 8003914:	3b01      	subs	r3, #1
 8003916:	1e5a      	subs	r2, r3, #1
 8003918:	4193      	sbcs	r3, r2
 800391a:	b2db      	uxtb	r3, r3
 800391c:	e02b      	b.n	8003976 <HAL_TIM_PWM_Start+0x92>
 800391e:	683b      	ldr	r3, [r7, #0]
 8003920:	2b08      	cmp	r3, #8
 8003922:	d108      	bne.n	8003936 <HAL_TIM_PWM_Start+0x52>
 8003924:	687b      	ldr	r3, [r7, #4]
 8003926:	2240      	movs	r2, #64	@ 0x40
 8003928:	5c9b      	ldrb	r3, [r3, r2]
 800392a:	b2db      	uxtb	r3, r3
 800392c:	3b01      	subs	r3, #1
 800392e:	1e5a      	subs	r2, r3, #1
 8003930:	4193      	sbcs	r3, r2
 8003932:	b2db      	uxtb	r3, r3
 8003934:	e01f      	b.n	8003976 <HAL_TIM_PWM_Start+0x92>
 8003936:	683b      	ldr	r3, [r7, #0]
 8003938:	2b0c      	cmp	r3, #12
 800393a:	d108      	bne.n	800394e <HAL_TIM_PWM_Start+0x6a>
 800393c:	687b      	ldr	r3, [r7, #4]
 800393e:	2241      	movs	r2, #65	@ 0x41
 8003940:	5c9b      	ldrb	r3, [r3, r2]
 8003942:	b2db      	uxtb	r3, r3
 8003944:	3b01      	subs	r3, #1
 8003946:	1e5a      	subs	r2, r3, #1
 8003948:	4193      	sbcs	r3, r2
 800394a:	b2db      	uxtb	r3, r3
 800394c:	e013      	b.n	8003976 <HAL_TIM_PWM_Start+0x92>
 800394e:	683b      	ldr	r3, [r7, #0]
 8003950:	2b10      	cmp	r3, #16
 8003952:	d108      	bne.n	8003966 <HAL_TIM_PWM_Start+0x82>
 8003954:	687b      	ldr	r3, [r7, #4]
 8003956:	2242      	movs	r2, #66	@ 0x42
 8003958:	5c9b      	ldrb	r3, [r3, r2]
 800395a:	b2db      	uxtb	r3, r3
 800395c:	3b01      	subs	r3, #1
 800395e:	1e5a      	subs	r2, r3, #1
 8003960:	4193      	sbcs	r3, r2
 8003962:	b2db      	uxtb	r3, r3
 8003964:	e007      	b.n	8003976 <HAL_TIM_PWM_Start+0x92>
 8003966:	687b      	ldr	r3, [r7, #4]
 8003968:	2243      	movs	r2, #67	@ 0x43
 800396a:	5c9b      	ldrb	r3, [r3, r2]
 800396c:	b2db      	uxtb	r3, r3
 800396e:	3b01      	subs	r3, #1
 8003970:	1e5a      	subs	r2, r3, #1
 8003972:	4193      	sbcs	r3, r2
 8003974:	b2db      	uxtb	r3, r3
 8003976:	2b00      	cmp	r3, #0
 8003978:	d001      	beq.n	800397e <HAL_TIM_PWM_Start+0x9a>
  {
    return HAL_ERROR;
 800397a:	2301      	movs	r3, #1
 800397c:	e07b      	b.n	8003a76 <HAL_TIM_PWM_Start+0x192>
  }

  /* Set the TIM channel state */
  TIM_CHANNEL_STATE_SET(htim, Channel, HAL_TIM_CHANNEL_STATE_BUSY);
 800397e:	683b      	ldr	r3, [r7, #0]
 8003980:	2b00      	cmp	r3, #0
 8003982:	d104      	bne.n	800398e <HAL_TIM_PWM_Start+0xaa>
 8003984:	687b      	ldr	r3, [r7, #4]
 8003986:	223e      	movs	r2, #62	@ 0x3e
 8003988:	2102      	movs	r1, #2
 800398a:	5499      	strb	r1, [r3, r2]
 800398c:	e023      	b.n	80039d6 <HAL_TIM_PWM_Start+0xf2>
 800398e:	683b      	ldr	r3, [r7, #0]
 8003990:	2b04      	cmp	r3, #4
 8003992:	d104      	bne.n	800399e <HAL_TIM_PWM_Start+0xba>
 8003994:	687b      	ldr	r3, [r7, #4]
 8003996:	223f      	movs	r2, #63	@ 0x3f
 8003998:	2102      	movs	r1, #2
 800399a:	5499      	strb	r1, [r3, r2]
 800399c:	e01b      	b.n	80039d6 <HAL_TIM_PWM_Start+0xf2>
 800399e:	683b      	ldr	r3, [r7, #0]
 80039a0:	2b08      	cmp	r3, #8
 80039a2:	d104      	bne.n	80039ae <HAL_TIM_PWM_Start+0xca>
 80039a4:	687b      	ldr	r3, [r7, #4]
 80039a6:	2240      	movs	r2, #64	@ 0x40
 80039a8:	2102      	movs	r1, #2
 80039aa:	5499      	strb	r1, [r3, r2]
 80039ac:	e013      	b.n	80039d6 <HAL_TIM_PWM_Start+0xf2>
 80039ae:	683b      	ldr	r3, [r7, #0]
 80039b0:	2b0c      	cmp	r3, #12
 80039b2:	d104      	bne.n	80039be <HAL_TIM_PWM_Start+0xda>
 80039b4:	687b      	ldr	r3, [r7, #4]
 80039b6:	2241      	movs	r2, #65	@ 0x41
 80039b8:	2102      	movs	r1, #2
 80039ba:	5499      	strb	r1, [r3, r2]
 80039bc:	e00b      	b.n	80039d6 <HAL_TIM_PWM_Start+0xf2>
 80039be:	683b      	ldr	r3, [r7, #0]
 80039c0:	2b10      	cmp	r3, #16
 80039c2:	d104      	bne.n	80039ce <HAL_TIM_PWM_Start+0xea>
 80039c4:	687b      	ldr	r3, [r7, #4]
 80039c6:	2242      	movs	r2, #66	@ 0x42
 80039c8:	2102      	movs	r1, #2
 80039ca:	5499      	strb	r1, [r3, r2]
 80039cc:	e003      	b.n	80039d6 <HAL_TIM_PWM_Start+0xf2>
 80039ce:	687b      	ldr	r3, [r7, #4]
 80039d0:	2243      	movs	r2, #67	@ 0x43
 80039d2:	2102      	movs	r1, #2
 80039d4:	5499      	strb	r1, [r3, r2]

  /* Enable the Capture compare channel */
  TIM_CCxChannelCmd(htim->Instance, Channel, TIM_CCx_ENABLE);
 80039d6:	687b      	ldr	r3, [r7, #4]
 80039d8:	681b      	ldr	r3, [r3, #0]
 80039da:	6839      	ldr	r1, [r7, #0]
 80039dc:	2201      	movs	r2, #1
 80039de:	0018      	movs	r0, r3
 80039e0:	f000 fdd8 	bl	8004594 <TIM_CCxChannelCmd>

  if (IS_TIM_BREAK_INSTANCE(htim->Instance) != RESET)
 80039e4:	687b      	ldr	r3, [r7, #4]
 80039e6:	681b      	ldr	r3, [r3, #0]
 80039e8:	4a25      	ldr	r2, [pc, #148]	@ (8003a80 <HAL_TIM_PWM_Start+0x19c>)
 80039ea:	4293      	cmp	r3, r2
 80039ec:	d009      	beq.n	8003a02 <HAL_TIM_PWM_Start+0x11e>
 80039ee:	687b      	ldr	r3, [r7, #4]
 80039f0:	681b      	ldr	r3, [r3, #0]
 80039f2:	4a24      	ldr	r2, [pc, #144]	@ (8003a84 <HAL_TIM_PWM_Start+0x1a0>)
 80039f4:	4293      	cmp	r3, r2
 80039f6:	d004      	beq.n	8003a02 <HAL_TIM_PWM_Start+0x11e>
 80039f8:	687b      	ldr	r3, [r7, #4]
 80039fa:	681b      	ldr	r3, [r3, #0]
 80039fc:	4a22      	ldr	r2, [pc, #136]	@ (8003a88 <HAL_TIM_PWM_Start+0x1a4>)
 80039fe:	4293      	cmp	r3, r2
 8003a00:	d101      	bne.n	8003a06 <HAL_TIM_PWM_Start+0x122>
 8003a02:	2301      	movs	r3, #1
 8003a04:	e000      	b.n	8003a08 <HAL_TIM_PWM_Start+0x124>
 8003a06:	2300      	movs	r3, #0
 8003a08:	2b00      	cmp	r3, #0
 8003a0a:	d008      	beq.n	8003a1e <HAL_TIM_PWM_Start+0x13a>
  {
    /* Enable the main output */
    __HAL_TIM_MOE_ENABLE(htim);
 8003a0c:	687b      	ldr	r3, [r7, #4]
 8003a0e:	681b      	ldr	r3, [r3, #0]
 8003a10:	6c5a      	ldr	r2, [r3, #68]	@ 0x44
 8003a12:	687b      	ldr	r3, [r7, #4]
 8003a14:	681b      	ldr	r3, [r3, #0]
 8003a16:	2180      	movs	r1, #128	@ 0x80
 8003a18:	0209      	lsls	r1, r1, #8
 8003a1a:	430a      	orrs	r2, r1
 8003a1c:	645a      	str	r2, [r3, #68]	@ 0x44
  }

  /* Enable the Peripheral, except in trigger mode where enable is automatically done with trigger */
  if (IS_TIM_SLAVE_INSTANCE(htim->Instance))
 8003a1e:	687b      	ldr	r3, [r7, #4]
 8003a20:	681b      	ldr	r3, [r3, #0]
 8003a22:	4a17      	ldr	r2, [pc, #92]	@ (8003a80 <HAL_TIM_PWM_Start+0x19c>)
 8003a24:	4293      	cmp	r3, r2
 8003a26:	d004      	beq.n	8003a32 <HAL_TIM_PWM_Start+0x14e>
 8003a28:	687b      	ldr	r3, [r7, #4]
 8003a2a:	681b      	ldr	r3, [r3, #0]
 8003a2c:	4a17      	ldr	r2, [pc, #92]	@ (8003a8c <HAL_TIM_PWM_Start+0x1a8>)
 8003a2e:	4293      	cmp	r3, r2
 8003a30:	d116      	bne.n	8003a60 <HAL_TIM_PWM_Start+0x17c>
  {
    tmpsmcr = htim->Instance->SMCR & TIM_SMCR_SMS;
 8003a32:	687b      	ldr	r3, [r7, #4]
 8003a34:	681b      	ldr	r3, [r3, #0]
 8003a36:	689b      	ldr	r3, [r3, #8]
 8003a38:	4a15      	ldr	r2, [pc, #84]	@ (8003a90 <HAL_TIM_PWM_Start+0x1ac>)
 8003a3a:	4013      	ands	r3, r2
 8003a3c:	60fb      	str	r3, [r7, #12]
    if (!IS_TIM_SLAVEMODE_TRIGGER_ENABLED(tmpsmcr))
 8003a3e:	68fb      	ldr	r3, [r7, #12]
 8003a40:	2b06      	cmp	r3, #6
 8003a42:	d016      	beq.n	8003a72 <HAL_TIM_PWM_Start+0x18e>
 8003a44:	68fa      	ldr	r2, [r7, #12]
 8003a46:	2380      	movs	r3, #128	@ 0x80
 8003a48:	025b      	lsls	r3, r3, #9
 8003a4a:	429a      	cmp	r2, r3
 8003a4c:	d011      	beq.n	8003a72 <HAL_TIM_PWM_Start+0x18e>
    {
      __HAL_TIM_ENABLE(htim);
 8003a4e:	687b      	ldr	r3, [r7, #4]
 8003a50:	681b      	ldr	r3, [r3, #0]
 8003a52:	681a      	ldr	r2, [r3, #0]
 8003a54:	687b      	ldr	r3, [r7, #4]
 8003a56:	681b      	ldr	r3, [r3, #0]
 8003a58:	2101      	movs	r1, #1
 8003a5a:	430a      	orrs	r2, r1
 8003a5c:	601a      	str	r2, [r3, #0]
    if (!IS_TIM_SLAVEMODE_TRIGGER_ENABLED(tmpsmcr))
 8003a5e:	e008      	b.n	8003a72 <HAL_TIM_PWM_Start+0x18e>
    }
  }
  else
  {
    __HAL_TIM_ENABLE(htim);
 8003a60:	687b      	ldr	r3, [r7, #4]
 8003a62:	681b      	ldr	r3, [r3, #0]
 8003a64:	681a      	ldr	r2, [r3, #0]
 8003a66:	687b      	ldr	r3, [r7, #4]
 8003a68:	681b      	ldr	r3, [r3, #0]
 8003a6a:	2101      	movs	r1, #1
 8003a6c:	430a      	orrs	r2, r1
 8003a6e:	601a      	str	r2, [r3, #0]
 8003a70:	e000      	b.n	8003a74 <HAL_TIM_PWM_Start+0x190>
    if (!IS_TIM_SLAVEMODE_TRIGGER_ENABLED(tmpsmcr))
 8003a72:	46c0      	nop			@ (mov r8, r8)
  }

  /* Return function status */
  return HAL_OK;
 8003a74:	2300      	movs	r3, #0
}
 8003a76:	0018      	movs	r0, r3
 8003a78:	46bd      	mov	sp, r7
 8003a7a:	b004      	add	sp, #16
 8003a7c:	bd80      	pop	{r7, pc}
 8003a7e:	46c0      	nop			@ (mov r8, r8)
 8003a80:	40012c00 	.word	0x40012c00
 8003a84:	40014400 	.word	0x40014400
 8003a88:	40014800 	.word	0x40014800
 8003a8c:	40000400 	.word	0x40000400
 8003a90:	00010007 	.word	0x00010007

08003a94 <HAL_TIM_PWM_ConfigChannel>:
  * @retval HAL status
  */
HAL_StatusTypeDef HAL_TIM_PWM_ConfigChannel(TIM_HandleTypeDef *htim,
                                            const TIM_OC_InitTypeDef *sConfig,
                                            uint32_t Channel)
{
 8003a94:	b580      	push	{r7, lr}
 8003a96:	b086      	sub	sp, #24
 8003a98:	af00      	add	r7, sp, #0
 8003a9a:	60f8      	str	r0, [r7, #12]
 8003a9c:	60b9      	str	r1, [r7, #8]
 8003a9e:	607a      	str	r2, [r7, #4]
  HAL_StatusTypeDef status = HAL_OK;
 8003aa0:	2317      	movs	r3, #23
 8003aa2:	18fb      	adds	r3, r7, r3
 8003aa4:	2200      	movs	r2, #0
 8003aa6:	701a      	strb	r2, [r3, #0]
  assert_param(IS_TIM_PWM_MODE(sConfig->OCMode));
  assert_param(IS_TIM_OC_POLARITY(sConfig->OCPolarity));
  assert_param(IS_TIM_FAST_STATE(sConfig->OCFastMode));

  /* Process Locked */
  __HAL_LOCK(htim);
 8003aa8:	68fb      	ldr	r3, [r7, #12]
 8003aaa:	223c      	movs	r2, #60	@ 0x3c
 8003aac:	5c9b      	ldrb	r3, [r3, r2]
 8003aae:	2b01      	cmp	r3, #1
 8003ab0:	d101      	bne.n	8003ab6 <HAL_TIM_PWM_ConfigChannel+0x22>
 8003ab2:	2302      	movs	r3, #2
 8003ab4:	e0e5      	b.n	8003c82 <HAL_TIM_PWM_ConfigChannel+0x1ee>
 8003ab6:	68fb      	ldr	r3, [r7, #12]
 8003ab8:	223c      	movs	r2, #60	@ 0x3c
 8003aba:	2101      	movs	r1, #1
 8003abc:	5499      	strb	r1, [r3, r2]

  switch (Channel)
 8003abe:	687b      	ldr	r3, [r7, #4]
 8003ac0:	2b14      	cmp	r3, #20
 8003ac2:	d900      	bls.n	8003ac6 <HAL_TIM_PWM_ConfigChannel+0x32>
 8003ac4:	e0d1      	b.n	8003c6a <HAL_TIM_PWM_ConfigChannel+0x1d6>
 8003ac6:	687b      	ldr	r3, [r7, #4]
 8003ac8:	009a      	lsls	r2, r3, #2
 8003aca:	4b70      	ldr	r3, [pc, #448]	@ (8003c8c <HAL_TIM_PWM_ConfigChannel+0x1f8>)
 8003acc:	18d3      	adds	r3, r2, r3
 8003ace:	681b      	ldr	r3, [r3, #0]
 8003ad0:	469f      	mov	pc, r3
    {
      /* Check the parameters */
      assert_param(IS_TIM_CC1_INSTANCE(htim->Instance));

      /* Configure the Channel 1 in PWM mode */
      TIM_OC1_SetConfig(htim->Instance, sConfig);
 8003ad2:	68fb      	ldr	r3, [r7, #12]
 8003ad4:	681b      	ldr	r3, [r3, #0]
 8003ad6:	68ba      	ldr	r2, [r7, #8]
 8003ad8:	0011      	movs	r1, r2
 8003ada:	0018      	movs	r0, r3
 8003adc:	f000 fa22 	bl	8003f24 <TIM_OC1_SetConfig>

      /* Set the Preload enable bit for channel1 */
      htim->Instance->CCMR1 |= TIM_CCMR1_OC1PE;
 8003ae0:	68fb      	ldr	r3, [r7, #12]
 8003ae2:	681b      	ldr	r3, [r3, #0]
 8003ae4:	699a      	ldr	r2, [r3, #24]
 8003ae6:	68fb      	ldr	r3, [r7, #12]
 8003ae8:	681b      	ldr	r3, [r3, #0]
 8003aea:	2108      	movs	r1, #8
 8003aec:	430a      	orrs	r2, r1
 8003aee:	619a      	str	r2, [r3, #24]

      /* Configure the Output Fast mode */
      htim->Instance->CCMR1 &= ~TIM_CCMR1_OC1FE;
 8003af0:	68fb      	ldr	r3, [r7, #12]
 8003af2:	681b      	ldr	r3, [r3, #0]
 8003af4:	699a      	ldr	r2, [r3, #24]
 8003af6:	68fb      	ldr	r3, [r7, #12]
 8003af8:	681b      	ldr	r3, [r3, #0]
 8003afa:	2104      	movs	r1, #4
 8003afc:	438a      	bics	r2, r1
 8003afe:	619a      	str	r2, [r3, #24]
      htim->Instance->CCMR1 |= sConfig->OCFastMode;
 8003b00:	68fb      	ldr	r3, [r7, #12]
 8003b02:	681b      	ldr	r3, [r3, #0]
 8003b04:	6999      	ldr	r1, [r3, #24]
 8003b06:	68bb      	ldr	r3, [r7, #8]
 8003b08:	691a      	ldr	r2, [r3, #16]
 8003b0a:	68fb      	ldr	r3, [r7, #12]
 8003b0c:	681b      	ldr	r3, [r3, #0]
 8003b0e:	430a      	orrs	r2, r1
 8003b10:	619a      	str	r2, [r3, #24]
      break;
 8003b12:	e0af      	b.n	8003c74 <HAL_TIM_PWM_ConfigChannel+0x1e0>
    {
      /* Check the parameters */
      assert_param(IS_TIM_CC2_INSTANCE(htim->Instance));

      /* Configure the Channel 2 in PWM mode */
      TIM_OC2_SetConfig(htim->Instance, sConfig);
 8003b14:	68fb      	ldr	r3, [r7, #12]
 8003b16:	681b      	ldr	r3, [r3, #0]
 8003b18:	68ba      	ldr	r2, [r7, #8]
 8003b1a:	0011      	movs	r1, r2
 8003b1c:	0018      	movs	r0, r3
 8003b1e:	f000 fa81 	bl	8004024 <TIM_OC2_SetConfig>

      /* Set the Preload enable bit for channel2 */
      htim->Instance->CCMR1 |= TIM_CCMR1_OC2PE;
 8003b22:	68fb      	ldr	r3, [r7, #12]
 8003b24:	681b      	ldr	r3, [r3, #0]
 8003b26:	699a      	ldr	r2, [r3, #24]
 8003b28:	68fb      	ldr	r3, [r7, #12]
 8003b2a:	681b      	ldr	r3, [r3, #0]
 8003b2c:	2180      	movs	r1, #128	@ 0x80
 8003b2e:	0109      	lsls	r1, r1, #4
 8003b30:	430a      	orrs	r2, r1
 8003b32:	619a      	str	r2, [r3, #24]

      /* Configure the Output Fast mode */
      htim->Instance->CCMR1 &= ~TIM_CCMR1_OC2FE;
 8003b34:	68fb      	ldr	r3, [r7, #12]
 8003b36:	681b      	ldr	r3, [r3, #0]
 8003b38:	699a      	ldr	r2, [r3, #24]
 8003b3a:	68fb      	ldr	r3, [r7, #12]
 8003b3c:	681b      	ldr	r3, [r3, #0]
 8003b3e:	4954      	ldr	r1, [pc, #336]	@ (8003c90 <HAL_TIM_PWM_ConfigChannel+0x1fc>)
 8003b40:	400a      	ands	r2, r1
 8003b42:	619a      	str	r2, [r3, #24]
      htim->Instance->CCMR1 |= sConfig->OCFastMode << 8U;
 8003b44:	68fb      	ldr	r3, [r7, #12]
 8003b46:	681b      	ldr	r3, [r3, #0]
 8003b48:	6999      	ldr	r1, [r3, #24]
 8003b4a:	68bb      	ldr	r3, [r7, #8]
 8003b4c:	691b      	ldr	r3, [r3, #16]
 8003b4e:	021a      	lsls	r2, r3, #8
 8003b50:	68fb      	ldr	r3, [r7, #12]
 8003b52:	681b      	ldr	r3, [r3, #0]
 8003b54:	430a      	orrs	r2, r1
 8003b56:	619a      	str	r2, [r3, #24]
      break;
 8003b58:	e08c      	b.n	8003c74 <HAL_TIM_PWM_ConfigChannel+0x1e0>
    {
      /* Check the parameters */
      assert_param(IS_TIM_CC3_INSTANCE(htim->Instance));

      /* Configure the Channel 3 in PWM mode */
      TIM_OC3_SetConfig(htim->Instance, sConfig);
 8003b5a:	68fb      	ldr	r3, [r7, #12]
 8003b5c:	681b      	ldr	r3, [r3, #0]
 8003b5e:	68ba      	ldr	r2, [r7, #8]
 8003b60:	0011      	movs	r1, r2
 8003b62:	0018      	movs	r0, r3
 8003b64:	f000 fadc 	bl	8004120 <TIM_OC3_SetConfig>

      /* Set the Preload enable bit for channel3 */
      htim->Instance->CCMR2 |= TIM_CCMR2_OC3PE;
 8003b68:	68fb      	ldr	r3, [r7, #12]
 8003b6a:	681b      	ldr	r3, [r3, #0]
 8003b6c:	69da      	ldr	r2, [r3, #28]
 8003b6e:	68fb      	ldr	r3, [r7, #12]
 8003b70:	681b      	ldr	r3, [r3, #0]
 8003b72:	2108      	movs	r1, #8
 8003b74:	430a      	orrs	r2, r1
 8003b76:	61da      	str	r2, [r3, #28]

      /* Configure the Output Fast mode */
      htim->Instance->CCMR2 &= ~TIM_CCMR2_OC3FE;
 8003b78:	68fb      	ldr	r3, [r7, #12]
 8003b7a:	681b      	ldr	r3, [r3, #0]
 8003b7c:	69da      	ldr	r2, [r3, #28]
 8003b7e:	68fb      	ldr	r3, [r7, #12]
 8003b80:	681b      	ldr	r3, [r3, #0]
 8003b82:	2104      	movs	r1, #4
 8003b84:	438a      	bics	r2, r1
 8003b86:	61da      	str	r2, [r3, #28]
      htim->Instance->CCMR2 |= sConfig->OCFastMode;
 8003b88:	68fb      	ldr	r3, [r7, #12]
 8003b8a:	681b      	ldr	r3, [r3, #0]
 8003b8c:	69d9      	ldr	r1, [r3, #28]
 8003b8e:	68bb      	ldr	r3, [r7, #8]
 8003b90:	691a      	ldr	r2, [r3, #16]
 8003b92:	68fb      	ldr	r3, [r7, #12]
 8003b94:	681b      	ldr	r3, [r3, #0]
 8003b96:	430a      	orrs	r2, r1
 8003b98:	61da      	str	r2, [r3, #28]
      break;
 8003b9a:	e06b      	b.n	8003c74 <HAL_TIM_PWM_ConfigChannel+0x1e0>
    {
      /* Check the parameters */
      assert_param(IS_TIM_CC4_INSTANCE(htim->Instance));

      /* Configure the Channel 4 in PWM mode */
      TIM_OC4_SetConfig(htim->Instance, sConfig);
 8003b9c:	68fb      	ldr	r3, [r7, #12]
 8003b9e:	681b      	ldr	r3, [r3, #0]
 8003ba0:	68ba      	ldr	r2, [r7, #8]
 8003ba2:	0011      	movs	r1, r2
 8003ba4:	0018      	movs	r0, r3
 8003ba6:	f000 fb3d 	bl	8004224 <TIM_OC4_SetConfig>

      /* Set the Preload enable bit for channel4 */
      htim->Instance->CCMR2 |= TIM_CCMR2_OC4PE;
 8003baa:	68fb      	ldr	r3, [r7, #12]
 8003bac:	681b      	ldr	r3, [r3, #0]
 8003bae:	69da      	ldr	r2, [r3, #28]
 8003bb0:	68fb      	ldr	r3, [r7, #12]
 8003bb2:	681b      	ldr	r3, [r3, #0]
 8003bb4:	2180      	movs	r1, #128	@ 0x80
 8003bb6:	0109      	lsls	r1, r1, #4
 8003bb8:	430a      	orrs	r2, r1
 8003bba:	61da      	str	r2, [r3, #28]

      /* Configure the Output Fast mode */
      htim->Instance->CCMR2 &= ~TIM_CCMR2_OC4FE;
 8003bbc:	68fb      	ldr	r3, [r7, #12]
 8003bbe:	681b      	ldr	r3, [r3, #0]
 8003bc0:	69da      	ldr	r2, [r3, #28]
 8003bc2:	68fb      	ldr	r3, [r7, #12]
 8003bc4:	681b      	ldr	r3, [r3, #0]
 8003bc6:	4932      	ldr	r1, [pc, #200]	@ (8003c90 <HAL_TIM_PWM_ConfigChannel+0x1fc>)
 8003bc8:	400a      	ands	r2, r1
 8003bca:	61da      	str	r2, [r3, #28]
      htim->Instance->CCMR2 |= sConfig->OCFastMode << 8U;
 8003bcc:	68fb      	ldr	r3, [r7, #12]
 8003bce:	681b      	ldr	r3, [r3, #0]
 8003bd0:	69d9      	ldr	r1, [r3, #28]
 8003bd2:	68bb      	ldr	r3, [r7, #8]
 8003bd4:	691b      	ldr	r3, [r3, #16]
 8003bd6:	021a      	lsls	r2, r3, #8
 8003bd8:	68fb      	ldr	r3, [r7, #12]
 8003bda:	681b      	ldr	r3, [r3, #0]
 8003bdc:	430a      	orrs	r2, r1
 8003bde:	61da      	str	r2, [r3, #28]
      break;
 8003be0:	e048      	b.n	8003c74 <HAL_TIM_PWM_ConfigChannel+0x1e0>
    {
      /* Check the parameters */
      assert_param(IS_TIM_CC5_INSTANCE(htim->Instance));

      /* Configure the Channel 5 in PWM mode */
      TIM_OC5_SetConfig(htim->Instance, sConfig);
 8003be2:	68fb      	ldr	r3, [r7, #12]
 8003be4:	681b      	ldr	r3, [r3, #0]
 8003be6:	68ba      	ldr	r2, [r7, #8]
 8003be8:	0011      	movs	r1, r2
 8003bea:	0018      	movs	r0, r3
 8003bec:	f000 fb7e 	bl	80042ec <TIM_OC5_SetConfig>

      /* Set the Preload enable bit for channel5*/
      htim->Instance->CCMR3 |= TIM_CCMR3_OC5PE;
 8003bf0:	68fb      	ldr	r3, [r7, #12]
 8003bf2:	681b      	ldr	r3, [r3, #0]
 8003bf4:	6d5a      	ldr	r2, [r3, #84]	@ 0x54
 8003bf6:	68fb      	ldr	r3, [r7, #12]
 8003bf8:	681b      	ldr	r3, [r3, #0]
 8003bfa:	2108      	movs	r1, #8
 8003bfc:	430a      	orrs	r2, r1
 8003bfe:	655a      	str	r2, [r3, #84]	@ 0x54

      /* Configure the Output Fast mode */
      htim->Instance->CCMR3 &= ~TIM_CCMR3_OC5FE;
 8003c00:	68fb      	ldr	r3, [r7, #12]
 8003c02:	681b      	ldr	r3, [r3, #0]
 8003c04:	6d5a      	ldr	r2, [r3, #84]	@ 0x54
 8003c06:	68fb      	ldr	r3, [r7, #12]
 8003c08:	681b      	ldr	r3, [r3, #0]
 8003c0a:	2104      	movs	r1, #4
 8003c0c:	438a      	bics	r2, r1
 8003c0e:	655a      	str	r2, [r3, #84]	@ 0x54
      htim->Instance->CCMR3 |= sConfig->OCFastMode;
 8003c10:	68fb      	ldr	r3, [r7, #12]
 8003c12:	681b      	ldr	r3, [r3, #0]
 8003c14:	6d59      	ldr	r1, [r3, #84]	@ 0x54
 8003c16:	68bb      	ldr	r3, [r7, #8]
 8003c18:	691a      	ldr	r2, [r3, #16]
 8003c1a:	68fb      	ldr	r3, [r7, #12]
 8003c1c:	681b      	ldr	r3, [r3, #0]
 8003c1e:	430a      	orrs	r2, r1
 8003c20:	655a      	str	r2, [r3, #84]	@ 0x54
      break;
 8003c22:	e027      	b.n	8003c74 <HAL_TIM_PWM_ConfigChannel+0x1e0>
    {
      /* Check the parameters */
      assert_param(IS_TIM_CC6_INSTANCE(htim->Instance));

      /* Configure the Channel 6 in PWM mode */
      TIM_OC6_SetConfig(htim->Instance, sConfig);
 8003c24:	68fb      	ldr	r3, [r7, #12]
 8003c26:	681b      	ldr	r3, [r3, #0]
 8003c28:	68ba      	ldr	r2, [r7, #8]
 8003c2a:	0011      	movs	r1, r2
 8003c2c:	0018      	movs	r0, r3
 8003c2e:	f000 fbb7 	bl	80043a0 <TIM_OC6_SetConfig>

      /* Set the Preload enable bit for channel6 */
      htim->Instance->CCMR3 |= TIM_CCMR3_OC6PE;
 8003c32:	68fb      	ldr	r3, [r7, #12]
 8003c34:	681b      	ldr	r3, [r3, #0]
 8003c36:	6d5a      	ldr	r2, [r3, #84]	@ 0x54
 8003c38:	68fb      	ldr	r3, [r7, #12]
 8003c3a:	681b      	ldr	r3, [r3, #0]
 8003c3c:	2180      	movs	r1, #128	@ 0x80
 8003c3e:	0109      	lsls	r1, r1, #4
 8003c40:	430a      	orrs	r2, r1
 8003c42:	655a      	str	r2, [r3, #84]	@ 0x54

      /* Configure the Output Fast mode */
      htim->Instance->CCMR3 &= ~TIM_CCMR3_OC6FE;
 8003c44:	68fb      	ldr	r3, [r7, #12]
 8003c46:	681b      	ldr	r3, [r3, #0]
 8003c48:	6d5a      	ldr	r2, [r3, #84]	@ 0x54
 8003c4a:	68fb      	ldr	r3, [r7, #12]
 8003c4c:	681b      	ldr	r3, [r3, #0]
 8003c4e:	4910      	ldr	r1, [pc, #64]	@ (8003c90 <HAL_TIM_PWM_ConfigChannel+0x1fc>)
 8003c50:	400a      	ands	r2, r1
 8003c52:	655a      	str	r2, [r3, #84]	@ 0x54
      htim->Instance->CCMR3 |= sConfig->OCFastMode << 8U;
 8003c54:	68fb      	ldr	r3, [r7, #12]
 8003c56:	681b      	ldr	r3, [r3, #0]
 8003c58:	6d59      	ldr	r1, [r3, #84]	@ 0x54
 8003c5a:	68bb      	ldr	r3, [r7, #8]
 8003c5c:	691b      	ldr	r3, [r3, #16]
 8003c5e:	021a      	lsls	r2, r3, #8
 8003c60:	68fb      	ldr	r3, [r7, #12]
 8003c62:	681b      	ldr	r3, [r3, #0]
 8003c64:	430a      	orrs	r2, r1
 8003c66:	655a      	str	r2, [r3, #84]	@ 0x54
      break;
 8003c68:	e004      	b.n	8003c74 <HAL_TIM_PWM_ConfigChannel+0x1e0>
    }

    default:
      status = HAL_ERROR;
 8003c6a:	2317      	movs	r3, #23
 8003c6c:	18fb      	adds	r3, r7, r3
 8003c6e:	2201      	movs	r2, #1
 8003c70:	701a      	strb	r2, [r3, #0]
      break;
 8003c72:	46c0      	nop			@ (mov r8, r8)
  }

  __HAL_UNLOCK(htim);
 8003c74:	68fb      	ldr	r3, [r7, #12]
 8003c76:	223c      	movs	r2, #60	@ 0x3c
 8003c78:	2100      	movs	r1, #0
 8003c7a:	5499      	strb	r1, [r3, r2]

  return status;
 8003c7c:	2317      	movs	r3, #23
 8003c7e:	18fb      	adds	r3, r7, r3
 8003c80:	781b      	ldrb	r3, [r3, #0]
}
 8003c82:	0018      	movs	r0, r3
 8003c84:	46bd      	mov	sp, r7
 8003c86:	b006      	add	sp, #24
 8003c88:	bd80      	pop	{r7, pc}
 8003c8a:	46c0      	nop			@ (mov r8, r8)
 8003c8c:	08005d9c 	.word	0x08005d9c
 8003c90:	fffffbff 	.word	0xfffffbff

08003c94 <HAL_TIM_ConfigClockSource>:
  * @param  sClockSourceConfig pointer to a TIM_ClockConfigTypeDef structure that
  *         contains the clock source information for the TIM peripheral.
  * @retval HAL status
  */
HAL_StatusTypeDef HAL_TIM_ConfigClockSource(TIM_HandleTypeDef *htim, const TIM_ClockConfigTypeDef *sClockSourceConfig)
{
 8003c94:	b580      	push	{r7, lr}
 8003c96:	b084      	sub	sp, #16
 8003c98:	af00      	add	r7, sp, #0
 8003c9a:	6078      	str	r0, [r7, #4]
 8003c9c:	6039      	str	r1, [r7, #0]
  HAL_StatusTypeDef status = HAL_OK;
 8003c9e:	230f      	movs	r3, #15
 8003ca0:	18fb      	adds	r3, r7, r3
 8003ca2:	2200      	movs	r2, #0
 8003ca4:	701a      	strb	r2, [r3, #0]
  uint32_t tmpsmcr;

  /* Process Locked */
  __HAL_LOCK(htim);
 8003ca6:	687b      	ldr	r3, [r7, #4]
 8003ca8:	223c      	movs	r2, #60	@ 0x3c
 8003caa:	5c9b      	ldrb	r3, [r3, r2]
 8003cac:	2b01      	cmp	r3, #1
 8003cae:	d101      	bne.n	8003cb4 <HAL_TIM_ConfigClockSource+0x20>
 8003cb0:	2302      	movs	r3, #2
 8003cb2:	e0bc      	b.n	8003e2e <HAL_TIM_ConfigClockSource+0x19a>
 8003cb4:	687b      	ldr	r3, [r7, #4]
 8003cb6:	223c      	movs	r2, #60	@ 0x3c
 8003cb8:	2101      	movs	r1, #1
 8003cba:	5499      	strb	r1, [r3, r2]

  htim->State = HAL_TIM_STATE_BUSY;
 8003cbc:	687b      	ldr	r3, [r7, #4]
 8003cbe:	223d      	movs	r2, #61	@ 0x3d
 8003cc0:	2102      	movs	r1, #2
 8003cc2:	5499      	strb	r1, [r3, r2]

  /* Check the parameters */
  assert_param(IS_TIM_CLOCKSOURCE(sClockSourceConfig->ClockSource));

  /* Reset the SMS, TS, ECE, ETPS and ETRF bits */
  tmpsmcr = htim->Instance->SMCR;
 8003cc4:	687b      	ldr	r3, [r7, #4]
 8003cc6:	681b      	ldr	r3, [r3, #0]
 8003cc8:	689b      	ldr	r3, [r3, #8]
 8003cca:	60bb      	str	r3, [r7, #8]
  tmpsmcr &= ~(TIM_SMCR_SMS | TIM_SMCR_TS);
 8003ccc:	68bb      	ldr	r3, [r7, #8]
 8003cce:	4a5a      	ldr	r2, [pc, #360]	@ (8003e38 <HAL_TIM_ConfigClockSource+0x1a4>)
 8003cd0:	4013      	ands	r3, r2
 8003cd2:	60bb      	str	r3, [r7, #8]
  tmpsmcr &= ~(TIM_SMCR_ETF | TIM_SMCR_ETPS | TIM_SMCR_ECE | TIM_SMCR_ETP);
 8003cd4:	68bb      	ldr	r3, [r7, #8]
 8003cd6:	4a59      	ldr	r2, [pc, #356]	@ (8003e3c <HAL_TIM_ConfigClockSource+0x1a8>)
 8003cd8:	4013      	ands	r3, r2
 8003cda:	60bb      	str	r3, [r7, #8]
  htim->Instance->SMCR = tmpsmcr;
 8003cdc:	687b      	ldr	r3, [r7, #4]
 8003cde:	681b      	ldr	r3, [r3, #0]
 8003ce0:	68ba      	ldr	r2, [r7, #8]
 8003ce2:	609a      	str	r2, [r3, #8]

  switch (sClockSourceConfig->ClockSource)
 8003ce4:	683b      	ldr	r3, [r7, #0]
 8003ce6:	681b      	ldr	r3, [r3, #0]
 8003ce8:	2280      	movs	r2, #128	@ 0x80
 8003cea:	0192      	lsls	r2, r2, #6
 8003cec:	4293      	cmp	r3, r2
 8003cee:	d040      	beq.n	8003d72 <HAL_TIM_ConfigClockSource+0xde>
 8003cf0:	2280      	movs	r2, #128	@ 0x80
 8003cf2:	0192      	lsls	r2, r2, #6
 8003cf4:	4293      	cmp	r3, r2
 8003cf6:	d900      	bls.n	8003cfa <HAL_TIM_ConfigClockSource+0x66>
 8003cf8:	e088      	b.n	8003e0c <HAL_TIM_ConfigClockSource+0x178>
 8003cfa:	2280      	movs	r2, #128	@ 0x80
 8003cfc:	0152      	lsls	r2, r2, #5
 8003cfe:	4293      	cmp	r3, r2
 8003d00:	d100      	bne.n	8003d04 <HAL_TIM_ConfigClockSource+0x70>
 8003d02:	e088      	b.n	8003e16 <HAL_TIM_ConfigClockSource+0x182>
 8003d04:	2280      	movs	r2, #128	@ 0x80
 8003d06:	0152      	lsls	r2, r2, #5
 8003d08:	4293      	cmp	r3, r2
 8003d0a:	d900      	bls.n	8003d0e <HAL_TIM_ConfigClockSource+0x7a>
 8003d0c:	e07e      	b.n	8003e0c <HAL_TIM_ConfigClockSource+0x178>
 8003d0e:	2b70      	cmp	r3, #112	@ 0x70
 8003d10:	d018      	beq.n	8003d44 <HAL_TIM_ConfigClockSource+0xb0>
 8003d12:	d900      	bls.n	8003d16 <HAL_TIM_ConfigClockSource+0x82>
 8003d14:	e07a      	b.n	8003e0c <HAL_TIM_ConfigClockSource+0x178>
 8003d16:	2b60      	cmp	r3, #96	@ 0x60
 8003d18:	d04f      	beq.n	8003dba <HAL_TIM_ConfigClockSource+0x126>
 8003d1a:	d900      	bls.n	8003d1e <HAL_TIM_ConfigClockSource+0x8a>
 8003d1c:	e076      	b.n	8003e0c <HAL_TIM_ConfigClockSource+0x178>
 8003d1e:	2b50      	cmp	r3, #80	@ 0x50
 8003d20:	d03b      	beq.n	8003d9a <HAL_TIM_ConfigClockSource+0x106>
 8003d22:	d900      	bls.n	8003d26 <HAL_TIM_ConfigClockSource+0x92>
 8003d24:	e072      	b.n	8003e0c <HAL_TIM_ConfigClockSource+0x178>
 8003d26:	2b40      	cmp	r3, #64	@ 0x40
 8003d28:	d057      	beq.n	8003dda <HAL_TIM_ConfigClockSource+0x146>
 8003d2a:	d900      	bls.n	8003d2e <HAL_TIM_ConfigClockSource+0x9a>
 8003d2c:	e06e      	b.n	8003e0c <HAL_TIM_ConfigClockSource+0x178>
 8003d2e:	2b30      	cmp	r3, #48	@ 0x30
 8003d30:	d063      	beq.n	8003dfa <HAL_TIM_ConfigClockSource+0x166>
 8003d32:	d86b      	bhi.n	8003e0c <HAL_TIM_ConfigClockSource+0x178>
 8003d34:	2b20      	cmp	r3, #32
 8003d36:	d060      	beq.n	8003dfa <HAL_TIM_ConfigClockSource+0x166>
 8003d38:	d868      	bhi.n	8003e0c <HAL_TIM_ConfigClockSource+0x178>
 8003d3a:	2b00      	cmp	r3, #0
 8003d3c:	d05d      	beq.n	8003dfa <HAL_TIM_ConfigClockSource+0x166>
 8003d3e:	2b10      	cmp	r3, #16
 8003d40:	d05b      	beq.n	8003dfa <HAL_TIM_ConfigClockSource+0x166>
 8003d42:	e063      	b.n	8003e0c <HAL_TIM_ConfigClockSource+0x178>
      assert_param(IS_TIM_CLOCKPRESCALER(sClockSourceConfig->ClockPrescaler));
      assert_param(IS_TIM_CLOCKPOLARITY(sClockSourceConfig->ClockPolarity));
      assert_param(IS_TIM_CLOCKFILTER(sClockSourceConfig->ClockFilter));

      /* Configure the ETR Clock source */
      TIM_ETR_SetConfig(htim->Instance,
 8003d44:	687b      	ldr	r3, [r7, #4]
 8003d46:	6818      	ldr	r0, [r3, #0]
                        sClockSourceConfig->ClockPrescaler,
 8003d48:	683b      	ldr	r3, [r7, #0]
 8003d4a:	6899      	ldr	r1, [r3, #8]
                        sClockSourceConfig->ClockPolarity,
 8003d4c:	683b      	ldr	r3, [r7, #0]
 8003d4e:	685a      	ldr	r2, [r3, #4]
                        sClockSourceConfig->ClockFilter);
 8003d50:	683b      	ldr	r3, [r7, #0]
 8003d52:	68db      	ldr	r3, [r3, #12]
      TIM_ETR_SetConfig(htim->Instance,
 8003d54:	f000 fbfe 	bl	8004554 <TIM_ETR_SetConfig>

      /* Select the External clock mode1 and the ETRF trigger */
      tmpsmcr = htim->Instance->SMCR;
 8003d58:	687b      	ldr	r3, [r7, #4]
 8003d5a:	681b      	ldr	r3, [r3, #0]
 8003d5c:	689b      	ldr	r3, [r3, #8]
 8003d5e:	60bb      	str	r3, [r7, #8]
      tmpsmcr |= (TIM_SLAVEMODE_EXTERNAL1 | TIM_CLOCKSOURCE_ETRMODE1);
 8003d60:	68bb      	ldr	r3, [r7, #8]
 8003d62:	2277      	movs	r2, #119	@ 0x77
 8003d64:	4313      	orrs	r3, r2
 8003d66:	60bb      	str	r3, [r7, #8]
      /* Write to TIMx SMCR */
      htim->Instance->SMCR = tmpsmcr;
 8003d68:	687b      	ldr	r3, [r7, #4]
 8003d6a:	681b      	ldr	r3, [r3, #0]
 8003d6c:	68ba      	ldr	r2, [r7, #8]
 8003d6e:	609a      	str	r2, [r3, #8]
      break;
 8003d70:	e052      	b.n	8003e18 <HAL_TIM_ConfigClockSource+0x184>
      assert_param(IS_TIM_CLOCKPRESCALER(sClockSourceConfig->ClockPrescaler));
      assert_param(IS_TIM_CLOCKPOLARITY(sClockSourceConfig->ClockPolarity));
      assert_param(IS_TIM_CLOCKFILTER(sClockSourceConfig->ClockFilter));

      /* Configure the ETR Clock source */
      TIM_ETR_SetConfig(htim->Instance,
 8003d72:	687b      	ldr	r3, [r7, #4]
 8003d74:	6818      	ldr	r0, [r3, #0]
                        sClockSourceConfig->ClockPrescaler,
 8003d76:	683b      	ldr	r3, [r7, #0]
 8003d78:	6899      	ldr	r1, [r3, #8]
                        sClockSourceConfig->ClockPolarity,
 8003d7a:	683b      	ldr	r3, [r7, #0]
 8003d7c:	685a      	ldr	r2, [r3, #4]
                        sClockSourceConfig->ClockFilter);
 8003d7e:	683b      	ldr	r3, [r7, #0]
 8003d80:	68db      	ldr	r3, [r3, #12]
      TIM_ETR_SetConfig(htim->Instance,
 8003d82:	f000 fbe7 	bl	8004554 <TIM_ETR_SetConfig>
      /* Enable the External clock mode2 */
      htim->Instance->SMCR |= TIM_SMCR_ECE;
 8003d86:	687b      	ldr	r3, [r7, #4]
 8003d88:	681b      	ldr	r3, [r3, #0]
 8003d8a:	689a      	ldr	r2, [r3, #8]
 8003d8c:	687b      	ldr	r3, [r7, #4]
 8003d8e:	681b      	ldr	r3, [r3, #0]
 8003d90:	2180      	movs	r1, #128	@ 0x80
 8003d92:	01c9      	lsls	r1, r1, #7
 8003d94:	430a      	orrs	r2, r1
 8003d96:	609a      	str	r2, [r3, #8]
      break;
 8003d98:	e03e      	b.n	8003e18 <HAL_TIM_ConfigClockSource+0x184>

      /* Check TI1 input conditioning related parameters */
      assert_param(IS_TIM_CLOCKPOLARITY(sClockSourceConfig->ClockPolarity));
      assert_param(IS_TIM_CLOCKFILTER(sClockSourceConfig->ClockFilter));

      TIM_TI1_ConfigInputStage(htim->Instance,
 8003d9a:	687b      	ldr	r3, [r7, #4]
 8003d9c:	6818      	ldr	r0, [r3, #0]
                               sClockSourceConfig->ClockPolarity,
 8003d9e:	683b      	ldr	r3, [r7, #0]
 8003da0:	6859      	ldr	r1, [r3, #4]
                               sClockSourceConfig->ClockFilter);
 8003da2:	683b      	ldr	r3, [r7, #0]
 8003da4:	68db      	ldr	r3, [r3, #12]
      TIM_TI1_ConfigInputStage(htim->Instance,
 8003da6:	001a      	movs	r2, r3
 8003da8:	f000 fb58 	bl	800445c <TIM_TI1_ConfigInputStage>
      TIM_ITRx_SetConfig(htim->Instance, TIM_CLOCKSOURCE_TI1);
 8003dac:	687b      	ldr	r3, [r7, #4]
 8003dae:	681b      	ldr	r3, [r3, #0]
 8003db0:	2150      	movs	r1, #80	@ 0x50
 8003db2:	0018      	movs	r0, r3
 8003db4:	f000 fbb2 	bl	800451c <TIM_ITRx_SetConfig>
      break;
 8003db8:	e02e      	b.n	8003e18 <HAL_TIM_ConfigClockSource+0x184>

      /* Check TI2 input conditioning related parameters */
      assert_param(IS_TIM_CLOCKPOLARITY(sClockSourceConfig->ClockPolarity));
      assert_param(IS_TIM_CLOCKFILTER(sClockSourceConfig->ClockFilter));

      TIM_TI2_ConfigInputStage(htim->Instance,
 8003dba:	687b      	ldr	r3, [r7, #4]
 8003dbc:	6818      	ldr	r0, [r3, #0]
                               sClockSourceConfig->ClockPolarity,
 8003dbe:	683b      	ldr	r3, [r7, #0]
 8003dc0:	6859      	ldr	r1, [r3, #4]
                               sClockSourceConfig->ClockFilter);
 8003dc2:	683b      	ldr	r3, [r7, #0]
 8003dc4:	68db      	ldr	r3, [r3, #12]
      TIM_TI2_ConfigInputStage(htim->Instance,
 8003dc6:	001a      	movs	r2, r3
 8003dc8:	f000 fb76 	bl	80044b8 <TIM_TI2_ConfigInputStage>
      TIM_ITRx_SetConfig(htim->Instance, TIM_CLOCKSOURCE_TI2);
 8003dcc:	687b      	ldr	r3, [r7, #4]
 8003dce:	681b      	ldr	r3, [r3, #0]
 8003dd0:	2160      	movs	r1, #96	@ 0x60
 8003dd2:	0018      	movs	r0, r3
 8003dd4:	f000 fba2 	bl	800451c <TIM_ITRx_SetConfig>
      break;
 8003dd8:	e01e      	b.n	8003e18 <HAL_TIM_ConfigClockSource+0x184>

      /* Check TI1 input conditioning related parameters */
      assert_param(IS_TIM_CLOCKPOLARITY(sClockSourceConfig->ClockPolarity));
      assert_param(IS_TIM_CLOCKFILTER(sClockSourceConfig->ClockFilter));

      TIM_TI1_ConfigInputStage(htim->Instance,
 8003dda:	687b      	ldr	r3, [r7, #4]
 8003ddc:	6818      	ldr	r0, [r3, #0]
                               sClockSourceConfig->ClockPolarity,
 8003dde:	683b      	ldr	r3, [r7, #0]
 8003de0:	6859      	ldr	r1, [r3, #4]
                               sClockSourceConfig->ClockFilter);
 8003de2:	683b      	ldr	r3, [r7, #0]
 8003de4:	68db      	ldr	r3, [r3, #12]
      TIM_TI1_ConfigInputStage(htim->Instance,
 8003de6:	001a      	movs	r2, r3
 8003de8:	f000 fb38 	bl	800445c <TIM_TI1_ConfigInputStage>
      TIM_ITRx_SetConfig(htim->Instance, TIM_CLOCKSOURCE_TI1ED);
 8003dec:	687b      	ldr	r3, [r7, #4]
 8003dee:	681b      	ldr	r3, [r3, #0]
 8003df0:	2140      	movs	r1, #64	@ 0x40
 8003df2:	0018      	movs	r0, r3
 8003df4:	f000 fb92 	bl	800451c <TIM_ITRx_SetConfig>
      break;
 8003df8:	e00e      	b.n	8003e18 <HAL_TIM_ConfigClockSource+0x184>
    case TIM_CLOCKSOURCE_ITR3:
    {
      /* Check whether or not the timer instance supports internal trigger input */
      assert_param(IS_TIM_CLOCKSOURCE_ITRX_INSTANCE(htim->Instance));

      TIM_ITRx_SetConfig(htim->Instance, sClockSourceConfig->ClockSource);
 8003dfa:	687b      	ldr	r3, [r7, #4]
 8003dfc:	681a      	ldr	r2, [r3, #0]
 8003dfe:	683b      	ldr	r3, [r7, #0]
 8003e00:	681b      	ldr	r3, [r3, #0]
 8003e02:	0019      	movs	r1, r3
 8003e04:	0010      	movs	r0, r2
 8003e06:	f000 fb89 	bl	800451c <TIM_ITRx_SetConfig>
      break;
 8003e0a:	e005      	b.n	8003e18 <HAL_TIM_ConfigClockSource+0x184>
    }

    default:
      status = HAL_ERROR;
 8003e0c:	230f      	movs	r3, #15
 8003e0e:	18fb      	adds	r3, r7, r3
 8003e10:	2201      	movs	r2, #1
 8003e12:	701a      	strb	r2, [r3, #0]
      break;
 8003e14:	e000      	b.n	8003e18 <HAL_TIM_ConfigClockSource+0x184>
      break;
 8003e16:	46c0      	nop			@ (mov r8, r8)
  }
  htim->State = HAL_TIM_STATE_READY;
 8003e18:	687b      	ldr	r3, [r7, #4]
 8003e1a:	223d      	movs	r2, #61	@ 0x3d
 8003e1c:	2101      	movs	r1, #1
 8003e1e:	5499      	strb	r1, [r3, r2]

  __HAL_UNLOCK(htim);
 8003e20:	687b      	ldr	r3, [r7, #4]
 8003e22:	223c      	movs	r2, #60	@ 0x3c
 8003e24:	2100      	movs	r1, #0
 8003e26:	5499      	strb	r1, [r3, r2]

  return status;
 8003e28:	230f      	movs	r3, #15
 8003e2a:	18fb      	adds	r3, r7, r3
 8003e2c:	781b      	ldrb	r3, [r3, #0]
}
 8003e2e:	0018      	movs	r0, r3
 8003e30:	46bd      	mov	sp, r7
 8003e32:	b004      	add	sp, #16
 8003e34:	bd80      	pop	{r7, pc}
 8003e36:	46c0      	nop			@ (mov r8, r8)
 8003e38:	ffceff88 	.word	0xffceff88
 8003e3c:	ffff00ff 	.word	0xffff00ff

08003e40 <TIM_Base_SetConfig>:
  * @param  TIMx TIM peripheral
  * @param  Structure TIM Base configuration structure
  * @retval None
  */
void TIM_Base_SetConfig(TIM_TypeDef *TIMx, const TIM_Base_InitTypeDef *Structure)
{
 8003e40:	b580      	push	{r7, lr}
 8003e42:	b084      	sub	sp, #16
 8003e44:	af00      	add	r7, sp, #0
 8003e46:	6078      	str	r0, [r7, #4]
 8003e48:	6039      	str	r1, [r7, #0]
  uint32_t tmpcr1;
  tmpcr1 = TIMx->CR1;
 8003e4a:	687b      	ldr	r3, [r7, #4]
 8003e4c:	681b      	ldr	r3, [r3, #0]
 8003e4e:	60fb      	str	r3, [r7, #12]

  /* Set TIM Time Base Unit parameters ---------------------------------------*/
  if (IS_TIM_COUNTER_MODE_SELECT_INSTANCE(TIMx))
 8003e50:	687b      	ldr	r3, [r7, #4]
 8003e52:	4a2e      	ldr	r2, [pc, #184]	@ (8003f0c <TIM_Base_SetConfig+0xcc>)
 8003e54:	4293      	cmp	r3, r2
 8003e56:	d003      	beq.n	8003e60 <TIM_Base_SetConfig+0x20>
 8003e58:	687b      	ldr	r3, [r7, #4]
 8003e5a:	4a2d      	ldr	r2, [pc, #180]	@ (8003f10 <TIM_Base_SetConfig+0xd0>)
 8003e5c:	4293      	cmp	r3, r2
 8003e5e:	d108      	bne.n	8003e72 <TIM_Base_SetConfig+0x32>
  {
    /* Select the Counter Mode */
    tmpcr1 &= ~(TIM_CR1_DIR | TIM_CR1_CMS);
 8003e60:	68fb      	ldr	r3, [r7, #12]
 8003e62:	2270      	movs	r2, #112	@ 0x70
 8003e64:	4393      	bics	r3, r2
 8003e66:	60fb      	str	r3, [r7, #12]
    tmpcr1 |= Structure->CounterMode;
 8003e68:	683b      	ldr	r3, [r7, #0]
 8003e6a:	685b      	ldr	r3, [r3, #4]
 8003e6c:	68fa      	ldr	r2, [r7, #12]
 8003e6e:	4313      	orrs	r3, r2
 8003e70:	60fb      	str	r3, [r7, #12]
  }

  if (IS_TIM_CLOCK_DIVISION_INSTANCE(TIMx))
 8003e72:	687b      	ldr	r3, [r7, #4]
 8003e74:	4a25      	ldr	r2, [pc, #148]	@ (8003f0c <TIM_Base_SetConfig+0xcc>)
 8003e76:	4293      	cmp	r3, r2
 8003e78:	d00f      	beq.n	8003e9a <TIM_Base_SetConfig+0x5a>
 8003e7a:	687b      	ldr	r3, [r7, #4]
 8003e7c:	4a24      	ldr	r2, [pc, #144]	@ (8003f10 <TIM_Base_SetConfig+0xd0>)
 8003e7e:	4293      	cmp	r3, r2
 8003e80:	d00b      	beq.n	8003e9a <TIM_Base_SetConfig+0x5a>
 8003e82:	687b      	ldr	r3, [r7, #4]
 8003e84:	4a23      	ldr	r2, [pc, #140]	@ (8003f14 <TIM_Base_SetConfig+0xd4>)
 8003e86:	4293      	cmp	r3, r2
 8003e88:	d007      	beq.n	8003e9a <TIM_Base_SetConfig+0x5a>
 8003e8a:	687b      	ldr	r3, [r7, #4]
 8003e8c:	4a22      	ldr	r2, [pc, #136]	@ (8003f18 <TIM_Base_SetConfig+0xd8>)
 8003e8e:	4293      	cmp	r3, r2
 8003e90:	d003      	beq.n	8003e9a <TIM_Base_SetConfig+0x5a>
 8003e92:	687b      	ldr	r3, [r7, #4]
 8003e94:	4a21      	ldr	r2, [pc, #132]	@ (8003f1c <TIM_Base_SetConfig+0xdc>)
 8003e96:	4293      	cmp	r3, r2
 8003e98:	d108      	bne.n	8003eac <TIM_Base_SetConfig+0x6c>
  {
    /* Set the clock division */
    tmpcr1 &= ~TIM_CR1_CKD;
 8003e9a:	68fb      	ldr	r3, [r7, #12]
 8003e9c:	4a20      	ldr	r2, [pc, #128]	@ (8003f20 <TIM_Base_SetConfig+0xe0>)
 8003e9e:	4013      	ands	r3, r2
 8003ea0:	60fb      	str	r3, [r7, #12]
    tmpcr1 |= (uint32_t)Structure->ClockDivision;
 8003ea2:	683b      	ldr	r3, [r7, #0]
 8003ea4:	68db      	ldr	r3, [r3, #12]
 8003ea6:	68fa      	ldr	r2, [r7, #12]
 8003ea8:	4313      	orrs	r3, r2
 8003eaa:	60fb      	str	r3, [r7, #12]
  }

  /* Set the auto-reload preload */
  MODIFY_REG(tmpcr1, TIM_CR1_ARPE, Structure->AutoReloadPreload);
 8003eac:	68fb      	ldr	r3, [r7, #12]
 8003eae:	2280      	movs	r2, #128	@ 0x80
 8003eb0:	4393      	bics	r3, r2
 8003eb2:	001a      	movs	r2, r3
 8003eb4:	683b      	ldr	r3, [r7, #0]
 8003eb6:	695b      	ldr	r3, [r3, #20]
 8003eb8:	4313      	orrs	r3, r2
 8003eba:	60fb      	str	r3, [r7, #12]

  /* Set the Autoreload value */
  TIMx->ARR = (uint32_t)Structure->Period ;
 8003ebc:	683b      	ldr	r3, [r7, #0]
 8003ebe:	689a      	ldr	r2, [r3, #8]
 8003ec0:	687b      	ldr	r3, [r7, #4]
 8003ec2:	62da      	str	r2, [r3, #44]	@ 0x2c

  /* Set the Prescaler value */
  TIMx->PSC = Structure->Prescaler;
 8003ec4:	683b      	ldr	r3, [r7, #0]
 8003ec6:	681a      	ldr	r2, [r3, #0]
 8003ec8:	687b      	ldr	r3, [r7, #4]
 8003eca:	629a      	str	r2, [r3, #40]	@ 0x28

  if (IS_TIM_REPETITION_COUNTER_INSTANCE(TIMx))
 8003ecc:	687b      	ldr	r3, [r7, #4]
 8003ece:	4a0f      	ldr	r2, [pc, #60]	@ (8003f0c <TIM_Base_SetConfig+0xcc>)
 8003ed0:	4293      	cmp	r3, r2
 8003ed2:	d007      	beq.n	8003ee4 <TIM_Base_SetConfig+0xa4>
 8003ed4:	687b      	ldr	r3, [r7, #4]
 8003ed6:	4a10      	ldr	r2, [pc, #64]	@ (8003f18 <TIM_Base_SetConfig+0xd8>)
 8003ed8:	4293      	cmp	r3, r2
 8003eda:	d003      	beq.n	8003ee4 <TIM_Base_SetConfig+0xa4>
 8003edc:	687b      	ldr	r3, [r7, #4]
 8003ede:	4a0f      	ldr	r2, [pc, #60]	@ (8003f1c <TIM_Base_SetConfig+0xdc>)
 8003ee0:	4293      	cmp	r3, r2
 8003ee2:	d103      	bne.n	8003eec <TIM_Base_SetConfig+0xac>
  {
    /* Set the Repetition Counter value */
    TIMx->RCR = Structure->RepetitionCounter;
 8003ee4:	683b      	ldr	r3, [r7, #0]
 8003ee6:	691a      	ldr	r2, [r3, #16]
 8003ee8:	687b      	ldr	r3, [r7, #4]
 8003eea:	631a      	str	r2, [r3, #48]	@ 0x30
  }

  /* Disable Update Event (UEV) with Update Generation (UG)
     by changing Update Request Source (URS) to avoid Update flag (UIF) */
  SET_BIT(TIMx->CR1, TIM_CR1_URS);
 8003eec:	687b      	ldr	r3, [r7, #4]
 8003eee:	681b      	ldr	r3, [r3, #0]
 8003ef0:	2204      	movs	r2, #4
 8003ef2:	431a      	orrs	r2, r3
 8003ef4:	687b      	ldr	r3, [r7, #4]
 8003ef6:	601a      	str	r2, [r3, #0]

  /* Generate an update event to reload the Prescaler
     and the repetition counter (only for advanced timer) value immediately */
  TIMx->EGR = TIM_EGR_UG;
 8003ef8:	687b      	ldr	r3, [r7, #4]
 8003efa:	2201      	movs	r2, #1
 8003efc:	615a      	str	r2, [r3, #20]

  TIMx->CR1 = tmpcr1;
 8003efe:	687b      	ldr	r3, [r7, #4]
 8003f00:	68fa      	ldr	r2, [r7, #12]
 8003f02:	601a      	str	r2, [r3, #0]
}
 8003f04:	46c0      	nop			@ (mov r8, r8)
 8003f06:	46bd      	mov	sp, r7
 8003f08:	b004      	add	sp, #16
 8003f0a:	bd80      	pop	{r7, pc}
 8003f0c:	40012c00 	.word	0x40012c00
 8003f10:	40000400 	.word	0x40000400
 8003f14:	40002000 	.word	0x40002000
 8003f18:	40014400 	.word	0x40014400
 8003f1c:	40014800 	.word	0x40014800
 8003f20:	fffffcff 	.word	0xfffffcff

08003f24 <TIM_OC1_SetConfig>:
  * @param  TIMx to select the TIM peripheral
  * @param  OC_Config The output configuration structure
  * @retval None
  */
static void TIM_OC1_SetConfig(TIM_TypeDef *TIMx, const TIM_OC_InitTypeDef *OC_Config)
{
 8003f24:	b580      	push	{r7, lr}
 8003f26:	b086      	sub	sp, #24
 8003f28:	af00      	add	r7, sp, #0
 8003f2a:	6078      	str	r0, [r7, #4]
 8003f2c:	6039      	str	r1, [r7, #0]
  uint32_t tmpccmrx;
  uint32_t tmpccer;
  uint32_t tmpcr2;

  /* Get the TIMx CCER register value */
  tmpccer = TIMx->CCER;
 8003f2e:	687b      	ldr	r3, [r7, #4]
 8003f30:	6a1b      	ldr	r3, [r3, #32]
 8003f32:	617b      	str	r3, [r7, #20]

  /* Disable the Channel 1: Reset the CC1E Bit */
  TIMx->CCER &= ~TIM_CCER_CC1E;
 8003f34:	687b      	ldr	r3, [r7, #4]
 8003f36:	6a1b      	ldr	r3, [r3, #32]
 8003f38:	2201      	movs	r2, #1
 8003f3a:	4393      	bics	r3, r2
 8003f3c:	001a      	movs	r2, r3
 8003f3e:	687b      	ldr	r3, [r7, #4]
 8003f40:	621a      	str	r2, [r3, #32]

  /* Get the TIMx CR2 register value */
  tmpcr2 =  TIMx->CR2;
 8003f42:	687b      	ldr	r3, [r7, #4]
 8003f44:	685b      	ldr	r3, [r3, #4]
 8003f46:	613b      	str	r3, [r7, #16]

  /* Get the TIMx CCMR1 register value */
  tmpccmrx = TIMx->CCMR1;
 8003f48:	687b      	ldr	r3, [r7, #4]
 8003f4a:	699b      	ldr	r3, [r3, #24]
 8003f4c:	60fb      	str	r3, [r7, #12]

  /* Reset the Output Compare Mode Bits */
  tmpccmrx &= ~TIM_CCMR1_OC1M;
 8003f4e:	68fb      	ldr	r3, [r7, #12]
 8003f50:	4a2e      	ldr	r2, [pc, #184]	@ (800400c <TIM_OC1_SetConfig+0xe8>)
 8003f52:	4013      	ands	r3, r2
 8003f54:	60fb      	str	r3, [r7, #12]
  tmpccmrx &= ~TIM_CCMR1_CC1S;
 8003f56:	68fb      	ldr	r3, [r7, #12]
 8003f58:	2203      	movs	r2, #3
 8003f5a:	4393      	bics	r3, r2
 8003f5c:	60fb      	str	r3, [r7, #12]
  /* Select the Output Compare Mode */
  tmpccmrx |= OC_Config->OCMode;
 8003f5e:	683b      	ldr	r3, [r7, #0]
 8003f60:	681b      	ldr	r3, [r3, #0]
 8003f62:	68fa      	ldr	r2, [r7, #12]
 8003f64:	4313      	orrs	r3, r2
 8003f66:	60fb      	str	r3, [r7, #12]

  /* Reset the Output Polarity level */
  tmpccer &= ~TIM_CCER_CC1P;
 8003f68:	697b      	ldr	r3, [r7, #20]
 8003f6a:	2202      	movs	r2, #2
 8003f6c:	4393      	bics	r3, r2
 8003f6e:	617b      	str	r3, [r7, #20]
  /* Set the Output Compare Polarity */
  tmpccer |= OC_Config->OCPolarity;
 8003f70:	683b      	ldr	r3, [r7, #0]
 8003f72:	689b      	ldr	r3, [r3, #8]
 8003f74:	697a      	ldr	r2, [r7, #20]
 8003f76:	4313      	orrs	r3, r2
 8003f78:	617b      	str	r3, [r7, #20]

  if (IS_TIM_CCXN_INSTANCE(TIMx, TIM_CHANNEL_1))
 8003f7a:	687b      	ldr	r3, [r7, #4]
 8003f7c:	4a24      	ldr	r2, [pc, #144]	@ (8004010 <TIM_OC1_SetConfig+0xec>)
 8003f7e:	4293      	cmp	r3, r2
 8003f80:	d007      	beq.n	8003f92 <TIM_OC1_SetConfig+0x6e>
 8003f82:	687b      	ldr	r3, [r7, #4]
 8003f84:	4a23      	ldr	r2, [pc, #140]	@ (8004014 <TIM_OC1_SetConfig+0xf0>)
 8003f86:	4293      	cmp	r3, r2
 8003f88:	d003      	beq.n	8003f92 <TIM_OC1_SetConfig+0x6e>
 8003f8a:	687b      	ldr	r3, [r7, #4]
 8003f8c:	4a22      	ldr	r2, [pc, #136]	@ (8004018 <TIM_OC1_SetConfig+0xf4>)
 8003f8e:	4293      	cmp	r3, r2
 8003f90:	d10c      	bne.n	8003fac <TIM_OC1_SetConfig+0x88>
  {
    /* Check parameters */
    assert_param(IS_TIM_OCN_POLARITY(OC_Config->OCNPolarity));

    /* Reset the Output N Polarity level */
    tmpccer &= ~TIM_CCER_CC1NP;
 8003f92:	697b      	ldr	r3, [r7, #20]
 8003f94:	2208      	movs	r2, #8
 8003f96:	4393      	bics	r3, r2
 8003f98:	617b      	str	r3, [r7, #20]
    /* Set the Output N Polarity */
    tmpccer |= OC_Config->OCNPolarity;
 8003f9a:	683b      	ldr	r3, [r7, #0]
 8003f9c:	68db      	ldr	r3, [r3, #12]
 8003f9e:	697a      	ldr	r2, [r7, #20]
 8003fa0:	4313      	orrs	r3, r2
 8003fa2:	617b      	str	r3, [r7, #20]
    /* Reset the Output N State */
    tmpccer &= ~TIM_CCER_CC1NE;
 8003fa4:	697b      	ldr	r3, [r7, #20]
 8003fa6:	2204      	movs	r2, #4
 8003fa8:	4393      	bics	r3, r2
 8003faa:	617b      	str	r3, [r7, #20]
  }

  if (IS_TIM_BREAK_INSTANCE(TIMx))
 8003fac:	687b      	ldr	r3, [r7, #4]
 8003fae:	4a18      	ldr	r2, [pc, #96]	@ (8004010 <TIM_OC1_SetConfig+0xec>)
 8003fb0:	4293      	cmp	r3, r2
 8003fb2:	d007      	beq.n	8003fc4 <TIM_OC1_SetConfig+0xa0>
 8003fb4:	687b      	ldr	r3, [r7, #4]
 8003fb6:	4a17      	ldr	r2, [pc, #92]	@ (8004014 <TIM_OC1_SetConfig+0xf0>)
 8003fb8:	4293      	cmp	r3, r2
 8003fba:	d003      	beq.n	8003fc4 <TIM_OC1_SetConfig+0xa0>
 8003fbc:	687b      	ldr	r3, [r7, #4]
 8003fbe:	4a16      	ldr	r2, [pc, #88]	@ (8004018 <TIM_OC1_SetConfig+0xf4>)
 8003fc0:	4293      	cmp	r3, r2
 8003fc2:	d111      	bne.n	8003fe8 <TIM_OC1_SetConfig+0xc4>
    /* Check parameters */
    assert_param(IS_TIM_OCNIDLE_STATE(OC_Config->OCNIdleState));
    assert_param(IS_TIM_OCIDLE_STATE(OC_Config->OCIdleState));

    /* Reset the Output Compare and Output Compare N IDLE State */
    tmpcr2 &= ~TIM_CR2_OIS1;
 8003fc4:	693b      	ldr	r3, [r7, #16]
 8003fc6:	4a15      	ldr	r2, [pc, #84]	@ (800401c <TIM_OC1_SetConfig+0xf8>)
 8003fc8:	4013      	ands	r3, r2
 8003fca:	613b      	str	r3, [r7, #16]
    tmpcr2 &= ~TIM_CR2_OIS1N;
 8003fcc:	693b      	ldr	r3, [r7, #16]
 8003fce:	4a14      	ldr	r2, [pc, #80]	@ (8004020 <TIM_OC1_SetConfig+0xfc>)
 8003fd0:	4013      	ands	r3, r2
 8003fd2:	613b      	str	r3, [r7, #16]
    /* Set the Output Idle state */
    tmpcr2 |= OC_Config->OCIdleState;
 8003fd4:	683b      	ldr	r3, [r7, #0]
 8003fd6:	695b      	ldr	r3, [r3, #20]
 8003fd8:	693a      	ldr	r2, [r7, #16]
 8003fda:	4313      	orrs	r3, r2
 8003fdc:	613b      	str	r3, [r7, #16]
    /* Set the Output N Idle state */
    tmpcr2 |= OC_Config->OCNIdleState;
 8003fde:	683b      	ldr	r3, [r7, #0]
 8003fe0:	699b      	ldr	r3, [r3, #24]
 8003fe2:	693a      	ldr	r2, [r7, #16]
 8003fe4:	4313      	orrs	r3, r2
 8003fe6:	613b      	str	r3, [r7, #16]
  }

  /* Write to TIMx CR2 */
  TIMx->CR2 = tmpcr2;
 8003fe8:	687b      	ldr	r3, [r7, #4]
 8003fea:	693a      	ldr	r2, [r7, #16]
 8003fec:	605a      	str	r2, [r3, #4]

  /* Write to TIMx CCMR1 */
  TIMx->CCMR1 = tmpccmrx;
 8003fee:	687b      	ldr	r3, [r7, #4]
 8003ff0:	68fa      	ldr	r2, [r7, #12]
 8003ff2:	619a      	str	r2, [r3, #24]

  /* Set the Capture Compare Register value */
  TIMx->CCR1 = OC_Config->Pulse;
 8003ff4:	683b      	ldr	r3, [r7, #0]
 8003ff6:	685a      	ldr	r2, [r3, #4]
 8003ff8:	687b      	ldr	r3, [r7, #4]
 8003ffa:	635a      	str	r2, [r3, #52]	@ 0x34

  /* Write to TIMx CCER */
  TIMx->CCER = tmpccer;
 8003ffc:	687b      	ldr	r3, [r7, #4]
 8003ffe:	697a      	ldr	r2, [r7, #20]
 8004000:	621a      	str	r2, [r3, #32]
}
 8004002:	46c0      	nop			@ (mov r8, r8)
 8004004:	46bd      	mov	sp, r7
 8004006:	b006      	add	sp, #24
 8004008:	bd80      	pop	{r7, pc}
 800400a:	46c0      	nop			@ (mov r8, r8)
 800400c:	fffeff8f 	.word	0xfffeff8f
 8004010:	40012c00 	.word	0x40012c00
 8004014:	40014400 	.word	0x40014400
 8004018:	40014800 	.word	0x40014800
 800401c:	fffffeff 	.word	0xfffffeff
 8004020:	fffffdff 	.word	0xfffffdff

08004024 <TIM_OC2_SetConfig>:
  * @param  TIMx to select the TIM peripheral
  * @param  OC_Config The output configuration structure
  * @retval None
  */
void TIM_OC2_SetConfig(TIM_TypeDef *TIMx, const TIM_OC_InitTypeDef *OC_Config)
{
 8004024:	b580      	push	{r7, lr}
 8004026:	b086      	sub	sp, #24
 8004028:	af00      	add	r7, sp, #0
 800402a:	6078      	str	r0, [r7, #4]
 800402c:	6039      	str	r1, [r7, #0]
  uint32_t tmpccmrx;
  uint32_t tmpccer;
  uint32_t tmpcr2;

  /* Get the TIMx CCER register value */
  tmpccer = TIMx->CCER;
 800402e:	687b      	ldr	r3, [r7, #4]
 8004030:	6a1b      	ldr	r3, [r3, #32]
 8004032:	617b      	str	r3, [r7, #20]

  /* Disable the Channel 2: Reset the CC2E Bit */
  TIMx->CCER &= ~TIM_CCER_CC2E;
 8004034:	687b      	ldr	r3, [r7, #4]
 8004036:	6a1b      	ldr	r3, [r3, #32]
 8004038:	2210      	movs	r2, #16
 800403a:	4393      	bics	r3, r2
 800403c:	001a      	movs	r2, r3
 800403e:	687b      	ldr	r3, [r7, #4]
 8004040:	621a      	str	r2, [r3, #32]

  /* Get the TIMx CR2 register value */
  tmpcr2 =  TIMx->CR2;
 8004042:	687b      	ldr	r3, [r7, #4]
 8004044:	685b      	ldr	r3, [r3, #4]
 8004046:	613b      	str	r3, [r7, #16]

  /* Get the TIMx CCMR1 register value */
  tmpccmrx = TIMx->CCMR1;
 8004048:	687b      	ldr	r3, [r7, #4]
 800404a:	699b      	ldr	r3, [r3, #24]
 800404c:	60fb      	str	r3, [r7, #12]

  /* Reset the Output Compare mode and Capture/Compare selection Bits */
  tmpccmrx &= ~TIM_CCMR1_OC2M;
 800404e:	68fb      	ldr	r3, [r7, #12]
 8004050:	4a2c      	ldr	r2, [pc, #176]	@ (8004104 <TIM_OC2_SetConfig+0xe0>)
 8004052:	4013      	ands	r3, r2
 8004054:	60fb      	str	r3, [r7, #12]
  tmpccmrx &= ~TIM_CCMR1_CC2S;
 8004056:	68fb      	ldr	r3, [r7, #12]
 8004058:	4a2b      	ldr	r2, [pc, #172]	@ (8004108 <TIM_OC2_SetConfig+0xe4>)
 800405a:	4013      	ands	r3, r2
 800405c:	60fb      	str	r3, [r7, #12]

  /* Select the Output Compare Mode */
  tmpccmrx |= (OC_Config->OCMode << 8U);
 800405e:	683b      	ldr	r3, [r7, #0]
 8004060:	681b      	ldr	r3, [r3, #0]
 8004062:	021b      	lsls	r3, r3, #8
 8004064:	68fa      	ldr	r2, [r7, #12]
 8004066:	4313      	orrs	r3, r2
 8004068:	60fb      	str	r3, [r7, #12]

  /* Reset the Output Polarity level */
  tmpccer &= ~TIM_CCER_CC2P;
 800406a:	697b      	ldr	r3, [r7, #20]
 800406c:	2220      	movs	r2, #32
 800406e:	4393      	bics	r3, r2
 8004070:	617b      	str	r3, [r7, #20]
  /* Set the Output Compare Polarity */
  tmpccer |= (OC_Config->OCPolarity << 4U);
 8004072:	683b      	ldr	r3, [r7, #0]
 8004074:	689b      	ldr	r3, [r3, #8]
 8004076:	011b      	lsls	r3, r3, #4
 8004078:	697a      	ldr	r2, [r7, #20]
 800407a:	4313      	orrs	r3, r2
 800407c:	617b      	str	r3, [r7, #20]

  if (IS_TIM_CCXN_INSTANCE(TIMx, TIM_CHANNEL_2))
 800407e:	687b      	ldr	r3, [r7, #4]
 8004080:	4a22      	ldr	r2, [pc, #136]	@ (800410c <TIM_OC2_SetConfig+0xe8>)
 8004082:	4293      	cmp	r3, r2
 8004084:	d10d      	bne.n	80040a2 <TIM_OC2_SetConfig+0x7e>
  {
    assert_param(IS_TIM_OCN_POLARITY(OC_Config->OCNPolarity));

    /* Reset the Output N Polarity level */
    tmpccer &= ~TIM_CCER_CC2NP;
 8004086:	697b      	ldr	r3, [r7, #20]
 8004088:	2280      	movs	r2, #128	@ 0x80
 800408a:	4393      	bics	r3, r2
 800408c:	617b      	str	r3, [r7, #20]
    /* Set the Output N Polarity */
    tmpccer |= (OC_Config->OCNPolarity << 4U);
 800408e:	683b      	ldr	r3, [r7, #0]
 8004090:	68db      	ldr	r3, [r3, #12]
 8004092:	011b      	lsls	r3, r3, #4
 8004094:	697a      	ldr	r2, [r7, #20]
 8004096:	4313      	orrs	r3, r2
 8004098:	617b      	str	r3, [r7, #20]
    /* Reset the Output N State */
    tmpccer &= ~TIM_CCER_CC2NE;
 800409a:	697b      	ldr	r3, [r7, #20]
 800409c:	2240      	movs	r2, #64	@ 0x40
 800409e:	4393      	bics	r3, r2
 80040a0:	617b      	str	r3, [r7, #20]
  }

  if (IS_TIM_BREAK_INSTANCE(TIMx))
 80040a2:	687b      	ldr	r3, [r7, #4]
 80040a4:	4a19      	ldr	r2, [pc, #100]	@ (800410c <TIM_OC2_SetConfig+0xe8>)
 80040a6:	4293      	cmp	r3, r2
 80040a8:	d007      	beq.n	80040ba <TIM_OC2_SetConfig+0x96>
 80040aa:	687b      	ldr	r3, [r7, #4]
 80040ac:	4a18      	ldr	r2, [pc, #96]	@ (8004110 <TIM_OC2_SetConfig+0xec>)
 80040ae:	4293      	cmp	r3, r2
 80040b0:	d003      	beq.n	80040ba <TIM_OC2_SetConfig+0x96>
 80040b2:	687b      	ldr	r3, [r7, #4]
 80040b4:	4a17      	ldr	r2, [pc, #92]	@ (8004114 <TIM_OC2_SetConfig+0xf0>)
 80040b6:	4293      	cmp	r3, r2
 80040b8:	d113      	bne.n	80040e2 <TIM_OC2_SetConfig+0xbe>
    /* Check parameters */
    assert_param(IS_TIM_OCNIDLE_STATE(OC_Config->OCNIdleState));
    assert_param(IS_TIM_OCIDLE_STATE(OC_Config->OCIdleState));

    /* Reset the Output Compare and Output Compare N IDLE State */
    tmpcr2 &= ~TIM_CR2_OIS2;
 80040ba:	693b      	ldr	r3, [r7, #16]
 80040bc:	4a16      	ldr	r2, [pc, #88]	@ (8004118 <TIM_OC2_SetConfig+0xf4>)
 80040be:	4013      	ands	r3, r2
 80040c0:	613b      	str	r3, [r7, #16]
    tmpcr2 &= ~TIM_CR2_OIS2N;
 80040c2:	693b      	ldr	r3, [r7, #16]
 80040c4:	4a15      	ldr	r2, [pc, #84]	@ (800411c <TIM_OC2_SetConfig+0xf8>)
 80040c6:	4013      	ands	r3, r2
 80040c8:	613b      	str	r3, [r7, #16]
    /* Set the Output Idle state */
    tmpcr2 |= (OC_Config->OCIdleState << 2U);
 80040ca:	683b      	ldr	r3, [r7, #0]
 80040cc:	695b      	ldr	r3, [r3, #20]
 80040ce:	009b      	lsls	r3, r3, #2
 80040d0:	693a      	ldr	r2, [r7, #16]
 80040d2:	4313      	orrs	r3, r2
 80040d4:	613b      	str	r3, [r7, #16]
    /* Set the Output N Idle state */
    tmpcr2 |= (OC_Config->OCNIdleState << 2U);
 80040d6:	683b      	ldr	r3, [r7, #0]
 80040d8:	699b      	ldr	r3, [r3, #24]
 80040da:	009b      	lsls	r3, r3, #2
 80040dc:	693a      	ldr	r2, [r7, #16]
 80040de:	4313      	orrs	r3, r2
 80040e0:	613b      	str	r3, [r7, #16]
  }

  /* Write to TIMx CR2 */
  TIMx->CR2 = tmpcr2;
 80040e2:	687b      	ldr	r3, [r7, #4]
 80040e4:	693a      	ldr	r2, [r7, #16]
 80040e6:	605a      	str	r2, [r3, #4]

  /* Write to TIMx CCMR1 */
  TIMx->CCMR1 = tmpccmrx;
 80040e8:	687b      	ldr	r3, [r7, #4]
 80040ea:	68fa      	ldr	r2, [r7, #12]
 80040ec:	619a      	str	r2, [r3, #24]

  /* Set the Capture Compare Register value */
  TIMx->CCR2 = OC_Config->Pulse;
 80040ee:	683b      	ldr	r3, [r7, #0]
 80040f0:	685a      	ldr	r2, [r3, #4]
 80040f2:	687b      	ldr	r3, [r7, #4]
 80040f4:	639a      	str	r2, [r3, #56]	@ 0x38

  /* Write to TIMx CCER */
  TIMx->CCER = tmpccer;
 80040f6:	687b      	ldr	r3, [r7, #4]
 80040f8:	697a      	ldr	r2, [r7, #20]
 80040fa:	621a      	str	r2, [r3, #32]
}
 80040fc:	46c0      	nop			@ (mov r8, r8)
 80040fe:	46bd      	mov	sp, r7
 8004100:	b006      	add	sp, #24
 8004102:	bd80      	pop	{r7, pc}
 8004104:	feff8fff 	.word	0xfeff8fff
 8004108:	fffffcff 	.word	0xfffffcff
 800410c:	40012c00 	.word	0x40012c00
 8004110:	40014400 	.word	0x40014400
 8004114:	40014800 	.word	0x40014800
 8004118:	fffffbff 	.word	0xfffffbff
 800411c:	fffff7ff 	.word	0xfffff7ff

08004120 <TIM_OC3_SetConfig>:
  * @param  TIMx to select the TIM peripheral
  * @param  OC_Config The output configuration structure
  * @retval None
  */
static void TIM_OC3_SetConfig(TIM_TypeDef *TIMx, const TIM_OC_InitTypeDef *OC_Config)
{
 8004120:	b580      	push	{r7, lr}
 8004122:	b086      	sub	sp, #24
 8004124:	af00      	add	r7, sp, #0
 8004126:	6078      	str	r0, [r7, #4]
 8004128:	6039      	str	r1, [r7, #0]
  uint32_t tmpccmrx;
  uint32_t tmpccer;
  uint32_t tmpcr2;

  /* Get the TIMx CCER register value */
  tmpccer = TIMx->CCER;
 800412a:	687b      	ldr	r3, [r7, #4]
 800412c:	6a1b      	ldr	r3, [r3, #32]
 800412e:	617b      	str	r3, [r7, #20]

  /* Disable the Channel 3: Reset the CC2E Bit */
  TIMx->CCER &= ~TIM_CCER_CC3E;
 8004130:	687b      	ldr	r3, [r7, #4]
 8004132:	6a1b      	ldr	r3, [r3, #32]
 8004134:	4a31      	ldr	r2, [pc, #196]	@ (80041fc <TIM_OC3_SetConfig+0xdc>)
 8004136:	401a      	ands	r2, r3
 8004138:	687b      	ldr	r3, [r7, #4]
 800413a:	621a      	str	r2, [r3, #32]

  /* Get the TIMx CR2 register value */
  tmpcr2 =  TIMx->CR2;
 800413c:	687b      	ldr	r3, [r7, #4]
 800413e:	685b      	ldr	r3, [r3, #4]
 8004140:	613b      	str	r3, [r7, #16]

  /* Get the TIMx CCMR2 register value */
  tmpccmrx = TIMx->CCMR2;
 8004142:	687b      	ldr	r3, [r7, #4]
 8004144:	69db      	ldr	r3, [r3, #28]
 8004146:	60fb      	str	r3, [r7, #12]

  /* Reset the Output Compare mode and Capture/Compare selection Bits */
  tmpccmrx &= ~TIM_CCMR2_OC3M;
 8004148:	68fb      	ldr	r3, [r7, #12]
 800414a:	4a2d      	ldr	r2, [pc, #180]	@ (8004200 <TIM_OC3_SetConfig+0xe0>)
 800414c:	4013      	ands	r3, r2
 800414e:	60fb      	str	r3, [r7, #12]
  tmpccmrx &= ~TIM_CCMR2_CC3S;
 8004150:	68fb      	ldr	r3, [r7, #12]
 8004152:	2203      	movs	r2, #3
 8004154:	4393      	bics	r3, r2
 8004156:	60fb      	str	r3, [r7, #12]
  /* Select the Output Compare Mode */
  tmpccmrx |= OC_Config->OCMode;
 8004158:	683b      	ldr	r3, [r7, #0]
 800415a:	681b      	ldr	r3, [r3, #0]
 800415c:	68fa      	ldr	r2, [r7, #12]
 800415e:	4313      	orrs	r3, r2
 8004160:	60fb      	str	r3, [r7, #12]

  /* Reset the Output Polarity level */
  tmpccer &= ~TIM_CCER_CC3P;
 8004162:	697b      	ldr	r3, [r7, #20]
 8004164:	4a27      	ldr	r2, [pc, #156]	@ (8004204 <TIM_OC3_SetConfig+0xe4>)
 8004166:	4013      	ands	r3, r2
 8004168:	617b      	str	r3, [r7, #20]
  /* Set the Output Compare Polarity */
  tmpccer |= (OC_Config->OCPolarity << 8U);
 800416a:	683b      	ldr	r3, [r7, #0]
 800416c:	689b      	ldr	r3, [r3, #8]
 800416e:	021b      	lsls	r3, r3, #8
 8004170:	697a      	ldr	r2, [r7, #20]
 8004172:	4313      	orrs	r3, r2
 8004174:	617b      	str	r3, [r7, #20]

  if (IS_TIM_CCXN_INSTANCE(TIMx, TIM_CHANNEL_3))
 8004176:	687b      	ldr	r3, [r7, #4]
 8004178:	4a23      	ldr	r2, [pc, #140]	@ (8004208 <TIM_OC3_SetConfig+0xe8>)
 800417a:	4293      	cmp	r3, r2
 800417c:	d10d      	bne.n	800419a <TIM_OC3_SetConfig+0x7a>
  {
    assert_param(IS_TIM_OCN_POLARITY(OC_Config->OCNPolarity));

    /* Reset the Output N Polarity level */
    tmpccer &= ~TIM_CCER_CC3NP;
 800417e:	697b      	ldr	r3, [r7, #20]
 8004180:	4a22      	ldr	r2, [pc, #136]	@ (800420c <TIM_OC3_SetConfig+0xec>)
 8004182:	4013      	ands	r3, r2
 8004184:	617b      	str	r3, [r7, #20]
    /* Set the Output N Polarity */
    tmpccer |= (OC_Config->OCNPolarity << 8U);
 8004186:	683b      	ldr	r3, [r7, #0]
 8004188:	68db      	ldr	r3, [r3, #12]
 800418a:	021b      	lsls	r3, r3, #8
 800418c:	697a      	ldr	r2, [r7, #20]
 800418e:	4313      	orrs	r3, r2
 8004190:	617b      	str	r3, [r7, #20]
    /* Reset the Output N State */
    tmpccer &= ~TIM_CCER_CC3NE;
 8004192:	697b      	ldr	r3, [r7, #20]
 8004194:	4a1e      	ldr	r2, [pc, #120]	@ (8004210 <TIM_OC3_SetConfig+0xf0>)
 8004196:	4013      	ands	r3, r2
 8004198:	617b      	str	r3, [r7, #20]
  }

  if (IS_TIM_BREAK_INSTANCE(TIMx))
 800419a:	687b      	ldr	r3, [r7, #4]
 800419c:	4a1a      	ldr	r2, [pc, #104]	@ (8004208 <TIM_OC3_SetConfig+0xe8>)
 800419e:	4293      	cmp	r3, r2
 80041a0:	d007      	beq.n	80041b2 <TIM_OC3_SetConfig+0x92>
 80041a2:	687b      	ldr	r3, [r7, #4]
 80041a4:	4a1b      	ldr	r2, [pc, #108]	@ (8004214 <TIM_OC3_SetConfig+0xf4>)
 80041a6:	4293      	cmp	r3, r2
 80041a8:	d003      	beq.n	80041b2 <TIM_OC3_SetConfig+0x92>
 80041aa:	687b      	ldr	r3, [r7, #4]
 80041ac:	4a1a      	ldr	r2, [pc, #104]	@ (8004218 <TIM_OC3_SetConfig+0xf8>)
 80041ae:	4293      	cmp	r3, r2
 80041b0:	d113      	bne.n	80041da <TIM_OC3_SetConfig+0xba>
    /* Check parameters */
    assert_param(IS_TIM_OCNIDLE_STATE(OC_Config->OCNIdleState));
    assert_param(IS_TIM_OCIDLE_STATE(OC_Config->OCIdleState));

    /* Reset the Output Compare and Output Compare N IDLE State */
    tmpcr2 &= ~TIM_CR2_OIS3;
 80041b2:	693b      	ldr	r3, [r7, #16]
 80041b4:	4a19      	ldr	r2, [pc, #100]	@ (800421c <TIM_OC3_SetConfig+0xfc>)
 80041b6:	4013      	ands	r3, r2
 80041b8:	613b      	str	r3, [r7, #16]
    tmpcr2 &= ~TIM_CR2_OIS3N;
 80041ba:	693b      	ldr	r3, [r7, #16]
 80041bc:	4a18      	ldr	r2, [pc, #96]	@ (8004220 <TIM_OC3_SetConfig+0x100>)
 80041be:	4013      	ands	r3, r2
 80041c0:	613b      	str	r3, [r7, #16]
    /* Set the Output Idle state */
    tmpcr2 |= (OC_Config->OCIdleState << 4U);
 80041c2:	683b      	ldr	r3, [r7, #0]
 80041c4:	695b      	ldr	r3, [r3, #20]
 80041c6:	011b      	lsls	r3, r3, #4
 80041c8:	693a      	ldr	r2, [r7, #16]
 80041ca:	4313      	orrs	r3, r2
 80041cc:	613b      	str	r3, [r7, #16]
    /* Set the Output N Idle state */
    tmpcr2 |= (OC_Config->OCNIdleState << 4U);
 80041ce:	683b      	ldr	r3, [r7, #0]
 80041d0:	699b      	ldr	r3, [r3, #24]
 80041d2:	011b      	lsls	r3, r3, #4
 80041d4:	693a      	ldr	r2, [r7, #16]
 80041d6:	4313      	orrs	r3, r2
 80041d8:	613b      	str	r3, [r7, #16]
  }

  /* Write to TIMx CR2 */
  TIMx->CR2 = tmpcr2;
 80041da:	687b      	ldr	r3, [r7, #4]
 80041dc:	693a      	ldr	r2, [r7, #16]
 80041de:	605a      	str	r2, [r3, #4]

  /* Write to TIMx CCMR2 */
  TIMx->CCMR2 = tmpccmrx;
 80041e0:	687b      	ldr	r3, [r7, #4]
 80041e2:	68fa      	ldr	r2, [r7, #12]
 80041e4:	61da      	str	r2, [r3, #28]

  /* Set the Capture Compare Register value */
  TIMx->CCR3 = OC_Config->Pulse;
 80041e6:	683b      	ldr	r3, [r7, #0]
 80041e8:	685a      	ldr	r2, [r3, #4]
 80041ea:	687b      	ldr	r3, [r7, #4]
 80041ec:	63da      	str	r2, [r3, #60]	@ 0x3c

  /* Write to TIMx CCER */
  TIMx->CCER = tmpccer;
 80041ee:	687b      	ldr	r3, [r7, #4]
 80041f0:	697a      	ldr	r2, [r7, #20]
 80041f2:	621a      	str	r2, [r3, #32]
}
 80041f4:	46c0      	nop			@ (mov r8, r8)
 80041f6:	46bd      	mov	sp, r7
 80041f8:	b006      	add	sp, #24
 80041fa:	bd80      	pop	{r7, pc}
 80041fc:	fffffeff 	.word	0xfffffeff
 8004200:	fffeff8f 	.word	0xfffeff8f
 8004204:	fffffdff 	.word	0xfffffdff
 8004208:	40012c00 	.word	0x40012c00
 800420c:	fffff7ff 	.word	0xfffff7ff
 8004210:	fffffbff 	.word	0xfffffbff
 8004214:	40014400 	.word	0x40014400
 8004218:	40014800 	.word	0x40014800
 800421c:	ffffefff 	.word	0xffffefff
 8004220:	ffffdfff 	.word	0xffffdfff

08004224 <TIM_OC4_SetConfig>:
  * @param  TIMx to select the TIM peripheral
  * @param  OC_Config The output configuration structure
  * @retval None
  */
static void TIM_OC4_SetConfig(TIM_TypeDef *TIMx, const TIM_OC_InitTypeDef *OC_Config)
{
 8004224:	b580      	push	{r7, lr}
 8004226:	b086      	sub	sp, #24
 8004228:	af00      	add	r7, sp, #0
 800422a:	6078      	str	r0, [r7, #4]
 800422c:	6039      	str	r1, [r7, #0]
  uint32_t tmpccmrx;
  uint32_t tmpccer;
  uint32_t tmpcr2;

  /* Get the TIMx CCER register value */
  tmpccer = TIMx->CCER;
 800422e:	687b      	ldr	r3, [r7, #4]
 8004230:	6a1b      	ldr	r3, [r3, #32]
 8004232:	613b      	str	r3, [r7, #16]

  /* Disable the Channel 4: Reset the CC4E Bit */
  TIMx->CCER &= ~TIM_CCER_CC4E;
 8004234:	687b      	ldr	r3, [r7, #4]
 8004236:	6a1b      	ldr	r3, [r3, #32]
 8004238:	4a24      	ldr	r2, [pc, #144]	@ (80042cc <TIM_OC4_SetConfig+0xa8>)
 800423a:	401a      	ands	r2, r3
 800423c:	687b      	ldr	r3, [r7, #4]
 800423e:	621a      	str	r2, [r3, #32]

  /* Get the TIMx CR2 register value */
  tmpcr2 =  TIMx->CR2;
 8004240:	687b      	ldr	r3, [r7, #4]
 8004242:	685b      	ldr	r3, [r3, #4]
 8004244:	617b      	str	r3, [r7, #20]

  /* Get the TIMx CCMR2 register value */
  tmpccmrx = TIMx->CCMR2;
 8004246:	687b      	ldr	r3, [r7, #4]
 8004248:	69db      	ldr	r3, [r3, #28]
 800424a:	60fb      	str	r3, [r7, #12]

  /* Reset the Output Compare mode and Capture/Compare selection Bits */
  tmpccmrx &= ~TIM_CCMR2_OC4M;
 800424c:	68fb      	ldr	r3, [r7, #12]
 800424e:	4a20      	ldr	r2, [pc, #128]	@ (80042d0 <TIM_OC4_SetConfig+0xac>)
 8004250:	4013      	ands	r3, r2
 8004252:	60fb      	str	r3, [r7, #12]
  tmpccmrx &= ~TIM_CCMR2_CC4S;
 8004254:	68fb      	ldr	r3, [r7, #12]
 8004256:	4a1f      	ldr	r2, [pc, #124]	@ (80042d4 <TIM_OC4_SetConfig+0xb0>)
 8004258:	4013      	ands	r3, r2
 800425a:	60fb      	str	r3, [r7, #12]

  /* Select the Output Compare Mode */
  tmpccmrx |= (OC_Config->OCMode << 8U);
 800425c:	683b      	ldr	r3, [r7, #0]
 800425e:	681b      	ldr	r3, [r3, #0]
 8004260:	021b      	lsls	r3, r3, #8
 8004262:	68fa      	ldr	r2, [r7, #12]
 8004264:	4313      	orrs	r3, r2
 8004266:	60fb      	str	r3, [r7, #12]

  /* Reset the Output Polarity level */
  tmpccer &= ~TIM_CCER_CC4P;
 8004268:	693b      	ldr	r3, [r7, #16]
 800426a:	4a1b      	ldr	r2, [pc, #108]	@ (80042d8 <TIM_OC4_SetConfig+0xb4>)
 800426c:	4013      	ands	r3, r2
 800426e:	613b      	str	r3, [r7, #16]
  /* Set the Output Compare Polarity */
  tmpccer |= (OC_Config->OCPolarity << 12U);
 8004270:	683b      	ldr	r3, [r7, #0]
 8004272:	689b      	ldr	r3, [r3, #8]
 8004274:	031b      	lsls	r3, r3, #12
 8004276:	693a      	ldr	r2, [r7, #16]
 8004278:	4313      	orrs	r3, r2
 800427a:	613b      	str	r3, [r7, #16]

  if (IS_TIM_BREAK_INSTANCE(TIMx))
 800427c:	687b      	ldr	r3, [r7, #4]
 800427e:	4a17      	ldr	r2, [pc, #92]	@ (80042dc <TIM_OC4_SetConfig+0xb8>)
 8004280:	4293      	cmp	r3, r2
 8004282:	d007      	beq.n	8004294 <TIM_OC4_SetConfig+0x70>
 8004284:	687b      	ldr	r3, [r7, #4]
 8004286:	4a16      	ldr	r2, [pc, #88]	@ (80042e0 <TIM_OC4_SetConfig+0xbc>)
 8004288:	4293      	cmp	r3, r2
 800428a:	d003      	beq.n	8004294 <TIM_OC4_SetConfig+0x70>
 800428c:	687b      	ldr	r3, [r7, #4]
 800428e:	4a15      	ldr	r2, [pc, #84]	@ (80042e4 <TIM_OC4_SetConfig+0xc0>)
 8004290:	4293      	cmp	r3, r2
 8004292:	d109      	bne.n	80042a8 <TIM_OC4_SetConfig+0x84>
  {
    /* Check parameters */
    assert_param(IS_TIM_OCIDLE_STATE(OC_Config->OCIdleState));

    /* Reset the Output Compare IDLE State */
    tmpcr2 &= ~TIM_CR2_OIS4;
 8004294:	697b      	ldr	r3, [r7, #20]
 8004296:	4a14      	ldr	r2, [pc, #80]	@ (80042e8 <TIM_OC4_SetConfig+0xc4>)
 8004298:	4013      	ands	r3, r2
 800429a:	617b      	str	r3, [r7, #20]

    /* Set the Output Idle state */
    tmpcr2 |= (OC_Config->OCIdleState << 6U);
 800429c:	683b      	ldr	r3, [r7, #0]
 800429e:	695b      	ldr	r3, [r3, #20]
 80042a0:	019b      	lsls	r3, r3, #6
 80042a2:	697a      	ldr	r2, [r7, #20]
 80042a4:	4313      	orrs	r3, r2
 80042a6:	617b      	str	r3, [r7, #20]
  }

  /* Write to TIMx CR2 */
  TIMx->CR2 = tmpcr2;
 80042a8:	687b      	ldr	r3, [r7, #4]
 80042aa:	697a      	ldr	r2, [r7, #20]
 80042ac:	605a      	str	r2, [r3, #4]

  /* Write to TIMx CCMR2 */
  TIMx->CCMR2 = tmpccmrx;
 80042ae:	687b      	ldr	r3, [r7, #4]
 80042b0:	68fa      	ldr	r2, [r7, #12]
 80042b2:	61da      	str	r2, [r3, #28]

  /* Set the Capture Compare Register value */
  TIMx->CCR4 = OC_Config->Pulse;
 80042b4:	683b      	ldr	r3, [r7, #0]
 80042b6:	685a      	ldr	r2, [r3, #4]
 80042b8:	687b      	ldr	r3, [r7, #4]
 80042ba:	641a      	str	r2, [r3, #64]	@ 0x40

  /* Write to TIMx CCER */
  TIMx->CCER = tmpccer;
 80042bc:	687b      	ldr	r3, [r7, #4]
 80042be:	693a      	ldr	r2, [r7, #16]
 80042c0:	621a      	str	r2, [r3, #32]
}
 80042c2:	46c0      	nop			@ (mov r8, r8)
 80042c4:	46bd      	mov	sp, r7
 80042c6:	b006      	add	sp, #24
 80042c8:	bd80      	pop	{r7, pc}
 80042ca:	46c0      	nop			@ (mov r8, r8)
 80042cc:	ffffefff 	.word	0xffffefff
 80042d0:	feff8fff 	.word	0xfeff8fff
 80042d4:	fffffcff 	.word	0xfffffcff
 80042d8:	ffffdfff 	.word	0xffffdfff
 80042dc:	40012c00 	.word	0x40012c00
 80042e0:	40014400 	.word	0x40014400
 80042e4:	40014800 	.word	0x40014800
 80042e8:	ffffbfff 	.word	0xffffbfff

080042ec <TIM_OC5_SetConfig>:
  * @param  OC_Config The output configuration structure
  * @retval None
  */
static void TIM_OC5_SetConfig(TIM_TypeDef *TIMx,
                              const TIM_OC_InitTypeDef *OC_Config)
{
 80042ec:	b580      	push	{r7, lr}
 80042ee:	b086      	sub	sp, #24
 80042f0:	af00      	add	r7, sp, #0
 80042f2:	6078      	str	r0, [r7, #4]
 80042f4:	6039      	str	r1, [r7, #0]
  uint32_t tmpccmrx;
  uint32_t tmpccer;
  uint32_t tmpcr2;

  /* Get the TIMx CCER register value */
  tmpccer = TIMx->CCER;
 80042f6:	687b      	ldr	r3, [r7, #4]
 80042f8:	6a1b      	ldr	r3, [r3, #32]
 80042fa:	613b      	str	r3, [r7, #16]

  /* Disable the output: Reset the CCxE Bit */
  TIMx->CCER &= ~TIM_CCER_CC5E;
 80042fc:	687b      	ldr	r3, [r7, #4]
 80042fe:	6a1b      	ldr	r3, [r3, #32]
 8004300:	4a21      	ldr	r2, [pc, #132]	@ (8004388 <TIM_OC5_SetConfig+0x9c>)
 8004302:	401a      	ands	r2, r3
 8004304:	687b      	ldr	r3, [r7, #4]
 8004306:	621a      	str	r2, [r3, #32]

  /* Get the TIMx CR2 register value */
  tmpcr2 =  TIMx->CR2;
 8004308:	687b      	ldr	r3, [r7, #4]
 800430a:	685b      	ldr	r3, [r3, #4]
 800430c:	617b      	str	r3, [r7, #20]
  /* Get the TIMx CCMR1 register value */
  tmpccmrx = TIMx->CCMR3;
 800430e:	687b      	ldr	r3, [r7, #4]
 8004310:	6d5b      	ldr	r3, [r3, #84]	@ 0x54
 8004312:	60fb      	str	r3, [r7, #12]

  /* Reset the Output Compare Mode Bits */
  tmpccmrx &= ~(TIM_CCMR3_OC5M);
 8004314:	68fb      	ldr	r3, [r7, #12]
 8004316:	4a1d      	ldr	r2, [pc, #116]	@ (800438c <TIM_OC5_SetConfig+0xa0>)
 8004318:	4013      	ands	r3, r2
 800431a:	60fb      	str	r3, [r7, #12]
  /* Select the Output Compare Mode */
  tmpccmrx |= OC_Config->OCMode;
 800431c:	683b      	ldr	r3, [r7, #0]
 800431e:	681b      	ldr	r3, [r3, #0]
 8004320:	68fa      	ldr	r2, [r7, #12]
 8004322:	4313      	orrs	r3, r2
 8004324:	60fb      	str	r3, [r7, #12]

  /* Reset the Output Polarity level */
  tmpccer &= ~TIM_CCER_CC5P;
 8004326:	693b      	ldr	r3, [r7, #16]
 8004328:	4a19      	ldr	r2, [pc, #100]	@ (8004390 <TIM_OC5_SetConfig+0xa4>)
 800432a:	4013      	ands	r3, r2
 800432c:	613b      	str	r3, [r7, #16]
  /* Set the Output Compare Polarity */
  tmpccer |= (OC_Config->OCPolarity << 16U);
 800432e:	683b      	ldr	r3, [r7, #0]
 8004330:	689b      	ldr	r3, [r3, #8]
 8004332:	041b      	lsls	r3, r3, #16
 8004334:	693a      	ldr	r2, [r7, #16]
 8004336:	4313      	orrs	r3, r2
 8004338:	613b      	str	r3, [r7, #16]

  if (IS_TIM_BREAK_INSTANCE(TIMx))
 800433a:	687b      	ldr	r3, [r7, #4]
 800433c:	4a15      	ldr	r2, [pc, #84]	@ (8004394 <TIM_OC5_SetConfig+0xa8>)
 800433e:	4293      	cmp	r3, r2
 8004340:	d007      	beq.n	8004352 <TIM_OC5_SetConfig+0x66>
 8004342:	687b      	ldr	r3, [r7, #4]
 8004344:	4a14      	ldr	r2, [pc, #80]	@ (8004398 <TIM_OC5_SetConfig+0xac>)
 8004346:	4293      	cmp	r3, r2
 8004348:	d003      	beq.n	8004352 <TIM_OC5_SetConfig+0x66>
 800434a:	687b      	ldr	r3, [r7, #4]
 800434c:	4a13      	ldr	r2, [pc, #76]	@ (800439c <TIM_OC5_SetConfig+0xb0>)
 800434e:	4293      	cmp	r3, r2
 8004350:	d109      	bne.n	8004366 <TIM_OC5_SetConfig+0x7a>
  {
    /* Reset the Output Compare IDLE State */
    tmpcr2 &= ~TIM_CR2_OIS5;
 8004352:	697b      	ldr	r3, [r7, #20]
 8004354:	4a0c      	ldr	r2, [pc, #48]	@ (8004388 <TIM_OC5_SetConfig+0x9c>)
 8004356:	4013      	ands	r3, r2
 8004358:	617b      	str	r3, [r7, #20]
    /* Set the Output Idle state */
    tmpcr2 |= (OC_Config->OCIdleState << 8U);
 800435a:	683b      	ldr	r3, [r7, #0]
 800435c:	695b      	ldr	r3, [r3, #20]
 800435e:	021b      	lsls	r3, r3, #8
 8004360:	697a      	ldr	r2, [r7, #20]
 8004362:	4313      	orrs	r3, r2
 8004364:	617b      	str	r3, [r7, #20]
  }
  /* Write to TIMx CR2 */
  TIMx->CR2 = tmpcr2;
 8004366:	687b      	ldr	r3, [r7, #4]
 8004368:	697a      	ldr	r2, [r7, #20]
 800436a:	605a      	str	r2, [r3, #4]

  /* Write to TIMx CCMR3 */
  TIMx->CCMR3 = tmpccmrx;
 800436c:	687b      	ldr	r3, [r7, #4]
 800436e:	68fa      	ldr	r2, [r7, #12]
 8004370:	655a      	str	r2, [r3, #84]	@ 0x54

  /* Set the Capture Compare Register value */
  TIMx->CCR5 = OC_Config->Pulse;
 8004372:	683b      	ldr	r3, [r7, #0]
 8004374:	685a      	ldr	r2, [r3, #4]
 8004376:	687b      	ldr	r3, [r7, #4]
 8004378:	659a      	str	r2, [r3, #88]	@ 0x58

  /* Write to TIMx CCER */
  TIMx->CCER = tmpccer;
 800437a:	687b      	ldr	r3, [r7, #4]
 800437c:	693a      	ldr	r2, [r7, #16]
 800437e:	621a      	str	r2, [r3, #32]
}
 8004380:	46c0      	nop			@ (mov r8, r8)
 8004382:	46bd      	mov	sp, r7
 8004384:	b006      	add	sp, #24
 8004386:	bd80      	pop	{r7, pc}
 8004388:	fffeffff 	.word	0xfffeffff
 800438c:	fffeff8f 	.word	0xfffeff8f
 8004390:	fffdffff 	.word	0xfffdffff
 8004394:	40012c00 	.word	0x40012c00
 8004398:	40014400 	.word	0x40014400
 800439c:	40014800 	.word	0x40014800

080043a0 <TIM_OC6_SetConfig>:
  * @param  OC_Config The output configuration structure
  * @retval None
  */
static void TIM_OC6_SetConfig(TIM_TypeDef *TIMx,
                              const TIM_OC_InitTypeDef *OC_Config)
{
 80043a0:	b580      	push	{r7, lr}
 80043a2:	b086      	sub	sp, #24
 80043a4:	af00      	add	r7, sp, #0
 80043a6:	6078      	str	r0, [r7, #4]
 80043a8:	6039      	str	r1, [r7, #0]
  uint32_t tmpccmrx;
  uint32_t tmpccer;
  uint32_t tmpcr2;

  /* Get the TIMx CCER register value */
  tmpccer = TIMx->CCER;
 80043aa:	687b      	ldr	r3, [r7, #4]
 80043ac:	6a1b      	ldr	r3, [r3, #32]
 80043ae:	613b      	str	r3, [r7, #16]

  /* Disable the output: Reset the CCxE Bit */
  TIMx->CCER &= ~TIM_CCER_CC6E;
 80043b0:	687b      	ldr	r3, [r7, #4]
 80043b2:	6a1b      	ldr	r3, [r3, #32]
 80043b4:	4a22      	ldr	r2, [pc, #136]	@ (8004440 <TIM_OC6_SetConfig+0xa0>)
 80043b6:	401a      	ands	r2, r3
 80043b8:	687b      	ldr	r3, [r7, #4]
 80043ba:	621a      	str	r2, [r3, #32]

  /* Get the TIMx CR2 register value */
  tmpcr2 =  TIMx->CR2;
 80043bc:	687b      	ldr	r3, [r7, #4]
 80043be:	685b      	ldr	r3, [r3, #4]
 80043c0:	617b      	str	r3, [r7, #20]
  /* Get the TIMx CCMR1 register value */
  tmpccmrx = TIMx->CCMR3;
 80043c2:	687b      	ldr	r3, [r7, #4]
 80043c4:	6d5b      	ldr	r3, [r3, #84]	@ 0x54
 80043c6:	60fb      	str	r3, [r7, #12]

  /* Reset the Output Compare Mode Bits */
  tmpccmrx &= ~(TIM_CCMR3_OC6M);
 80043c8:	68fb      	ldr	r3, [r7, #12]
 80043ca:	4a1e      	ldr	r2, [pc, #120]	@ (8004444 <TIM_OC6_SetConfig+0xa4>)
 80043cc:	4013      	ands	r3, r2
 80043ce:	60fb      	str	r3, [r7, #12]
  /* Select the Output Compare Mode */
  tmpccmrx |= (OC_Config->OCMode << 8U);
 80043d0:	683b      	ldr	r3, [r7, #0]
 80043d2:	681b      	ldr	r3, [r3, #0]
 80043d4:	021b      	lsls	r3, r3, #8
 80043d6:	68fa      	ldr	r2, [r7, #12]
 80043d8:	4313      	orrs	r3, r2
 80043da:	60fb      	str	r3, [r7, #12]

  /* Reset the Output Polarity level */
  tmpccer &= (uint32_t)~TIM_CCER_CC6P;
 80043dc:	693b      	ldr	r3, [r7, #16]
 80043de:	4a1a      	ldr	r2, [pc, #104]	@ (8004448 <TIM_OC6_SetConfig+0xa8>)
 80043e0:	4013      	ands	r3, r2
 80043e2:	613b      	str	r3, [r7, #16]
  /* Set the Output Compare Polarity */
  tmpccer |= (OC_Config->OCPolarity << 20U);
 80043e4:	683b      	ldr	r3, [r7, #0]
 80043e6:	689b      	ldr	r3, [r3, #8]
 80043e8:	051b      	lsls	r3, r3, #20
 80043ea:	693a      	ldr	r2, [r7, #16]
 80043ec:	4313      	orrs	r3, r2
 80043ee:	613b      	str	r3, [r7, #16]

  if (IS_TIM_BREAK_INSTANCE(TIMx))
 80043f0:	687b      	ldr	r3, [r7, #4]
 80043f2:	4a16      	ldr	r2, [pc, #88]	@ (800444c <TIM_OC6_SetConfig+0xac>)
 80043f4:	4293      	cmp	r3, r2
 80043f6:	d007      	beq.n	8004408 <TIM_OC6_SetConfig+0x68>
 80043f8:	687b      	ldr	r3, [r7, #4]
 80043fa:	4a15      	ldr	r2, [pc, #84]	@ (8004450 <TIM_OC6_SetConfig+0xb0>)
 80043fc:	4293      	cmp	r3, r2
 80043fe:	d003      	beq.n	8004408 <TIM_OC6_SetConfig+0x68>
 8004400:	687b      	ldr	r3, [r7, #4]
 8004402:	4a14      	ldr	r2, [pc, #80]	@ (8004454 <TIM_OC6_SetConfig+0xb4>)
 8004404:	4293      	cmp	r3, r2
 8004406:	d109      	bne.n	800441c <TIM_OC6_SetConfig+0x7c>
  {
    /* Reset the Output Compare IDLE State */
    tmpcr2 &= ~TIM_CR2_OIS6;
 8004408:	697b      	ldr	r3, [r7, #20]
 800440a:	4a13      	ldr	r2, [pc, #76]	@ (8004458 <TIM_OC6_SetConfig+0xb8>)
 800440c:	4013      	ands	r3, r2
 800440e:	617b      	str	r3, [r7, #20]
    /* Set the Output Idle state */
    tmpcr2 |= (OC_Config->OCIdleState << 10U);
 8004410:	683b      	ldr	r3, [r7, #0]
 8004412:	695b      	ldr	r3, [r3, #20]
 8004414:	029b      	lsls	r3, r3, #10
 8004416:	697a      	ldr	r2, [r7, #20]
 8004418:	4313      	orrs	r3, r2
 800441a:	617b      	str	r3, [r7, #20]
  }

  /* Write to TIMx CR2 */
  TIMx->CR2 = tmpcr2;
 800441c:	687b      	ldr	r3, [r7, #4]
 800441e:	697a      	ldr	r2, [r7, #20]
 8004420:	605a      	str	r2, [r3, #4]

  /* Write to TIMx CCMR3 */
  TIMx->CCMR3 = tmpccmrx;
 8004422:	687b      	ldr	r3, [r7, #4]
 8004424:	68fa      	ldr	r2, [r7, #12]
 8004426:	655a      	str	r2, [r3, #84]	@ 0x54

  /* Set the Capture Compare Register value */
  TIMx->CCR6 = OC_Config->Pulse;
 8004428:	683b      	ldr	r3, [r7, #0]
 800442a:	685a      	ldr	r2, [r3, #4]
 800442c:	687b      	ldr	r3, [r7, #4]
 800442e:	65da      	str	r2, [r3, #92]	@ 0x5c

  /* Write to TIMx CCER */
  TIMx->CCER = tmpccer;
 8004430:	687b      	ldr	r3, [r7, #4]
 8004432:	693a      	ldr	r2, [r7, #16]
 8004434:	621a      	str	r2, [r3, #32]
}
 8004436:	46c0      	nop			@ (mov r8, r8)
 8004438:	46bd      	mov	sp, r7
 800443a:	b006      	add	sp, #24
 800443c:	bd80      	pop	{r7, pc}
 800443e:	46c0      	nop			@ (mov r8, r8)
 8004440:	ffefffff 	.word	0xffefffff
 8004444:	feff8fff 	.word	0xfeff8fff
 8004448:	ffdfffff 	.word	0xffdfffff
 800444c:	40012c00 	.word	0x40012c00
 8004450:	40014400 	.word	0x40014400
 8004454:	40014800 	.word	0x40014800
 8004458:	fffbffff 	.word	0xfffbffff

0800445c <TIM_TI1_ConfigInputStage>:
  * @param  TIM_ICFilter Specifies the Input Capture Filter.
  *          This parameter must be a value between 0x00 and 0x0F.
  * @retval None
  */
static void TIM_TI1_ConfigInputStage(TIM_TypeDef *TIMx, uint32_t TIM_ICPolarity, uint32_t TIM_ICFilter)
{
 800445c:	b580      	push	{r7, lr}
 800445e:	b086      	sub	sp, #24
 8004460:	af00      	add	r7, sp, #0
 8004462:	60f8      	str	r0, [r7, #12]
 8004464:	60b9      	str	r1, [r7, #8]
 8004466:	607a      	str	r2, [r7, #4]
  uint32_t tmpccmr1;
  uint32_t tmpccer;

  /* Disable the Channel 1: Reset the CC1E Bit */
  tmpccer = TIMx->CCER;
 8004468:	68fb      	ldr	r3, [r7, #12]
 800446a:	6a1b      	ldr	r3, [r3, #32]
 800446c:	617b      	str	r3, [r7, #20]
  TIMx->CCER &= ~TIM_CCER_CC1E;
 800446e:	68fb      	ldr	r3, [r7, #12]
 8004470:	6a1b      	ldr	r3, [r3, #32]
 8004472:	2201      	movs	r2, #1
 8004474:	4393      	bics	r3, r2
 8004476:	001a      	movs	r2, r3
 8004478:	68fb      	ldr	r3, [r7, #12]
 800447a:	621a      	str	r2, [r3, #32]
  tmpccmr1 = TIMx->CCMR1;
 800447c:	68fb      	ldr	r3, [r7, #12]
 800447e:	699b      	ldr	r3, [r3, #24]
 8004480:	613b      	str	r3, [r7, #16]

  /* Set the filter */
  tmpccmr1 &= ~TIM_CCMR1_IC1F;
 8004482:	693b      	ldr	r3, [r7, #16]
 8004484:	22f0      	movs	r2, #240	@ 0xf0
 8004486:	4393      	bics	r3, r2
 8004488:	613b      	str	r3, [r7, #16]
  tmpccmr1 |= (TIM_ICFilter << 4U);
 800448a:	687b      	ldr	r3, [r7, #4]
 800448c:	011b      	lsls	r3, r3, #4
 800448e:	693a      	ldr	r2, [r7, #16]
 8004490:	4313      	orrs	r3, r2
 8004492:	613b      	str	r3, [r7, #16]

  /* Select the Polarity and set the CC1E Bit */
  tmpccer &= ~(TIM_CCER_CC1P | TIM_CCER_CC1NP);
 8004494:	697b      	ldr	r3, [r7, #20]
 8004496:	220a      	movs	r2, #10
 8004498:	4393      	bics	r3, r2
 800449a:	617b      	str	r3, [r7, #20]
  tmpccer |= TIM_ICPolarity;
 800449c:	697a      	ldr	r2, [r7, #20]
 800449e:	68bb      	ldr	r3, [r7, #8]
 80044a0:	4313      	orrs	r3, r2
 80044a2:	617b      	str	r3, [r7, #20]

  /* Write to TIMx CCMR1 and CCER registers */
  TIMx->CCMR1 = tmpccmr1;
 80044a4:	68fb      	ldr	r3, [r7, #12]
 80044a6:	693a      	ldr	r2, [r7, #16]
 80044a8:	619a      	str	r2, [r3, #24]
  TIMx->CCER = tmpccer;
 80044aa:	68fb      	ldr	r3, [r7, #12]
 80044ac:	697a      	ldr	r2, [r7, #20]
 80044ae:	621a      	str	r2, [r3, #32]
}
 80044b0:	46c0      	nop			@ (mov r8, r8)
 80044b2:	46bd      	mov	sp, r7
 80044b4:	b006      	add	sp, #24
 80044b6:	bd80      	pop	{r7, pc}

080044b8 <TIM_TI2_ConfigInputStage>:
  * @param  TIM_ICFilter Specifies the Input Capture Filter.
  *          This parameter must be a value between 0x00 and 0x0F.
  * @retval None
  */
static void TIM_TI2_ConfigInputStage(TIM_TypeDef *TIMx, uint32_t TIM_ICPolarity, uint32_t TIM_ICFilter)
{
 80044b8:	b580      	push	{r7, lr}
 80044ba:	b086      	sub	sp, #24
 80044bc:	af00      	add	r7, sp, #0
 80044be:	60f8      	str	r0, [r7, #12]
 80044c0:	60b9      	str	r1, [r7, #8]
 80044c2:	607a      	str	r2, [r7, #4]
  uint32_t tmpccmr1;
  uint32_t tmpccer;

  /* Disable the Channel 2: Reset the CC2E Bit */
  tmpccer = TIMx->CCER;
 80044c4:	68fb      	ldr	r3, [r7, #12]
 80044c6:	6a1b      	ldr	r3, [r3, #32]
 80044c8:	617b      	str	r3, [r7, #20]
  TIMx->CCER &= ~TIM_CCER_CC2E;
 80044ca:	68fb      	ldr	r3, [r7, #12]
 80044cc:	6a1b      	ldr	r3, [r3, #32]
 80044ce:	2210      	movs	r2, #16
 80044d0:	4393      	bics	r3, r2
 80044d2:	001a      	movs	r2, r3
 80044d4:	68fb      	ldr	r3, [r7, #12]
 80044d6:	621a      	str	r2, [r3, #32]
  tmpccmr1 = TIMx->CCMR1;
 80044d8:	68fb      	ldr	r3, [r7, #12]
 80044da:	699b      	ldr	r3, [r3, #24]
 80044dc:	613b      	str	r3, [r7, #16]

  /* Set the filter */
  tmpccmr1 &= ~TIM_CCMR1_IC2F;
 80044de:	693b      	ldr	r3, [r7, #16]
 80044e0:	4a0d      	ldr	r2, [pc, #52]	@ (8004518 <TIM_TI2_ConfigInputStage+0x60>)
 80044e2:	4013      	ands	r3, r2
 80044e4:	613b      	str	r3, [r7, #16]
  tmpccmr1 |= (TIM_ICFilter << 12U);
 80044e6:	687b      	ldr	r3, [r7, #4]
 80044e8:	031b      	lsls	r3, r3, #12
 80044ea:	693a      	ldr	r2, [r7, #16]
 80044ec:	4313      	orrs	r3, r2
 80044ee:	613b      	str	r3, [r7, #16]

  /* Select the Polarity and set the CC2E Bit */
  tmpccer &= ~(TIM_CCER_CC2P | TIM_CCER_CC2NP);
 80044f0:	697b      	ldr	r3, [r7, #20]
 80044f2:	22a0      	movs	r2, #160	@ 0xa0
 80044f4:	4393      	bics	r3, r2
 80044f6:	617b      	str	r3, [r7, #20]
  tmpccer |= (TIM_ICPolarity << 4U);
 80044f8:	68bb      	ldr	r3, [r7, #8]
 80044fa:	011b      	lsls	r3, r3, #4
 80044fc:	697a      	ldr	r2, [r7, #20]
 80044fe:	4313      	orrs	r3, r2
 8004500:	617b      	str	r3, [r7, #20]

  /* Write to TIMx CCMR1 and CCER registers */
  TIMx->CCMR1 = tmpccmr1 ;
 8004502:	68fb      	ldr	r3, [r7, #12]
 8004504:	693a      	ldr	r2, [r7, #16]
 8004506:	619a      	str	r2, [r3, #24]
  TIMx->CCER = tmpccer;
 8004508:	68fb      	ldr	r3, [r7, #12]
 800450a:	697a      	ldr	r2, [r7, #20]
 800450c:	621a      	str	r2, [r3, #32]
}
 800450e:	46c0      	nop			@ (mov r8, r8)
 8004510:	46bd      	mov	sp, r7
 8004512:	b006      	add	sp, #24
 8004514:	bd80      	pop	{r7, pc}
 8004516:	46c0      	nop			@ (mov r8, r8)
 8004518:	ffff0fff 	.word	0xffff0fff

0800451c <TIM_ITRx_SetConfig>:
  *            @arg TIM_TS_TI2FP2: Filtered Timer Input 2
  *            @arg TIM_TS_ETRF: External Trigger input
  * @retval None
  */
static void TIM_ITRx_SetConfig(TIM_TypeDef *TIMx, uint32_t InputTriggerSource)
{
 800451c:	b580      	push	{r7, lr}
 800451e:	b084      	sub	sp, #16
 8004520:	af00      	add	r7, sp, #0
 8004522:	6078      	str	r0, [r7, #4]
 8004524:	6039      	str	r1, [r7, #0]
  uint32_t tmpsmcr;

  /* Get the TIMx SMCR register value */
  tmpsmcr = TIMx->SMCR;
 8004526:	687b      	ldr	r3, [r7, #4]
 8004528:	689b      	ldr	r3, [r3, #8]
 800452a:	60fb      	str	r3, [r7, #12]
  /* Reset the TS Bits */
  tmpsmcr &= ~TIM_SMCR_TS;
 800452c:	68fb      	ldr	r3, [r7, #12]
 800452e:	4a08      	ldr	r2, [pc, #32]	@ (8004550 <TIM_ITRx_SetConfig+0x34>)
 8004530:	4013      	ands	r3, r2
 8004532:	60fb      	str	r3, [r7, #12]
  /* Set the Input Trigger source and the slave mode*/
  tmpsmcr |= (InputTriggerSource | TIM_SLAVEMODE_EXTERNAL1);
 8004534:	683a      	ldr	r2, [r7, #0]
 8004536:	68fb      	ldr	r3, [r7, #12]
 8004538:	4313      	orrs	r3, r2
 800453a:	2207      	movs	r2, #7
 800453c:	4313      	orrs	r3, r2
 800453e:	60fb      	str	r3, [r7, #12]
  /* Write to TIMx SMCR */
  TIMx->SMCR = tmpsmcr;
 8004540:	687b      	ldr	r3, [r7, #4]
 8004542:	68fa      	ldr	r2, [r7, #12]
 8004544:	609a      	str	r2, [r3, #8]
}
 8004546:	46c0      	nop			@ (mov r8, r8)
 8004548:	46bd      	mov	sp, r7
 800454a:	b004      	add	sp, #16
 800454c:	bd80      	pop	{r7, pc}
 800454e:	46c0      	nop			@ (mov r8, r8)
 8004550:	ffcfff8f 	.word	0xffcfff8f

08004554 <TIM_ETR_SetConfig>:
  *          This parameter must be a value between 0x00 and 0x0F
  * @retval None
  */
void TIM_ETR_SetConfig(TIM_TypeDef *TIMx, uint32_t TIM_ExtTRGPrescaler,
                       uint32_t TIM_ExtTRGPolarity, uint32_t ExtTRGFilter)
{
 8004554:	b580      	push	{r7, lr}
 8004556:	b086      	sub	sp, #24
 8004558:	af00      	add	r7, sp, #0
 800455a:	60f8      	str	r0, [r7, #12]
 800455c:	60b9      	str	r1, [r7, #8]
 800455e:	607a      	str	r2, [r7, #4]
 8004560:	603b      	str	r3, [r7, #0]
  uint32_t tmpsmcr;

  tmpsmcr = TIMx->SMCR;
 8004562:	68fb      	ldr	r3, [r7, #12]
 8004564:	689b      	ldr	r3, [r3, #8]
 8004566:	617b      	str	r3, [r7, #20]

  /* Reset the ETR Bits */
  tmpsmcr &= ~(TIM_SMCR_ETF | TIM_SMCR_ETPS | TIM_SMCR_ECE | TIM_SMCR_ETP);
 8004568:	697b      	ldr	r3, [r7, #20]
 800456a:	4a09      	ldr	r2, [pc, #36]	@ (8004590 <TIM_ETR_SetConfig+0x3c>)
 800456c:	4013      	ands	r3, r2
 800456e:	617b      	str	r3, [r7, #20]

  /* Set the Prescaler, the Filter value and the Polarity */
  tmpsmcr |= (uint32_t)(TIM_ExtTRGPrescaler | (TIM_ExtTRGPolarity | (ExtTRGFilter << 8U)));
 8004570:	683b      	ldr	r3, [r7, #0]
 8004572:	021a      	lsls	r2, r3, #8
 8004574:	687b      	ldr	r3, [r7, #4]
 8004576:	431a      	orrs	r2, r3
 8004578:	68bb      	ldr	r3, [r7, #8]
 800457a:	4313      	orrs	r3, r2
 800457c:	697a      	ldr	r2, [r7, #20]
 800457e:	4313      	orrs	r3, r2
 8004580:	617b      	str	r3, [r7, #20]

  /* Write to TIMx SMCR */
  TIMx->SMCR = tmpsmcr;
 8004582:	68fb      	ldr	r3, [r7, #12]
 8004584:	697a      	ldr	r2, [r7, #20]
 8004586:	609a      	str	r2, [r3, #8]
}
 8004588:	46c0      	nop			@ (mov r8, r8)
 800458a:	46bd      	mov	sp, r7
 800458c:	b006      	add	sp, #24
 800458e:	bd80      	pop	{r7, pc}
 8004590:	ffff00ff 	.word	0xffff00ff

08004594 <TIM_CCxChannelCmd>:
  * @param  ChannelState specifies the TIM Channel CCxE bit new state.
  *          This parameter can be: TIM_CCx_ENABLE or TIM_CCx_DISABLE.
  * @retval None
  */
void TIM_CCxChannelCmd(TIM_TypeDef *TIMx, uint32_t Channel, uint32_t ChannelState)
{
 8004594:	b580      	push	{r7, lr}
 8004596:	b086      	sub	sp, #24
 8004598:	af00      	add	r7, sp, #0
 800459a:	60f8      	str	r0, [r7, #12]
 800459c:	60b9      	str	r1, [r7, #8]
 800459e:	607a      	str	r2, [r7, #4]

  /* Check the parameters */
  assert_param(IS_TIM_CC1_INSTANCE(TIMx));
  assert_param(IS_TIM_CHANNELS(Channel));

  tmp = TIM_CCER_CC1E << (Channel & 0x1FU); /* 0x1FU = 31 bits max shift */
 80045a0:	68bb      	ldr	r3, [r7, #8]
 80045a2:	221f      	movs	r2, #31
 80045a4:	4013      	ands	r3, r2
 80045a6:	2201      	movs	r2, #1
 80045a8:	409a      	lsls	r2, r3
 80045aa:	0013      	movs	r3, r2
 80045ac:	617b      	str	r3, [r7, #20]

  /* Reset the CCxE Bit */
  TIMx->CCER &= ~tmp;
 80045ae:	68fb      	ldr	r3, [r7, #12]
 80045b0:	6a1b      	ldr	r3, [r3, #32]
 80045b2:	697a      	ldr	r2, [r7, #20]
 80045b4:	43d2      	mvns	r2, r2
 80045b6:	401a      	ands	r2, r3
 80045b8:	68fb      	ldr	r3, [r7, #12]
 80045ba:	621a      	str	r2, [r3, #32]

  /* Set or reset the CCxE Bit */
  TIMx->CCER |= (uint32_t)(ChannelState << (Channel & 0x1FU)); /* 0x1FU = 31 bits max shift */
 80045bc:	68fb      	ldr	r3, [r7, #12]
 80045be:	6a1a      	ldr	r2, [r3, #32]
 80045c0:	68bb      	ldr	r3, [r7, #8]
 80045c2:	211f      	movs	r1, #31
 80045c4:	400b      	ands	r3, r1
 80045c6:	6879      	ldr	r1, [r7, #4]
 80045c8:	4099      	lsls	r1, r3
 80045ca:	000b      	movs	r3, r1
 80045cc:	431a      	orrs	r2, r3
 80045ce:	68fb      	ldr	r3, [r7, #12]
 80045d0:	621a      	str	r2, [r3, #32]
}
 80045d2:	46c0      	nop			@ (mov r8, r8)
 80045d4:	46bd      	mov	sp, r7
 80045d6:	b006      	add	sp, #24
 80045d8:	bd80      	pop	{r7, pc}
	...

080045dc <HAL_TIMEx_MasterConfigSynchronization>:
  *         mode.
  * @retval HAL status
  */
HAL_StatusTypeDef HAL_TIMEx_MasterConfigSynchronization(TIM_HandleTypeDef *htim,
                                                        const TIM_MasterConfigTypeDef *sMasterConfig)
{
 80045dc:	b580      	push	{r7, lr}
 80045de:	b084      	sub	sp, #16
 80045e0:	af00      	add	r7, sp, #0
 80045e2:	6078      	str	r0, [r7, #4]
 80045e4:	6039      	str	r1, [r7, #0]
  assert_param(IS_TIM_MASTER_INSTANCE(htim->Instance));
  assert_param(IS_TIM_TRGO_SOURCE(sMasterConfig->MasterOutputTrigger));
  assert_param(IS_TIM_MSM_STATE(sMasterConfig->MasterSlaveMode));

  /* Check input state */
  __HAL_LOCK(htim);
 80045e6:	687b      	ldr	r3, [r7, #4]
 80045e8:	223c      	movs	r2, #60	@ 0x3c
 80045ea:	5c9b      	ldrb	r3, [r3, r2]
 80045ec:	2b01      	cmp	r3, #1
 80045ee:	d101      	bne.n	80045f4 <HAL_TIMEx_MasterConfigSynchronization+0x18>
 80045f0:	2302      	movs	r3, #2
 80045f2:	e04a      	b.n	800468a <HAL_TIMEx_MasterConfigSynchronization+0xae>
 80045f4:	687b      	ldr	r3, [r7, #4]
 80045f6:	223c      	movs	r2, #60	@ 0x3c
 80045f8:	2101      	movs	r1, #1
 80045fa:	5499      	strb	r1, [r3, r2]

  /* Change the handler state */
  htim->State = HAL_TIM_STATE_BUSY;
 80045fc:	687b      	ldr	r3, [r7, #4]
 80045fe:	223d      	movs	r2, #61	@ 0x3d
 8004600:	2102      	movs	r1, #2
 8004602:	5499      	strb	r1, [r3, r2]

  /* Get the TIMx CR2 register value */
  tmpcr2 = htim->Instance->CR2;
 8004604:	687b      	ldr	r3, [r7, #4]
 8004606:	681b      	ldr	r3, [r3, #0]
 8004608:	685b      	ldr	r3, [r3, #4]
 800460a:	60fb      	str	r3, [r7, #12]

  /* Get the TIMx SMCR register value */
  tmpsmcr = htim->Instance->SMCR;
 800460c:	687b      	ldr	r3, [r7, #4]
 800460e:	681b      	ldr	r3, [r3, #0]
 8004610:	689b      	ldr	r3, [r3, #8]
 8004612:	60bb      	str	r3, [r7, #8]

  /* If the timer supports ADC synchronization through TRGO2, set the master mode selection 2 */
  if (IS_TIM_TRGO2_INSTANCE(htim->Instance))
 8004614:	687b      	ldr	r3, [r7, #4]
 8004616:	681b      	ldr	r3, [r3, #0]
 8004618:	4a1e      	ldr	r2, [pc, #120]	@ (8004694 <HAL_TIMEx_MasterConfigSynchronization+0xb8>)
 800461a:	4293      	cmp	r3, r2
 800461c:	d108      	bne.n	8004630 <HAL_TIMEx_MasterConfigSynchronization+0x54>
  {
    /* Check the parameters */
    assert_param(IS_TIM_TRGO2_SOURCE(sMasterConfig->MasterOutputTrigger2));

    /* Clear the MMS2 bits */
    tmpcr2 &= ~TIM_CR2_MMS2;
 800461e:	68fb      	ldr	r3, [r7, #12]
 8004620:	4a1d      	ldr	r2, [pc, #116]	@ (8004698 <HAL_TIMEx_MasterConfigSynchronization+0xbc>)
 8004622:	4013      	ands	r3, r2
 8004624:	60fb      	str	r3, [r7, #12]
    /* Select the TRGO2 source*/
    tmpcr2 |= sMasterConfig->MasterOutputTrigger2;
 8004626:	683b      	ldr	r3, [r7, #0]
 8004628:	685b      	ldr	r3, [r3, #4]
 800462a:	68fa      	ldr	r2, [r7, #12]
 800462c:	4313      	orrs	r3, r2
 800462e:	60fb      	str	r3, [r7, #12]
  }

  /* Reset the MMS Bits */
  tmpcr2 &= ~TIM_CR2_MMS;
 8004630:	68fb      	ldr	r3, [r7, #12]
 8004632:	2270      	movs	r2, #112	@ 0x70
 8004634:	4393      	bics	r3, r2
 8004636:	60fb      	str	r3, [r7, #12]
  /* Select the TRGO source */
  tmpcr2 |=  sMasterConfig->MasterOutputTrigger;
 8004638:	683b      	ldr	r3, [r7, #0]
 800463a:	681b      	ldr	r3, [r3, #0]
 800463c:	68fa      	ldr	r2, [r7, #12]
 800463e:	4313      	orrs	r3, r2
 8004640:	60fb      	str	r3, [r7, #12]

  /* Update TIMx CR2 */
  htim->Instance->CR2 = tmpcr2;
 8004642:	687b      	ldr	r3, [r7, #4]
 8004644:	681b      	ldr	r3, [r3, #0]
 8004646:	68fa      	ldr	r2, [r7, #12]
 8004648:	605a      	str	r2, [r3, #4]

  if (IS_TIM_SLAVE_INSTANCE(htim->Instance))
 800464a:	687b      	ldr	r3, [r7, #4]
 800464c:	681b      	ldr	r3, [r3, #0]
 800464e:	4a11      	ldr	r2, [pc, #68]	@ (8004694 <HAL_TIMEx_MasterConfigSynchronization+0xb8>)
 8004650:	4293      	cmp	r3, r2
 8004652:	d004      	beq.n	800465e <HAL_TIMEx_MasterConfigSynchronization+0x82>
 8004654:	687b      	ldr	r3, [r7, #4]
 8004656:	681b      	ldr	r3, [r3, #0]
 8004658:	4a10      	ldr	r2, [pc, #64]	@ (800469c <HAL_TIMEx_MasterConfigSynchronization+0xc0>)
 800465a:	4293      	cmp	r3, r2
 800465c:	d10c      	bne.n	8004678 <HAL_TIMEx_MasterConfigSynchronization+0x9c>
  {
    /* Reset the MSM Bit */
    tmpsmcr &= ~TIM_SMCR_MSM;
 800465e:	68bb      	ldr	r3, [r7, #8]
 8004660:	2280      	movs	r2, #128	@ 0x80
 8004662:	4393      	bics	r3, r2
 8004664:	60bb      	str	r3, [r7, #8]
    /* Set master mode */
    tmpsmcr |= sMasterConfig->MasterSlaveMode;
 8004666:	683b      	ldr	r3, [r7, #0]
 8004668:	689b      	ldr	r3, [r3, #8]
 800466a:	68ba      	ldr	r2, [r7, #8]
 800466c:	4313      	orrs	r3, r2
 800466e:	60bb      	str	r3, [r7, #8]

    /* Update TIMx SMCR */
    htim->Instance->SMCR = tmpsmcr;
 8004670:	687b      	ldr	r3, [r7, #4]
 8004672:	681b      	ldr	r3, [r3, #0]
 8004674:	68ba      	ldr	r2, [r7, #8]
 8004676:	609a      	str	r2, [r3, #8]
  }

  /* Change the htim state */
  htim->State = HAL_TIM_STATE_READY;
 8004678:	687b      	ldr	r3, [r7, #4]
 800467a:	223d      	movs	r2, #61	@ 0x3d
 800467c:	2101      	movs	r1, #1
 800467e:	5499      	strb	r1, [r3, r2]

  __HAL_UNLOCK(htim);
 8004680:	687b      	ldr	r3, [r7, #4]
 8004682:	223c      	movs	r2, #60	@ 0x3c
 8004684:	2100      	movs	r1, #0
 8004686:	5499      	strb	r1, [r3, r2]

  return HAL_OK;
 8004688:	2300      	movs	r3, #0
}
 800468a:	0018      	movs	r0, r3
 800468c:	46bd      	mov	sp, r7
 800468e:	b004      	add	sp, #16
 8004690:	bd80      	pop	{r7, pc}
 8004692:	46c0      	nop			@ (mov r8, r8)
 8004694:	40012c00 	.word	0x40012c00
 8004698:	ff0fffff 	.word	0xff0fffff
 800469c:	40000400 	.word	0x40000400

080046a0 <HAL_UART_Init>:
  *        parameters in the UART_InitTypeDef and initialize the associated handle.
  * @param huart UART handle.
  * @retval HAL status
  */
HAL_StatusTypeDef HAL_UART_Init(UART_HandleTypeDef *huart)
{
 80046a0:	b580      	push	{r7, lr}
 80046a2:	b082      	sub	sp, #8
 80046a4:	af00      	add	r7, sp, #0
 80046a6:	6078      	str	r0, [r7, #4]
  /* Check the UART handle allocation */
  if (huart == NULL)
 80046a8:	687b      	ldr	r3, [r7, #4]
 80046aa:	2b00      	cmp	r3, #0
 80046ac:	d101      	bne.n	80046b2 <HAL_UART_Init+0x12>
  {
    return HAL_ERROR;
 80046ae:	2301      	movs	r3, #1
 80046b0:	e046      	b.n	8004740 <HAL_UART_Init+0xa0>
  {
    /* Check the parameters */
    assert_param(IS_UART_INSTANCE(huart->Instance));
  }

  if (huart->gState == HAL_UART_STATE_RESET)
 80046b2:	687b      	ldr	r3, [r7, #4]
 80046b4:	2288      	movs	r2, #136	@ 0x88
 80046b6:	589b      	ldr	r3, [r3, r2]
 80046b8:	2b00      	cmp	r3, #0
 80046ba:	d107      	bne.n	80046cc <HAL_UART_Init+0x2c>
  {
    /* Allocate lock resource and initialize it */
    huart->Lock = HAL_UNLOCKED;
 80046bc:	687b      	ldr	r3, [r7, #4]
 80046be:	2284      	movs	r2, #132	@ 0x84
 80046c0:	2100      	movs	r1, #0
 80046c2:	5499      	strb	r1, [r3, r2]

    /* Init the low level hardware */
    huart->MspInitCallback(huart);
#else
    /* Init the low level hardware : GPIO, CLOCK */
    HAL_UART_MspInit(huart);
 80046c4:	687b      	ldr	r3, [r7, #4]
 80046c6:	0018      	movs	r0, r3
 80046c8:	f7fd faea 	bl	8001ca0 <HAL_UART_MspInit>
#endif /* (USE_HAL_UART_REGISTER_CALLBACKS) */
  }

  huart->gState = HAL_UART_STATE_BUSY;
 80046cc:	687b      	ldr	r3, [r7, #4]
 80046ce:	2288      	movs	r2, #136	@ 0x88
 80046d0:	2124      	movs	r1, #36	@ 0x24
 80046d2:	5099      	str	r1, [r3, r2]

  __HAL_UART_DISABLE(huart);
 80046d4:	687b      	ldr	r3, [r7, #4]
 80046d6:	681b      	ldr	r3, [r3, #0]
 80046d8:	681a      	ldr	r2, [r3, #0]
 80046da:	687b      	ldr	r3, [r7, #4]
 80046dc:	681b      	ldr	r3, [r3, #0]
 80046de:	2101      	movs	r1, #1
 80046e0:	438a      	bics	r2, r1
 80046e2:	601a      	str	r2, [r3, #0]

  /* Perform advanced settings configuration */
  /* For some items, configuration requires to be done prior TE and RE bits are set */
  if (huart->AdvancedInit.AdvFeatureInit != UART_ADVFEATURE_NO_INIT)
 80046e4:	687b      	ldr	r3, [r7, #4]
 80046e6:	6a9b      	ldr	r3, [r3, #40]	@ 0x28
 80046e8:	2b00      	cmp	r3, #0
 80046ea:	d003      	beq.n	80046f4 <HAL_UART_Init+0x54>
  {
    UART_AdvFeatureConfig(huart);
 80046ec:	687b      	ldr	r3, [r7, #4]
 80046ee:	0018      	movs	r0, r3
 80046f0:	f000 fa4e 	bl	8004b90 <UART_AdvFeatureConfig>
  }

  /* Set the UART Communication parameters */
  if (UART_SetConfig(huart) == HAL_ERROR)
 80046f4:	687b      	ldr	r3, [r7, #4]
 80046f6:	0018      	movs	r0, r3
 80046f8:	f000 f8cc 	bl	8004894 <UART_SetConfig>
 80046fc:	0003      	movs	r3, r0
 80046fe:	2b01      	cmp	r3, #1
 8004700:	d101      	bne.n	8004706 <HAL_UART_Init+0x66>
  {
    return HAL_ERROR;
 8004702:	2301      	movs	r3, #1
 8004704:	e01c      	b.n	8004740 <HAL_UART_Init+0xa0>
  }

  /* In asynchronous mode, the following bits must be kept cleared:
  - LINEN and CLKEN bits in the USART_CR2 register,
  - SCEN, HDSEL and IREN  bits in the USART_CR3 register.*/
  CLEAR_BIT(huart->Instance->CR2, (USART_CR2_LINEN | USART_CR2_CLKEN));
 8004706:	687b      	ldr	r3, [r7, #4]
 8004708:	681b      	ldr	r3, [r3, #0]
 800470a:	685a      	ldr	r2, [r3, #4]
 800470c:	687b      	ldr	r3, [r7, #4]
 800470e:	681b      	ldr	r3, [r3, #0]
 8004710:	490d      	ldr	r1, [pc, #52]	@ (8004748 <HAL_UART_Init+0xa8>)
 8004712:	400a      	ands	r2, r1
 8004714:	605a      	str	r2, [r3, #4]
  CLEAR_BIT(huart->Instance->CR3, (USART_CR3_SCEN | USART_CR3_HDSEL | USART_CR3_IREN));
 8004716:	687b      	ldr	r3, [r7, #4]
 8004718:	681b      	ldr	r3, [r3, #0]
 800471a:	689a      	ldr	r2, [r3, #8]
 800471c:	687b      	ldr	r3, [r7, #4]
 800471e:	681b      	ldr	r3, [r3, #0]
 8004720:	212a      	movs	r1, #42	@ 0x2a
 8004722:	438a      	bics	r2, r1
 8004724:	609a      	str	r2, [r3, #8]

  __HAL_UART_ENABLE(huart);
 8004726:	687b      	ldr	r3, [r7, #4]
 8004728:	681b      	ldr	r3, [r3, #0]
 800472a:	681a      	ldr	r2, [r3, #0]
 800472c:	687b      	ldr	r3, [r7, #4]
 800472e:	681b      	ldr	r3, [r3, #0]
 8004730:	2101      	movs	r1, #1
 8004732:	430a      	orrs	r2, r1
 8004734:	601a      	str	r2, [r3, #0]

  /* TEACK and/or REACK to check before moving huart->gState and huart->RxState to Ready */
  return (UART_CheckIdleState(huart));
 8004736:	687b      	ldr	r3, [r7, #4]
 8004738:	0018      	movs	r0, r3
 800473a:	f000 fadd 	bl	8004cf8 <UART_CheckIdleState>
 800473e:	0003      	movs	r3, r0
}
 8004740:	0018      	movs	r0, r3
 8004742:	46bd      	mov	sp, r7
 8004744:	b002      	add	sp, #8
 8004746:	bd80      	pop	{r7, pc}
 8004748:	ffffb7ff 	.word	0xffffb7ff

0800474c <HAL_UART_Transmit>:
  * @param Size    Amount of data elements (u8 or u16) to be sent.
  * @param Timeout Timeout duration.
  * @retval HAL status
  */
HAL_StatusTypeDef HAL_UART_Transmit(UART_HandleTypeDef *huart, const uint8_t *pData, uint16_t Size, uint32_t Timeout)
{
 800474c:	b580      	push	{r7, lr}
 800474e:	b08a      	sub	sp, #40	@ 0x28
 8004750:	af02      	add	r7, sp, #8
 8004752:	60f8      	str	r0, [r7, #12]
 8004754:	60b9      	str	r1, [r7, #8]
 8004756:	603b      	str	r3, [r7, #0]
 8004758:	1dbb      	adds	r3, r7, #6
 800475a:	801a      	strh	r2, [r3, #0]
  const uint8_t  *pdata8bits;
  const uint16_t *pdata16bits;
  uint32_t tickstart;

  /* Check that a Tx process is not already ongoing */
  if (huart->gState == HAL_UART_STATE_READY)
 800475c:	68fb      	ldr	r3, [r7, #12]
 800475e:	2288      	movs	r2, #136	@ 0x88
 8004760:	589b      	ldr	r3, [r3, r2]
 8004762:	2b20      	cmp	r3, #32
 8004764:	d000      	beq.n	8004768 <HAL_UART_Transmit+0x1c>
 8004766:	e090      	b.n	800488a <HAL_UART_Transmit+0x13e>
  {
    if ((pData == NULL) || (Size == 0U))
 8004768:	68bb      	ldr	r3, [r7, #8]
 800476a:	2b00      	cmp	r3, #0
 800476c:	d003      	beq.n	8004776 <HAL_UART_Transmit+0x2a>
 800476e:	1dbb      	adds	r3, r7, #6
 8004770:	881b      	ldrh	r3, [r3, #0]
 8004772:	2b00      	cmp	r3, #0
 8004774:	d101      	bne.n	800477a <HAL_UART_Transmit+0x2e>
    {
      return  HAL_ERROR;
 8004776:	2301      	movs	r3, #1
 8004778:	e088      	b.n	800488c <HAL_UART_Transmit+0x140>
    }

    /* In case of 9bits/No Parity transfer, pData buffer provided as input parameter
       should be aligned on a u16 frontier, as data to be filled into TDR will be
       handled through a u16 cast. */
    if ((huart->Init.WordLength == UART_WORDLENGTH_9B) && (huart->Init.Parity == UART_PARITY_NONE))
 800477a:	68fb      	ldr	r3, [r7, #12]
 800477c:	689a      	ldr	r2, [r3, #8]
 800477e:	2380      	movs	r3, #128	@ 0x80
 8004780:	015b      	lsls	r3, r3, #5
 8004782:	429a      	cmp	r2, r3
 8004784:	d109      	bne.n	800479a <HAL_UART_Transmit+0x4e>
 8004786:	68fb      	ldr	r3, [r7, #12]
 8004788:	691b      	ldr	r3, [r3, #16]
 800478a:	2b00      	cmp	r3, #0
 800478c:	d105      	bne.n	800479a <HAL_UART_Transmit+0x4e>
    {
      if ((((uint32_t)pData) & 1U) != 0U)
 800478e:	68bb      	ldr	r3, [r7, #8]
 8004790:	2201      	movs	r2, #1
 8004792:	4013      	ands	r3, r2
 8004794:	d001      	beq.n	800479a <HAL_UART_Transmit+0x4e>
      {
        return  HAL_ERROR;
 8004796:	2301      	movs	r3, #1
 8004798:	e078      	b.n	800488c <HAL_UART_Transmit+0x140>
      }
    }

    huart->ErrorCode = HAL_UART_ERROR_NONE;
 800479a:	68fb      	ldr	r3, [r7, #12]
 800479c:	2290      	movs	r2, #144	@ 0x90
 800479e:	2100      	movs	r1, #0
 80047a0:	5099      	str	r1, [r3, r2]
    huart->gState = HAL_UART_STATE_BUSY_TX;
 80047a2:	68fb      	ldr	r3, [r7, #12]
 80047a4:	2288      	movs	r2, #136	@ 0x88
 80047a6:	2121      	movs	r1, #33	@ 0x21
 80047a8:	5099      	str	r1, [r3, r2]

    /* Init tickstart for timeout management */
    tickstart = HAL_GetTick();
 80047aa:	f7fd fbd3 	bl	8001f54 <HAL_GetTick>
 80047ae:	0003      	movs	r3, r0
 80047b0:	617b      	str	r3, [r7, #20]

    huart->TxXferSize  = Size;
 80047b2:	68fb      	ldr	r3, [r7, #12]
 80047b4:	1dba      	adds	r2, r7, #6
 80047b6:	2154      	movs	r1, #84	@ 0x54
 80047b8:	8812      	ldrh	r2, [r2, #0]
 80047ba:	525a      	strh	r2, [r3, r1]
    huart->TxXferCount = Size;
 80047bc:	68fb      	ldr	r3, [r7, #12]
 80047be:	1dba      	adds	r2, r7, #6
 80047c0:	2156      	movs	r1, #86	@ 0x56
 80047c2:	8812      	ldrh	r2, [r2, #0]
 80047c4:	525a      	strh	r2, [r3, r1]

    /* In case of 9bits/No Parity transfer, pData needs to be handled as a uint16_t pointer */
    if ((huart->Init.WordLength == UART_WORDLENGTH_9B) && (huart->Init.Parity == UART_PARITY_NONE))
 80047c6:	68fb      	ldr	r3, [r7, #12]
 80047c8:	689a      	ldr	r2, [r3, #8]
 80047ca:	2380      	movs	r3, #128	@ 0x80
 80047cc:	015b      	lsls	r3, r3, #5
 80047ce:	429a      	cmp	r2, r3
 80047d0:	d108      	bne.n	80047e4 <HAL_UART_Transmit+0x98>
 80047d2:	68fb      	ldr	r3, [r7, #12]
 80047d4:	691b      	ldr	r3, [r3, #16]
 80047d6:	2b00      	cmp	r3, #0
 80047d8:	d104      	bne.n	80047e4 <HAL_UART_Transmit+0x98>
    {
      pdata8bits  = NULL;
 80047da:	2300      	movs	r3, #0
 80047dc:	61fb      	str	r3, [r7, #28]
      pdata16bits = (const uint16_t *) pData;
 80047de:	68bb      	ldr	r3, [r7, #8]
 80047e0:	61bb      	str	r3, [r7, #24]
 80047e2:	e003      	b.n	80047ec <HAL_UART_Transmit+0xa0>
    }
    else
    {
      pdata8bits  = pData;
 80047e4:	68bb      	ldr	r3, [r7, #8]
 80047e6:	61fb      	str	r3, [r7, #28]
      pdata16bits = NULL;
 80047e8:	2300      	movs	r3, #0
 80047ea:	61bb      	str	r3, [r7, #24]
    }

    while (huart->TxXferCount > 0U)
 80047ec:	e030      	b.n	8004850 <HAL_UART_Transmit+0x104>
    {
      if (UART_WaitOnFlagUntilTimeout(huart, UART_FLAG_TXE, RESET, tickstart, Timeout) != HAL_OK)
 80047ee:	697a      	ldr	r2, [r7, #20]
 80047f0:	68f8      	ldr	r0, [r7, #12]
 80047f2:	683b      	ldr	r3, [r7, #0]
 80047f4:	9300      	str	r3, [sp, #0]
 80047f6:	0013      	movs	r3, r2
 80047f8:	2200      	movs	r2, #0
 80047fa:	2180      	movs	r1, #128	@ 0x80
 80047fc:	f000 fb26 	bl	8004e4c <UART_WaitOnFlagUntilTimeout>
 8004800:	1e03      	subs	r3, r0, #0
 8004802:	d005      	beq.n	8004810 <HAL_UART_Transmit+0xc4>
      {

        huart->gState = HAL_UART_STATE_READY;
 8004804:	68fb      	ldr	r3, [r7, #12]
 8004806:	2288      	movs	r2, #136	@ 0x88
 8004808:	2120      	movs	r1, #32
 800480a:	5099      	str	r1, [r3, r2]

        return HAL_TIMEOUT;
 800480c:	2303      	movs	r3, #3
 800480e:	e03d      	b.n	800488c <HAL_UART_Transmit+0x140>
      }
      if (pdata8bits == NULL)
 8004810:	69fb      	ldr	r3, [r7, #28]
 8004812:	2b00      	cmp	r3, #0
 8004814:	d10b      	bne.n	800482e <HAL_UART_Transmit+0xe2>
      {
        huart->Instance->TDR = (uint16_t)(*pdata16bits & 0x01FFU);
 8004816:	69bb      	ldr	r3, [r7, #24]
 8004818:	881b      	ldrh	r3, [r3, #0]
 800481a:	001a      	movs	r2, r3
 800481c:	68fb      	ldr	r3, [r7, #12]
 800481e:	681b      	ldr	r3, [r3, #0]
 8004820:	05d2      	lsls	r2, r2, #23
 8004822:	0dd2      	lsrs	r2, r2, #23
 8004824:	629a      	str	r2, [r3, #40]	@ 0x28
        pdata16bits++;
 8004826:	69bb      	ldr	r3, [r7, #24]
 8004828:	3302      	adds	r3, #2
 800482a:	61bb      	str	r3, [r7, #24]
 800482c:	e007      	b.n	800483e <HAL_UART_Transmit+0xf2>
      }
      else
      {
        huart->Instance->TDR = (uint8_t)(*pdata8bits & 0xFFU);
 800482e:	69fb      	ldr	r3, [r7, #28]
 8004830:	781a      	ldrb	r2, [r3, #0]
 8004832:	68fb      	ldr	r3, [r7, #12]
 8004834:	681b      	ldr	r3, [r3, #0]
 8004836:	629a      	str	r2, [r3, #40]	@ 0x28
        pdata8bits++;
 8004838:	69fb      	ldr	r3, [r7, #28]
 800483a:	3301      	adds	r3, #1
 800483c:	61fb      	str	r3, [r7, #28]
      }
      huart->TxXferCount--;
 800483e:	68fb      	ldr	r3, [r7, #12]
 8004840:	2256      	movs	r2, #86	@ 0x56
 8004842:	5a9b      	ldrh	r3, [r3, r2]
 8004844:	b29b      	uxth	r3, r3
 8004846:	3b01      	subs	r3, #1
 8004848:	b299      	uxth	r1, r3
 800484a:	68fb      	ldr	r3, [r7, #12]
 800484c:	2256      	movs	r2, #86	@ 0x56
 800484e:	5299      	strh	r1, [r3, r2]
    while (huart->TxXferCount > 0U)
 8004850:	68fb      	ldr	r3, [r7, #12]
 8004852:	2256      	movs	r2, #86	@ 0x56
 8004854:	5a9b      	ldrh	r3, [r3, r2]
 8004856:	b29b      	uxth	r3, r3
 8004858:	2b00      	cmp	r3, #0
 800485a:	d1c8      	bne.n	80047ee <HAL_UART_Transmit+0xa2>
    }

    if (UART_WaitOnFlagUntilTimeout(huart, UART_FLAG_TC, RESET, tickstart, Timeout) != HAL_OK)
 800485c:	697a      	ldr	r2, [r7, #20]
 800485e:	68f8      	ldr	r0, [r7, #12]
 8004860:	683b      	ldr	r3, [r7, #0]
 8004862:	9300      	str	r3, [sp, #0]
 8004864:	0013      	movs	r3, r2
 8004866:	2200      	movs	r2, #0
 8004868:	2140      	movs	r1, #64	@ 0x40
 800486a:	f000 faef 	bl	8004e4c <UART_WaitOnFlagUntilTimeout>
 800486e:	1e03      	subs	r3, r0, #0
 8004870:	d005      	beq.n	800487e <HAL_UART_Transmit+0x132>
    {
      huart->gState = HAL_UART_STATE_READY;
 8004872:	68fb      	ldr	r3, [r7, #12]
 8004874:	2288      	movs	r2, #136	@ 0x88
 8004876:	2120      	movs	r1, #32
 8004878:	5099      	str	r1, [r3, r2]

      return HAL_TIMEOUT;
 800487a:	2303      	movs	r3, #3
 800487c:	e006      	b.n	800488c <HAL_UART_Transmit+0x140>
    }

    /* At end of Tx process, restore huart->gState to Ready */
    huart->gState = HAL_UART_STATE_READY;
 800487e:	68fb      	ldr	r3, [r7, #12]
 8004880:	2288      	movs	r2, #136	@ 0x88
 8004882:	2120      	movs	r1, #32
 8004884:	5099      	str	r1, [r3, r2]

    return HAL_OK;
 8004886:	2300      	movs	r3, #0
 8004888:	e000      	b.n	800488c <HAL_UART_Transmit+0x140>
  }
  else
  {
    return HAL_BUSY;
 800488a:	2302      	movs	r3, #2
  }
}
 800488c:	0018      	movs	r0, r3
 800488e:	46bd      	mov	sp, r7
 8004890:	b008      	add	sp, #32
 8004892:	bd80      	pop	{r7, pc}

08004894 <UART_SetConfig>:
  * @brief Configure the UART peripheral.
  * @param huart UART handle.
  * @retval HAL status
  */
HAL_StatusTypeDef UART_SetConfig(UART_HandleTypeDef *huart)
{
 8004894:	b580      	push	{r7, lr}
 8004896:	b088      	sub	sp, #32
 8004898:	af00      	add	r7, sp, #0
 800489a:	6078      	str	r0, [r7, #4]
  uint32_t tmpreg;
  uint16_t brrtemp;
  UART_ClockSourceTypeDef clocksource;
  uint32_t usartdiv;
  HAL_StatusTypeDef ret               = HAL_OK;
 800489c:	231e      	movs	r3, #30
 800489e:	18fb      	adds	r3, r7, r3
 80048a0:	2200      	movs	r2, #0
 80048a2:	701a      	strb	r2, [r3, #0]
  *  the UART Word Length, Parity, Mode and oversampling:
  *  set the M bits according to huart->Init.WordLength value
  *  set PCE and PS bits according to huart->Init.Parity value
  *  set TE and RE bits according to huart->Init.Mode value
  *  set OVER8 bit according to huart->Init.OverSampling value */
  tmpreg = (uint32_t)huart->Init.WordLength | huart->Init.Parity | huart->Init.Mode | huart->Init.OverSampling ;
 80048a4:	687b      	ldr	r3, [r7, #4]
 80048a6:	689a      	ldr	r2, [r3, #8]
 80048a8:	687b      	ldr	r3, [r7, #4]
 80048aa:	691b      	ldr	r3, [r3, #16]
 80048ac:	431a      	orrs	r2, r3
 80048ae:	687b      	ldr	r3, [r7, #4]
 80048b0:	695b      	ldr	r3, [r3, #20]
 80048b2:	431a      	orrs	r2, r3
 80048b4:	687b      	ldr	r3, [r7, #4]
 80048b6:	69db      	ldr	r3, [r3, #28]
 80048b8:	4313      	orrs	r3, r2
 80048ba:	617b      	str	r3, [r7, #20]
  MODIFY_REG(huart->Instance->CR1, USART_CR1_FIELDS, tmpreg);
 80048bc:	687b      	ldr	r3, [r7, #4]
 80048be:	681b      	ldr	r3, [r3, #0]
 80048c0:	681b      	ldr	r3, [r3, #0]
 80048c2:	4aab      	ldr	r2, [pc, #684]	@ (8004b70 <UART_SetConfig+0x2dc>)
 80048c4:	4013      	ands	r3, r2
 80048c6:	0019      	movs	r1, r3
 80048c8:	687b      	ldr	r3, [r7, #4]
 80048ca:	681b      	ldr	r3, [r3, #0]
 80048cc:	697a      	ldr	r2, [r7, #20]
 80048ce:	430a      	orrs	r2, r1
 80048d0:	601a      	str	r2, [r3, #0]

  /*-------------------------- USART CR2 Configuration -----------------------*/
  /* Configure the UART Stop Bits: Set STOP[13:12] bits according
  * to huart->Init.StopBits value */
  MODIFY_REG(huart->Instance->CR2, USART_CR2_STOP, huart->Init.StopBits);
 80048d2:	687b      	ldr	r3, [r7, #4]
 80048d4:	681b      	ldr	r3, [r3, #0]
 80048d6:	685b      	ldr	r3, [r3, #4]
 80048d8:	4aa6      	ldr	r2, [pc, #664]	@ (8004b74 <UART_SetConfig+0x2e0>)
 80048da:	4013      	ands	r3, r2
 80048dc:	0019      	movs	r1, r3
 80048de:	687b      	ldr	r3, [r7, #4]
 80048e0:	68da      	ldr	r2, [r3, #12]
 80048e2:	687b      	ldr	r3, [r7, #4]
 80048e4:	681b      	ldr	r3, [r3, #0]
 80048e6:	430a      	orrs	r2, r1
 80048e8:	605a      	str	r2, [r3, #4]
  /* Configure
  * - UART HardWare Flow Control: set CTSE and RTSE bits according
  *   to huart->Init.HwFlowCtl value
  * - one-bit sampling method versus three samples' majority rule according
  *   to huart->Init.OneBitSampling (not applicable to LPUART) */
  tmpreg = (uint32_t)huart->Init.HwFlowCtl;
 80048ea:	687b      	ldr	r3, [r7, #4]
 80048ec:	699b      	ldr	r3, [r3, #24]
 80048ee:	617b      	str	r3, [r7, #20]

  tmpreg |= huart->Init.OneBitSampling;
 80048f0:	687b      	ldr	r3, [r7, #4]
 80048f2:	6a1b      	ldr	r3, [r3, #32]
 80048f4:	697a      	ldr	r2, [r7, #20]
 80048f6:	4313      	orrs	r3, r2
 80048f8:	617b      	str	r3, [r7, #20]
  MODIFY_REG(huart->Instance->CR3, USART_CR3_FIELDS, tmpreg);
 80048fa:	687b      	ldr	r3, [r7, #4]
 80048fc:	681b      	ldr	r3, [r3, #0]
 80048fe:	689b      	ldr	r3, [r3, #8]
 8004900:	4a9d      	ldr	r2, [pc, #628]	@ (8004b78 <UART_SetConfig+0x2e4>)
 8004902:	4013      	ands	r3, r2
 8004904:	0019      	movs	r1, r3
 8004906:	687b      	ldr	r3, [r7, #4]
 8004908:	681b      	ldr	r3, [r3, #0]
 800490a:	697a      	ldr	r2, [r7, #20]
 800490c:	430a      	orrs	r2, r1
 800490e:	609a      	str	r2, [r3, #8]

  /*-------------------------- USART PRESC Configuration -----------------------*/
  /* Configure
  * - UART Clock Prescaler : set PRESCALER according to huart->Init.ClockPrescaler value */
  MODIFY_REG(huart->Instance->PRESC, USART_PRESC_PRESCALER, huart->Init.ClockPrescaler);
 8004910:	687b      	ldr	r3, [r7, #4]
 8004912:	681b      	ldr	r3, [r3, #0]
 8004914:	6adb      	ldr	r3, [r3, #44]	@ 0x2c
 8004916:	220f      	movs	r2, #15
 8004918:	4393      	bics	r3, r2
 800491a:	0019      	movs	r1, r3
 800491c:	687b      	ldr	r3, [r7, #4]
 800491e:	6a5a      	ldr	r2, [r3, #36]	@ 0x24
 8004920:	687b      	ldr	r3, [r7, #4]
 8004922:	681b      	ldr	r3, [r3, #0]
 8004924:	430a      	orrs	r2, r1
 8004926:	62da      	str	r2, [r3, #44]	@ 0x2c

  /*-------------------------- USART BRR Configuration -----------------------*/
  UART_GETCLOCKSOURCE(huart, clocksource);
 8004928:	687b      	ldr	r3, [r7, #4]
 800492a:	681b      	ldr	r3, [r3, #0]
 800492c:	4a93      	ldr	r2, [pc, #588]	@ (8004b7c <UART_SetConfig+0x2e8>)
 800492e:	4293      	cmp	r3, r2
 8004930:	d127      	bne.n	8004982 <UART_SetConfig+0xee>
 8004932:	4b93      	ldr	r3, [pc, #588]	@ (8004b80 <UART_SetConfig+0x2ec>)
 8004934:	6d5b      	ldr	r3, [r3, #84]	@ 0x54
 8004936:	2203      	movs	r2, #3
 8004938:	4013      	ands	r3, r2
 800493a:	2b03      	cmp	r3, #3
 800493c:	d017      	beq.n	800496e <UART_SetConfig+0xda>
 800493e:	d81b      	bhi.n	8004978 <UART_SetConfig+0xe4>
 8004940:	2b02      	cmp	r3, #2
 8004942:	d00a      	beq.n	800495a <UART_SetConfig+0xc6>
 8004944:	d818      	bhi.n	8004978 <UART_SetConfig+0xe4>
 8004946:	2b00      	cmp	r3, #0
 8004948:	d002      	beq.n	8004950 <UART_SetConfig+0xbc>
 800494a:	2b01      	cmp	r3, #1
 800494c:	d00a      	beq.n	8004964 <UART_SetConfig+0xd0>
 800494e:	e013      	b.n	8004978 <UART_SetConfig+0xe4>
 8004950:	231f      	movs	r3, #31
 8004952:	18fb      	adds	r3, r7, r3
 8004954:	2200      	movs	r2, #0
 8004956:	701a      	strb	r2, [r3, #0]
 8004958:	e021      	b.n	800499e <UART_SetConfig+0x10a>
 800495a:	231f      	movs	r3, #31
 800495c:	18fb      	adds	r3, r7, r3
 800495e:	2202      	movs	r2, #2
 8004960:	701a      	strb	r2, [r3, #0]
 8004962:	e01c      	b.n	800499e <UART_SetConfig+0x10a>
 8004964:	231f      	movs	r3, #31
 8004966:	18fb      	adds	r3, r7, r3
 8004968:	2204      	movs	r2, #4
 800496a:	701a      	strb	r2, [r3, #0]
 800496c:	e017      	b.n	800499e <UART_SetConfig+0x10a>
 800496e:	231f      	movs	r3, #31
 8004970:	18fb      	adds	r3, r7, r3
 8004972:	2208      	movs	r2, #8
 8004974:	701a      	strb	r2, [r3, #0]
 8004976:	e012      	b.n	800499e <UART_SetConfig+0x10a>
 8004978:	231f      	movs	r3, #31
 800497a:	18fb      	adds	r3, r7, r3
 800497c:	2210      	movs	r2, #16
 800497e:	701a      	strb	r2, [r3, #0]
 8004980:	e00d      	b.n	800499e <UART_SetConfig+0x10a>
 8004982:	687b      	ldr	r3, [r7, #4]
 8004984:	681b      	ldr	r3, [r3, #0]
 8004986:	4a7f      	ldr	r2, [pc, #508]	@ (8004b84 <UART_SetConfig+0x2f0>)
 8004988:	4293      	cmp	r3, r2
 800498a:	d104      	bne.n	8004996 <UART_SetConfig+0x102>
 800498c:	231f      	movs	r3, #31
 800498e:	18fb      	adds	r3, r7, r3
 8004990:	2200      	movs	r2, #0
 8004992:	701a      	strb	r2, [r3, #0]
 8004994:	e003      	b.n	800499e <UART_SetConfig+0x10a>
 8004996:	231f      	movs	r3, #31
 8004998:	18fb      	adds	r3, r7, r3
 800499a:	2210      	movs	r2, #16
 800499c:	701a      	strb	r2, [r3, #0]

  if (huart->Init.OverSampling == UART_OVERSAMPLING_8)
 800499e:	687b      	ldr	r3, [r7, #4]
 80049a0:	69da      	ldr	r2, [r3, #28]
 80049a2:	2380      	movs	r3, #128	@ 0x80
 80049a4:	021b      	lsls	r3, r3, #8
 80049a6:	429a      	cmp	r2, r3
 80049a8:	d000      	beq.n	80049ac <UART_SetConfig+0x118>
 80049aa:	e06f      	b.n	8004a8c <UART_SetConfig+0x1f8>
  {
    switch (clocksource)
 80049ac:	231f      	movs	r3, #31
 80049ae:	18fb      	adds	r3, r7, r3
 80049b0:	781b      	ldrb	r3, [r3, #0]
 80049b2:	2b08      	cmp	r3, #8
 80049b4:	d01f      	beq.n	80049f6 <UART_SetConfig+0x162>
 80049b6:	dc22      	bgt.n	80049fe <UART_SetConfig+0x16a>
 80049b8:	2b04      	cmp	r3, #4
 80049ba:	d017      	beq.n	80049ec <UART_SetConfig+0x158>
 80049bc:	dc1f      	bgt.n	80049fe <UART_SetConfig+0x16a>
 80049be:	2b00      	cmp	r3, #0
 80049c0:	d002      	beq.n	80049c8 <UART_SetConfig+0x134>
 80049c2:	2b02      	cmp	r3, #2
 80049c4:	d005      	beq.n	80049d2 <UART_SetConfig+0x13e>
 80049c6:	e01a      	b.n	80049fe <UART_SetConfig+0x16a>
    {
      case UART_CLOCKSOURCE_PCLK1:
        pclk = HAL_RCC_GetPCLK1Freq();
 80049c8:	f7fe fd18 	bl	80033fc <HAL_RCC_GetPCLK1Freq>
 80049cc:	0003      	movs	r3, r0
 80049ce:	61bb      	str	r3, [r7, #24]
        break;
 80049d0:	e01c      	b.n	8004a0c <UART_SetConfig+0x178>
      case UART_CLOCKSOURCE_HSI:
        pclk = (HSI_VALUE / ((__HAL_RCC_GET_HSIKER_DIVIDER() >> RCC_CR_HSIKERDIV_Pos) + 1U));
 80049d2:	4b6b      	ldr	r3, [pc, #428]	@ (8004b80 <UART_SetConfig+0x2ec>)
 80049d4:	681b      	ldr	r3, [r3, #0]
 80049d6:	095b      	lsrs	r3, r3, #5
 80049d8:	2207      	movs	r2, #7
 80049da:	4013      	ands	r3, r2
 80049dc:	3301      	adds	r3, #1
 80049de:	0019      	movs	r1, r3
 80049e0:	4869      	ldr	r0, [pc, #420]	@ (8004b88 <UART_SetConfig+0x2f4>)
 80049e2:	f7fb fba3 	bl	800012c <__udivsi3>
 80049e6:	0003      	movs	r3, r0
 80049e8:	61bb      	str	r3, [r7, #24]
        break;
 80049ea:	e00f      	b.n	8004a0c <UART_SetConfig+0x178>
      case UART_CLOCKSOURCE_SYSCLK:
        pclk = HAL_RCC_GetSysClockFreq();
 80049ec:	f7fe fca6 	bl	800333c <HAL_RCC_GetSysClockFreq>
 80049f0:	0003      	movs	r3, r0
 80049f2:	61bb      	str	r3, [r7, #24]
        break;
 80049f4:	e00a      	b.n	8004a0c <UART_SetConfig+0x178>
      case UART_CLOCKSOURCE_LSE:
        pclk = (uint32_t) LSE_VALUE;
 80049f6:	2380      	movs	r3, #128	@ 0x80
 80049f8:	021b      	lsls	r3, r3, #8
 80049fa:	61bb      	str	r3, [r7, #24]
        break;
 80049fc:	e006      	b.n	8004a0c <UART_SetConfig+0x178>
      default:
        pclk = 0U;
 80049fe:	2300      	movs	r3, #0
 8004a00:	61bb      	str	r3, [r7, #24]
        ret = HAL_ERROR;
 8004a02:	231e      	movs	r3, #30
 8004a04:	18fb      	adds	r3, r7, r3
 8004a06:	2201      	movs	r2, #1
 8004a08:	701a      	strb	r2, [r3, #0]
        break;
 8004a0a:	46c0      	nop			@ (mov r8, r8)
    }

    /* USARTDIV must be greater than or equal to 0d16 */
    if (pclk != 0U)
 8004a0c:	69bb      	ldr	r3, [r7, #24]
 8004a0e:	2b00      	cmp	r3, #0
 8004a10:	d100      	bne.n	8004a14 <UART_SetConfig+0x180>
 8004a12:	e097      	b.n	8004b44 <UART_SetConfig+0x2b0>
    {
      usartdiv = (uint32_t)(UART_DIV_SAMPLING8(pclk, huart->Init.BaudRate, huart->Init.ClockPrescaler));
 8004a14:	687b      	ldr	r3, [r7, #4]
 8004a16:	6a5a      	ldr	r2, [r3, #36]	@ 0x24
 8004a18:	4b5c      	ldr	r3, [pc, #368]	@ (8004b8c <UART_SetConfig+0x2f8>)
 8004a1a:	0052      	lsls	r2, r2, #1
 8004a1c:	5ad3      	ldrh	r3, [r2, r3]
 8004a1e:	0019      	movs	r1, r3
 8004a20:	69b8      	ldr	r0, [r7, #24]
 8004a22:	f7fb fb83 	bl	800012c <__udivsi3>
 8004a26:	0003      	movs	r3, r0
 8004a28:	005a      	lsls	r2, r3, #1
 8004a2a:	687b      	ldr	r3, [r7, #4]
 8004a2c:	685b      	ldr	r3, [r3, #4]
 8004a2e:	085b      	lsrs	r3, r3, #1
 8004a30:	18d2      	adds	r2, r2, r3
 8004a32:	687b      	ldr	r3, [r7, #4]
 8004a34:	685b      	ldr	r3, [r3, #4]
 8004a36:	0019      	movs	r1, r3
 8004a38:	0010      	movs	r0, r2
 8004a3a:	f7fb fb77 	bl	800012c <__udivsi3>
 8004a3e:	0003      	movs	r3, r0
 8004a40:	613b      	str	r3, [r7, #16]
      if ((usartdiv >= UART_BRR_MIN) && (usartdiv <= UART_BRR_MAX))
 8004a42:	693b      	ldr	r3, [r7, #16]
 8004a44:	2b0f      	cmp	r3, #15
 8004a46:	d91c      	bls.n	8004a82 <UART_SetConfig+0x1ee>
 8004a48:	693a      	ldr	r2, [r7, #16]
 8004a4a:	2380      	movs	r3, #128	@ 0x80
 8004a4c:	025b      	lsls	r3, r3, #9
 8004a4e:	429a      	cmp	r2, r3
 8004a50:	d217      	bcs.n	8004a82 <UART_SetConfig+0x1ee>
      {
        brrtemp = (uint16_t)(usartdiv & 0xFFF0U);
 8004a52:	693b      	ldr	r3, [r7, #16]
 8004a54:	b29a      	uxth	r2, r3
 8004a56:	200e      	movs	r0, #14
 8004a58:	183b      	adds	r3, r7, r0
 8004a5a:	210f      	movs	r1, #15
 8004a5c:	438a      	bics	r2, r1
 8004a5e:	801a      	strh	r2, [r3, #0]
        brrtemp |= (uint16_t)((usartdiv & (uint16_t)0x000FU) >> 1U);
 8004a60:	693b      	ldr	r3, [r7, #16]
 8004a62:	085b      	lsrs	r3, r3, #1
 8004a64:	b29b      	uxth	r3, r3
 8004a66:	2207      	movs	r2, #7
 8004a68:	4013      	ands	r3, r2
 8004a6a:	b299      	uxth	r1, r3
 8004a6c:	183b      	adds	r3, r7, r0
 8004a6e:	183a      	adds	r2, r7, r0
 8004a70:	8812      	ldrh	r2, [r2, #0]
 8004a72:	430a      	orrs	r2, r1
 8004a74:	801a      	strh	r2, [r3, #0]
        huart->Instance->BRR = brrtemp;
 8004a76:	687b      	ldr	r3, [r7, #4]
 8004a78:	681b      	ldr	r3, [r3, #0]
 8004a7a:	183a      	adds	r2, r7, r0
 8004a7c:	8812      	ldrh	r2, [r2, #0]
 8004a7e:	60da      	str	r2, [r3, #12]
 8004a80:	e060      	b.n	8004b44 <UART_SetConfig+0x2b0>
      }
      else
      {
        ret = HAL_ERROR;
 8004a82:	231e      	movs	r3, #30
 8004a84:	18fb      	adds	r3, r7, r3
 8004a86:	2201      	movs	r2, #1
 8004a88:	701a      	strb	r2, [r3, #0]
 8004a8a:	e05b      	b.n	8004b44 <UART_SetConfig+0x2b0>
      }
    }
  }
  else
  {
    switch (clocksource)
 8004a8c:	231f      	movs	r3, #31
 8004a8e:	18fb      	adds	r3, r7, r3
 8004a90:	781b      	ldrb	r3, [r3, #0]
 8004a92:	2b08      	cmp	r3, #8
 8004a94:	d01f      	beq.n	8004ad6 <UART_SetConfig+0x242>
 8004a96:	dc22      	bgt.n	8004ade <UART_SetConfig+0x24a>
 8004a98:	2b04      	cmp	r3, #4
 8004a9a:	d017      	beq.n	8004acc <UART_SetConfig+0x238>
 8004a9c:	dc1f      	bgt.n	8004ade <UART_SetConfig+0x24a>
 8004a9e:	2b00      	cmp	r3, #0
 8004aa0:	d002      	beq.n	8004aa8 <UART_SetConfig+0x214>
 8004aa2:	2b02      	cmp	r3, #2
 8004aa4:	d005      	beq.n	8004ab2 <UART_SetConfig+0x21e>
 8004aa6:	e01a      	b.n	8004ade <UART_SetConfig+0x24a>
    {
      case UART_CLOCKSOURCE_PCLK1:
        pclk = HAL_RCC_GetPCLK1Freq();
 8004aa8:	f7fe fca8 	bl	80033fc <HAL_RCC_GetPCLK1Freq>
 8004aac:	0003      	movs	r3, r0
 8004aae:	61bb      	str	r3, [r7, #24]
        break;
 8004ab0:	e01c      	b.n	8004aec <UART_SetConfig+0x258>
      case UART_CLOCKSOURCE_HSI:
        pclk = (HSI_VALUE / ((__HAL_RCC_GET_HSIKER_DIVIDER() >> RCC_CR_HSIKERDIV_Pos) + 1U));
 8004ab2:	4b33      	ldr	r3, [pc, #204]	@ (8004b80 <UART_SetConfig+0x2ec>)
 8004ab4:	681b      	ldr	r3, [r3, #0]
 8004ab6:	095b      	lsrs	r3, r3, #5
 8004ab8:	2207      	movs	r2, #7
 8004aba:	4013      	ands	r3, r2
 8004abc:	3301      	adds	r3, #1
 8004abe:	0019      	movs	r1, r3
 8004ac0:	4831      	ldr	r0, [pc, #196]	@ (8004b88 <UART_SetConfig+0x2f4>)
 8004ac2:	f7fb fb33 	bl	800012c <__udivsi3>
 8004ac6:	0003      	movs	r3, r0
 8004ac8:	61bb      	str	r3, [r7, #24]
        break;
 8004aca:	e00f      	b.n	8004aec <UART_SetConfig+0x258>
      case UART_CLOCKSOURCE_SYSCLK:
        pclk = HAL_RCC_GetSysClockFreq();
 8004acc:	f7fe fc36 	bl	800333c <HAL_RCC_GetSysClockFreq>
 8004ad0:	0003      	movs	r3, r0
 8004ad2:	61bb      	str	r3, [r7, #24]
        break;
 8004ad4:	e00a      	b.n	8004aec <UART_SetConfig+0x258>
      case UART_CLOCKSOURCE_LSE:
        pclk = (uint32_t) LSE_VALUE;
 8004ad6:	2380      	movs	r3, #128	@ 0x80
 8004ad8:	021b      	lsls	r3, r3, #8
 8004ada:	61bb      	str	r3, [r7, #24]
        break;
 8004adc:	e006      	b.n	8004aec <UART_SetConfig+0x258>
      default:
        pclk = 0U;
 8004ade:	2300      	movs	r3, #0
 8004ae0:	61bb      	str	r3, [r7, #24]
        ret = HAL_ERROR;
 8004ae2:	231e      	movs	r3, #30
 8004ae4:	18fb      	adds	r3, r7, r3
 8004ae6:	2201      	movs	r2, #1
 8004ae8:	701a      	strb	r2, [r3, #0]
        break;
 8004aea:	46c0      	nop			@ (mov r8, r8)
    }

    if (pclk != 0U)
 8004aec:	69bb      	ldr	r3, [r7, #24]
 8004aee:	2b00      	cmp	r3, #0
 8004af0:	d028      	beq.n	8004b44 <UART_SetConfig+0x2b0>
    {
      /* USARTDIV must be greater than or equal to 0d16 */
      usartdiv = (uint32_t)(UART_DIV_SAMPLING16(pclk, huart->Init.BaudRate, huart->Init.ClockPrescaler));
 8004af2:	687b      	ldr	r3, [r7, #4]
 8004af4:	6a5a      	ldr	r2, [r3, #36]	@ 0x24
 8004af6:	4b25      	ldr	r3, [pc, #148]	@ (8004b8c <UART_SetConfig+0x2f8>)
 8004af8:	0052      	lsls	r2, r2, #1
 8004afa:	5ad3      	ldrh	r3, [r2, r3]
 8004afc:	0019      	movs	r1, r3
 8004afe:	69b8      	ldr	r0, [r7, #24]
 8004b00:	f7fb fb14 	bl	800012c <__udivsi3>
 8004b04:	0003      	movs	r3, r0
 8004b06:	001a      	movs	r2, r3
 8004b08:	687b      	ldr	r3, [r7, #4]
 8004b0a:	685b      	ldr	r3, [r3, #4]
 8004b0c:	085b      	lsrs	r3, r3, #1
 8004b0e:	18d2      	adds	r2, r2, r3
 8004b10:	687b      	ldr	r3, [r7, #4]
 8004b12:	685b      	ldr	r3, [r3, #4]
 8004b14:	0019      	movs	r1, r3
 8004b16:	0010      	movs	r0, r2
 8004b18:	f7fb fb08 	bl	800012c <__udivsi3>
 8004b1c:	0003      	movs	r3, r0
 8004b1e:	613b      	str	r3, [r7, #16]
      if ((usartdiv >= UART_BRR_MIN) && (usartdiv <= UART_BRR_MAX))
 8004b20:	693b      	ldr	r3, [r7, #16]
 8004b22:	2b0f      	cmp	r3, #15
 8004b24:	d90a      	bls.n	8004b3c <UART_SetConfig+0x2a8>
 8004b26:	693a      	ldr	r2, [r7, #16]
 8004b28:	2380      	movs	r3, #128	@ 0x80
 8004b2a:	025b      	lsls	r3, r3, #9
 8004b2c:	429a      	cmp	r2, r3
 8004b2e:	d205      	bcs.n	8004b3c <UART_SetConfig+0x2a8>
      {
        huart->Instance->BRR = (uint16_t)usartdiv;
 8004b30:	693b      	ldr	r3, [r7, #16]
 8004b32:	b29a      	uxth	r2, r3
 8004b34:	687b      	ldr	r3, [r7, #4]
 8004b36:	681b      	ldr	r3, [r3, #0]
 8004b38:	60da      	str	r2, [r3, #12]
 8004b3a:	e003      	b.n	8004b44 <UART_SetConfig+0x2b0>
      }
      else
      {
        ret = HAL_ERROR;
 8004b3c:	231e      	movs	r3, #30
 8004b3e:	18fb      	adds	r3, r7, r3
 8004b40:	2201      	movs	r2, #1
 8004b42:	701a      	strb	r2, [r3, #0]
      }
    }
  }

  /* Initialize the number of data to process during RX/TX ISR execution */
  huart->NbTxDataToProcess = 1;
 8004b44:	687b      	ldr	r3, [r7, #4]
 8004b46:	226a      	movs	r2, #106	@ 0x6a
 8004b48:	2101      	movs	r1, #1
 8004b4a:	5299      	strh	r1, [r3, r2]
  huart->NbRxDataToProcess = 1;
 8004b4c:	687b      	ldr	r3, [r7, #4]
 8004b4e:	2268      	movs	r2, #104	@ 0x68
 8004b50:	2101      	movs	r1, #1
 8004b52:	5299      	strh	r1, [r3, r2]

  /* Clear ISR function pointers */
  huart->RxISR = NULL;
 8004b54:	687b      	ldr	r3, [r7, #4]
 8004b56:	2200      	movs	r2, #0
 8004b58:	675a      	str	r2, [r3, #116]	@ 0x74
  huart->TxISR = NULL;
 8004b5a:	687b      	ldr	r3, [r7, #4]
 8004b5c:	2200      	movs	r2, #0
 8004b5e:	679a      	str	r2, [r3, #120]	@ 0x78

  return ret;
 8004b60:	231e      	movs	r3, #30
 8004b62:	18fb      	adds	r3, r7, r3
 8004b64:	781b      	ldrb	r3, [r3, #0]
}
 8004b66:	0018      	movs	r0, r3
 8004b68:	46bd      	mov	sp, r7
 8004b6a:	b008      	add	sp, #32
 8004b6c:	bd80      	pop	{r7, pc}
 8004b6e:	46c0      	nop			@ (mov r8, r8)
 8004b70:	cfff69f3 	.word	0xcfff69f3
 8004b74:	ffffcfff 	.word	0xffffcfff
 8004b78:	11fff4ff 	.word	0x11fff4ff
 8004b7c:	40013800 	.word	0x40013800
 8004b80:	40021000 	.word	0x40021000
 8004b84:	40004400 	.word	0x40004400
 8004b88:	02dc6c00 	.word	0x02dc6c00
 8004b8c:	08005df0 	.word	0x08005df0

08004b90 <UART_AdvFeatureConfig>:
  * @brief Configure the UART peripheral advanced features.
  * @param huart UART handle.
  * @retval None
  */
void UART_AdvFeatureConfig(UART_HandleTypeDef *huart)
{
 8004b90:	b580      	push	{r7, lr}
 8004b92:	b082      	sub	sp, #8
 8004b94:	af00      	add	r7, sp, #0
 8004b96:	6078      	str	r0, [r7, #4]
  /* Check whether the set of advanced features to configure is properly set */
  assert_param(IS_UART_ADVFEATURE_INIT(huart->AdvancedInit.AdvFeatureInit));

  /* if required, configure RX/TX pins swap */
  if (HAL_IS_BIT_SET(huart->AdvancedInit.AdvFeatureInit, UART_ADVFEATURE_SWAP_INIT))
 8004b98:	687b      	ldr	r3, [r7, #4]
 8004b9a:	6a9b      	ldr	r3, [r3, #40]	@ 0x28
 8004b9c:	2208      	movs	r2, #8
 8004b9e:	4013      	ands	r3, r2
 8004ba0:	d00b      	beq.n	8004bba <UART_AdvFeatureConfig+0x2a>
  {
    assert_param(IS_UART_ADVFEATURE_SWAP(huart->AdvancedInit.Swap));
    MODIFY_REG(huart->Instance->CR2, USART_CR2_SWAP, huart->AdvancedInit.Swap);
 8004ba2:	687b      	ldr	r3, [r7, #4]
 8004ba4:	681b      	ldr	r3, [r3, #0]
 8004ba6:	685b      	ldr	r3, [r3, #4]
 8004ba8:	4a4a      	ldr	r2, [pc, #296]	@ (8004cd4 <UART_AdvFeatureConfig+0x144>)
 8004baa:	4013      	ands	r3, r2
 8004bac:	0019      	movs	r1, r3
 8004bae:	687b      	ldr	r3, [r7, #4]
 8004bb0:	6b9a      	ldr	r2, [r3, #56]	@ 0x38
 8004bb2:	687b      	ldr	r3, [r7, #4]
 8004bb4:	681b      	ldr	r3, [r3, #0]
 8004bb6:	430a      	orrs	r2, r1
 8004bb8:	605a      	str	r2, [r3, #4]
  }

  /* if required, configure TX pin active level inversion */
  if (HAL_IS_BIT_SET(huart->AdvancedInit.AdvFeatureInit, UART_ADVFEATURE_TXINVERT_INIT))
 8004bba:	687b      	ldr	r3, [r7, #4]
 8004bbc:	6a9b      	ldr	r3, [r3, #40]	@ 0x28
 8004bbe:	2201      	movs	r2, #1
 8004bc0:	4013      	ands	r3, r2
 8004bc2:	d00b      	beq.n	8004bdc <UART_AdvFeatureConfig+0x4c>
  {
    assert_param(IS_UART_ADVFEATURE_TXINV(huart->AdvancedInit.TxPinLevelInvert));
    MODIFY_REG(huart->Instance->CR2, USART_CR2_TXINV, huart->AdvancedInit.TxPinLevelInvert);
 8004bc4:	687b      	ldr	r3, [r7, #4]
 8004bc6:	681b      	ldr	r3, [r3, #0]
 8004bc8:	685b      	ldr	r3, [r3, #4]
 8004bca:	4a43      	ldr	r2, [pc, #268]	@ (8004cd8 <UART_AdvFeatureConfig+0x148>)
 8004bcc:	4013      	ands	r3, r2
 8004bce:	0019      	movs	r1, r3
 8004bd0:	687b      	ldr	r3, [r7, #4]
 8004bd2:	6ada      	ldr	r2, [r3, #44]	@ 0x2c
 8004bd4:	687b      	ldr	r3, [r7, #4]
 8004bd6:	681b      	ldr	r3, [r3, #0]
 8004bd8:	430a      	orrs	r2, r1
 8004bda:	605a      	str	r2, [r3, #4]
  }

  /* if required, configure RX pin active level inversion */
  if (HAL_IS_BIT_SET(huart->AdvancedInit.AdvFeatureInit, UART_ADVFEATURE_RXINVERT_INIT))
 8004bdc:	687b      	ldr	r3, [r7, #4]
 8004bde:	6a9b      	ldr	r3, [r3, #40]	@ 0x28
 8004be0:	2202      	movs	r2, #2
 8004be2:	4013      	ands	r3, r2
 8004be4:	d00b      	beq.n	8004bfe <UART_AdvFeatureConfig+0x6e>
  {
    assert_param(IS_UART_ADVFEATURE_RXINV(huart->AdvancedInit.RxPinLevelInvert));
    MODIFY_REG(huart->Instance->CR2, USART_CR2_RXINV, huart->AdvancedInit.RxPinLevelInvert);
 8004be6:	687b      	ldr	r3, [r7, #4]
 8004be8:	681b      	ldr	r3, [r3, #0]
 8004bea:	685b      	ldr	r3, [r3, #4]
 8004bec:	4a3b      	ldr	r2, [pc, #236]	@ (8004cdc <UART_AdvFeatureConfig+0x14c>)
 8004bee:	4013      	ands	r3, r2
 8004bf0:	0019      	movs	r1, r3
 8004bf2:	687b      	ldr	r3, [r7, #4]
 8004bf4:	6b1a      	ldr	r2, [r3, #48]	@ 0x30
 8004bf6:	687b      	ldr	r3, [r7, #4]
 8004bf8:	681b      	ldr	r3, [r3, #0]
 8004bfa:	430a      	orrs	r2, r1
 8004bfc:	605a      	str	r2, [r3, #4]
  }

  /* if required, configure data inversion */
  if (HAL_IS_BIT_SET(huart->AdvancedInit.AdvFeatureInit, UART_ADVFEATURE_DATAINVERT_INIT))
 8004bfe:	687b      	ldr	r3, [r7, #4]
 8004c00:	6a9b      	ldr	r3, [r3, #40]	@ 0x28
 8004c02:	2204      	movs	r2, #4
 8004c04:	4013      	ands	r3, r2
 8004c06:	d00b      	beq.n	8004c20 <UART_AdvFeatureConfig+0x90>
  {
    assert_param(IS_UART_ADVFEATURE_DATAINV(huart->AdvancedInit.DataInvert));
    MODIFY_REG(huart->Instance->CR2, USART_CR2_DATAINV, huart->AdvancedInit.DataInvert);
 8004c08:	687b      	ldr	r3, [r7, #4]
 8004c0a:	681b      	ldr	r3, [r3, #0]
 8004c0c:	685b      	ldr	r3, [r3, #4]
 8004c0e:	4a34      	ldr	r2, [pc, #208]	@ (8004ce0 <UART_AdvFeatureConfig+0x150>)
 8004c10:	4013      	ands	r3, r2
 8004c12:	0019      	movs	r1, r3
 8004c14:	687b      	ldr	r3, [r7, #4]
 8004c16:	6b5a      	ldr	r2, [r3, #52]	@ 0x34
 8004c18:	687b      	ldr	r3, [r7, #4]
 8004c1a:	681b      	ldr	r3, [r3, #0]
 8004c1c:	430a      	orrs	r2, r1
 8004c1e:	605a      	str	r2, [r3, #4]
  }

  /* if required, configure RX overrun detection disabling */
  if (HAL_IS_BIT_SET(huart->AdvancedInit.AdvFeatureInit, UART_ADVFEATURE_RXOVERRUNDISABLE_INIT))
 8004c20:	687b      	ldr	r3, [r7, #4]
 8004c22:	6a9b      	ldr	r3, [r3, #40]	@ 0x28
 8004c24:	2210      	movs	r2, #16
 8004c26:	4013      	ands	r3, r2
 8004c28:	d00b      	beq.n	8004c42 <UART_AdvFeatureConfig+0xb2>
  {
    assert_param(IS_UART_OVERRUN(huart->AdvancedInit.OverrunDisable));
    MODIFY_REG(huart->Instance->CR3, USART_CR3_OVRDIS, huart->AdvancedInit.OverrunDisable);
 8004c2a:	687b      	ldr	r3, [r7, #4]
 8004c2c:	681b      	ldr	r3, [r3, #0]
 8004c2e:	689b      	ldr	r3, [r3, #8]
 8004c30:	4a2c      	ldr	r2, [pc, #176]	@ (8004ce4 <UART_AdvFeatureConfig+0x154>)
 8004c32:	4013      	ands	r3, r2
 8004c34:	0019      	movs	r1, r3
 8004c36:	687b      	ldr	r3, [r7, #4]
 8004c38:	6bda      	ldr	r2, [r3, #60]	@ 0x3c
 8004c3a:	687b      	ldr	r3, [r7, #4]
 8004c3c:	681b      	ldr	r3, [r3, #0]
 8004c3e:	430a      	orrs	r2, r1
 8004c40:	609a      	str	r2, [r3, #8]
  }

#if defined(HAL_DMA_MODULE_ENABLED)
  /* if required, configure DMA disabling on reception error */
  if (HAL_IS_BIT_SET(huart->AdvancedInit.AdvFeatureInit, UART_ADVFEATURE_DMADISABLEONERROR_INIT))
 8004c42:	687b      	ldr	r3, [r7, #4]
 8004c44:	6a9b      	ldr	r3, [r3, #40]	@ 0x28
 8004c46:	2220      	movs	r2, #32
 8004c48:	4013      	ands	r3, r2
 8004c4a:	d00b      	beq.n	8004c64 <UART_AdvFeatureConfig+0xd4>
  {
    assert_param(IS_UART_ADVFEATURE_DMAONRXERROR(huart->AdvancedInit.DMADisableonRxError));
    MODIFY_REG(huart->Instance->CR3, USART_CR3_DDRE, huart->AdvancedInit.DMADisableonRxError);
 8004c4c:	687b      	ldr	r3, [r7, #4]
 8004c4e:	681b      	ldr	r3, [r3, #0]
 8004c50:	689b      	ldr	r3, [r3, #8]
 8004c52:	4a25      	ldr	r2, [pc, #148]	@ (8004ce8 <UART_AdvFeatureConfig+0x158>)
 8004c54:	4013      	ands	r3, r2
 8004c56:	0019      	movs	r1, r3
 8004c58:	687b      	ldr	r3, [r7, #4]
 8004c5a:	6c1a      	ldr	r2, [r3, #64]	@ 0x40
 8004c5c:	687b      	ldr	r3, [r7, #4]
 8004c5e:	681b      	ldr	r3, [r3, #0]
 8004c60:	430a      	orrs	r2, r1
 8004c62:	609a      	str	r2, [r3, #8]
  }
#endif /* HAL_DMA_MODULE_ENABLED */

  /* if required, configure auto Baud rate detection scheme */
  if (HAL_IS_BIT_SET(huart->AdvancedInit.AdvFeatureInit, UART_ADVFEATURE_AUTOBAUDRATE_INIT))
 8004c64:	687b      	ldr	r3, [r7, #4]
 8004c66:	6a9b      	ldr	r3, [r3, #40]	@ 0x28
 8004c68:	2240      	movs	r2, #64	@ 0x40
 8004c6a:	4013      	ands	r3, r2
 8004c6c:	d01d      	beq.n	8004caa <UART_AdvFeatureConfig+0x11a>
  {
    assert_param(IS_USART_AUTOBAUDRATE_DETECTION_INSTANCE(huart->Instance));
    assert_param(IS_UART_ADVFEATURE_AUTOBAUDRATE(huart->AdvancedInit.AutoBaudRateEnable));
    MODIFY_REG(huart->Instance->CR2, USART_CR2_ABREN, huart->AdvancedInit.AutoBaudRateEnable);
 8004c6e:	687b      	ldr	r3, [r7, #4]
 8004c70:	681b      	ldr	r3, [r3, #0]
 8004c72:	685b      	ldr	r3, [r3, #4]
 8004c74:	4a1d      	ldr	r2, [pc, #116]	@ (8004cec <UART_AdvFeatureConfig+0x15c>)
 8004c76:	4013      	ands	r3, r2
 8004c78:	0019      	movs	r1, r3
 8004c7a:	687b      	ldr	r3, [r7, #4]
 8004c7c:	6c5a      	ldr	r2, [r3, #68]	@ 0x44
 8004c7e:	687b      	ldr	r3, [r7, #4]
 8004c80:	681b      	ldr	r3, [r3, #0]
 8004c82:	430a      	orrs	r2, r1
 8004c84:	605a      	str	r2, [r3, #4]
    /* set auto Baudrate detection parameters if detection is enabled */
    if (huart->AdvancedInit.AutoBaudRateEnable == UART_ADVFEATURE_AUTOBAUDRATE_ENABLE)
 8004c86:	687b      	ldr	r3, [r7, #4]
 8004c88:	6c5a      	ldr	r2, [r3, #68]	@ 0x44
 8004c8a:	2380      	movs	r3, #128	@ 0x80
 8004c8c:	035b      	lsls	r3, r3, #13
 8004c8e:	429a      	cmp	r2, r3
 8004c90:	d10b      	bne.n	8004caa <UART_AdvFeatureConfig+0x11a>
    {
      assert_param(IS_UART_ADVFEATURE_AUTOBAUDRATEMODE(huart->AdvancedInit.AutoBaudRateMode));
      MODIFY_REG(huart->Instance->CR2, USART_CR2_ABRMODE, huart->AdvancedInit.AutoBaudRateMode);
 8004c92:	687b      	ldr	r3, [r7, #4]
 8004c94:	681b      	ldr	r3, [r3, #0]
 8004c96:	685b      	ldr	r3, [r3, #4]
 8004c98:	4a15      	ldr	r2, [pc, #84]	@ (8004cf0 <UART_AdvFeatureConfig+0x160>)
 8004c9a:	4013      	ands	r3, r2
 8004c9c:	0019      	movs	r1, r3
 8004c9e:	687b      	ldr	r3, [r7, #4]
 8004ca0:	6c9a      	ldr	r2, [r3, #72]	@ 0x48
 8004ca2:	687b      	ldr	r3, [r7, #4]
 8004ca4:	681b      	ldr	r3, [r3, #0]
 8004ca6:	430a      	orrs	r2, r1
 8004ca8:	605a      	str	r2, [r3, #4]
    }
  }

  /* if required, configure MSB first on communication line */
  if (HAL_IS_BIT_SET(huart->AdvancedInit.AdvFeatureInit, UART_ADVFEATURE_MSBFIRST_INIT))
 8004caa:	687b      	ldr	r3, [r7, #4]
 8004cac:	6a9b      	ldr	r3, [r3, #40]	@ 0x28
 8004cae:	2280      	movs	r2, #128	@ 0x80
 8004cb0:	4013      	ands	r3, r2
 8004cb2:	d00b      	beq.n	8004ccc <UART_AdvFeatureConfig+0x13c>
  {
    assert_param(IS_UART_ADVFEATURE_MSBFIRST(huart->AdvancedInit.MSBFirst));
    MODIFY_REG(huart->Instance->CR2, USART_CR2_MSBFIRST, huart->AdvancedInit.MSBFirst);
 8004cb4:	687b      	ldr	r3, [r7, #4]
 8004cb6:	681b      	ldr	r3, [r3, #0]
 8004cb8:	685b      	ldr	r3, [r3, #4]
 8004cba:	4a0e      	ldr	r2, [pc, #56]	@ (8004cf4 <UART_AdvFeatureConfig+0x164>)
 8004cbc:	4013      	ands	r3, r2
 8004cbe:	0019      	movs	r1, r3
 8004cc0:	687b      	ldr	r3, [r7, #4]
 8004cc2:	6cda      	ldr	r2, [r3, #76]	@ 0x4c
 8004cc4:	687b      	ldr	r3, [r7, #4]
 8004cc6:	681b      	ldr	r3, [r3, #0]
 8004cc8:	430a      	orrs	r2, r1
 8004cca:	605a      	str	r2, [r3, #4]
  }
}
 8004ccc:	46c0      	nop			@ (mov r8, r8)
 8004cce:	46bd      	mov	sp, r7
 8004cd0:	b002      	add	sp, #8
 8004cd2:	bd80      	pop	{r7, pc}
 8004cd4:	ffff7fff 	.word	0xffff7fff
 8004cd8:	fffdffff 	.word	0xfffdffff
 8004cdc:	fffeffff 	.word	0xfffeffff
 8004ce0:	fffbffff 	.word	0xfffbffff
 8004ce4:	ffffefff 	.word	0xffffefff
 8004ce8:	ffffdfff 	.word	0xffffdfff
 8004cec:	ffefffff 	.word	0xffefffff
 8004cf0:	ff9fffff 	.word	0xff9fffff
 8004cf4:	fff7ffff 	.word	0xfff7ffff

08004cf8 <UART_CheckIdleState>:
  * @brief Check the UART Idle State.
  * @param huart UART handle.
  * @retval HAL status
  */
HAL_StatusTypeDef UART_CheckIdleState(UART_HandleTypeDef *huart)
{
 8004cf8:	b580      	push	{r7, lr}
 8004cfa:	b092      	sub	sp, #72	@ 0x48
 8004cfc:	af02      	add	r7, sp, #8
 8004cfe:	6078      	str	r0, [r7, #4]
  uint32_t tickstart;

  /* Initialize the UART ErrorCode */
  huart->ErrorCode = HAL_UART_ERROR_NONE;
 8004d00:	687b      	ldr	r3, [r7, #4]
 8004d02:	2290      	movs	r2, #144	@ 0x90
 8004d04:	2100      	movs	r1, #0
 8004d06:	5099      	str	r1, [r3, r2]

  /* Init tickstart for timeout management */
  tickstart = HAL_GetTick();
 8004d08:	f7fd f924 	bl	8001f54 <HAL_GetTick>
 8004d0c:	0003      	movs	r3, r0
 8004d0e:	63fb      	str	r3, [r7, #60]	@ 0x3c

  /* Check if the Transmitter is enabled */
  if ((huart->Instance->CR1 & USART_CR1_TE) == USART_CR1_TE)
 8004d10:	687b      	ldr	r3, [r7, #4]
 8004d12:	681b      	ldr	r3, [r3, #0]
 8004d14:	681b      	ldr	r3, [r3, #0]
 8004d16:	2208      	movs	r2, #8
 8004d18:	4013      	ands	r3, r2
 8004d1a:	2b08      	cmp	r3, #8
 8004d1c:	d12d      	bne.n	8004d7a <UART_CheckIdleState+0x82>
  {
    /* Wait until TEACK flag is set */
    if (UART_WaitOnFlagUntilTimeout(huart, USART_ISR_TEACK, RESET, tickstart, HAL_UART_TIMEOUT_VALUE) != HAL_OK)
 8004d1e:	6bfb      	ldr	r3, [r7, #60]	@ 0x3c
 8004d20:	2280      	movs	r2, #128	@ 0x80
 8004d22:	0391      	lsls	r1, r2, #14
 8004d24:	6878      	ldr	r0, [r7, #4]
 8004d26:	4a47      	ldr	r2, [pc, #284]	@ (8004e44 <UART_CheckIdleState+0x14c>)
 8004d28:	9200      	str	r2, [sp, #0]
 8004d2a:	2200      	movs	r2, #0
 8004d2c:	f000 f88e 	bl	8004e4c <UART_WaitOnFlagUntilTimeout>
 8004d30:	1e03      	subs	r3, r0, #0
 8004d32:	d022      	beq.n	8004d7a <UART_CheckIdleState+0x82>
 */
__STATIC_FORCEINLINE uint32_t __get_PRIMASK(void)
{
  uint32_t result;

  __ASM volatile ("MRS %0, primask" : "=r" (result) );
 8004d34:	f3ef 8310 	mrs	r3, PRIMASK
 8004d38:	627b      	str	r3, [r7, #36]	@ 0x24
  return(result);
 8004d3a:	6a7b      	ldr	r3, [r7, #36]	@ 0x24
    {
      /* Disable TXE interrupt for the interrupt process */
      ATOMIC_CLEAR_BIT(huart->Instance->CR1, (USART_CR1_TXEIE_TXFNFIE));
 8004d3c:	63bb      	str	r3, [r7, #56]	@ 0x38
 8004d3e:	2301      	movs	r3, #1
 8004d40:	62bb      	str	r3, [r7, #40]	@ 0x28
  \details Assigns the given value to the Priority Mask Register.
  \param [in]    priMask  Priority Mask
 */
__STATIC_FORCEINLINE void __set_PRIMASK(uint32_t priMask)
{
  __ASM volatile ("MSR primask, %0" : : "r" (priMask) : "memory");
 8004d42:	6abb      	ldr	r3, [r7, #40]	@ 0x28
 8004d44:	f383 8810 	msr	PRIMASK, r3
}
 8004d48:	46c0      	nop			@ (mov r8, r8)
 8004d4a:	687b      	ldr	r3, [r7, #4]
 8004d4c:	681b      	ldr	r3, [r3, #0]
 8004d4e:	681a      	ldr	r2, [r3, #0]
 8004d50:	687b      	ldr	r3, [r7, #4]
 8004d52:	681b      	ldr	r3, [r3, #0]
 8004d54:	2180      	movs	r1, #128	@ 0x80
 8004d56:	438a      	bics	r2, r1
 8004d58:	601a      	str	r2, [r3, #0]
 8004d5a:	6bbb      	ldr	r3, [r7, #56]	@ 0x38
 8004d5c:	62fb      	str	r3, [r7, #44]	@ 0x2c
  __ASM volatile ("MSR primask, %0" : : "r" (priMask) : "memory");
 8004d5e:	6afb      	ldr	r3, [r7, #44]	@ 0x2c
 8004d60:	f383 8810 	msr	PRIMASK, r3
}
 8004d64:	46c0      	nop			@ (mov r8, r8)

      huart->gState = HAL_UART_STATE_READY;
 8004d66:	687b      	ldr	r3, [r7, #4]
 8004d68:	2288      	movs	r2, #136	@ 0x88
 8004d6a:	2120      	movs	r1, #32
 8004d6c:	5099      	str	r1, [r3, r2]

      __HAL_UNLOCK(huart);
 8004d6e:	687b      	ldr	r3, [r7, #4]
 8004d70:	2284      	movs	r2, #132	@ 0x84
 8004d72:	2100      	movs	r1, #0
 8004d74:	5499      	strb	r1, [r3, r2]

      /* Timeout occurred */
      return HAL_TIMEOUT;
 8004d76:	2303      	movs	r3, #3
 8004d78:	e060      	b.n	8004e3c <UART_CheckIdleState+0x144>
    }
  }

  /* Check if the Receiver is enabled */
  if ((huart->Instance->CR1 & USART_CR1_RE) == USART_CR1_RE)
 8004d7a:	687b      	ldr	r3, [r7, #4]
 8004d7c:	681b      	ldr	r3, [r3, #0]
 8004d7e:	681b      	ldr	r3, [r3, #0]
 8004d80:	2204      	movs	r2, #4
 8004d82:	4013      	ands	r3, r2
 8004d84:	2b04      	cmp	r3, #4
 8004d86:	d146      	bne.n	8004e16 <UART_CheckIdleState+0x11e>
  {
    /* Wait until REACK flag is set */
    if (UART_WaitOnFlagUntilTimeout(huart, USART_ISR_REACK, RESET, tickstart, HAL_UART_TIMEOUT_VALUE) != HAL_OK)
 8004d88:	6bfb      	ldr	r3, [r7, #60]	@ 0x3c
 8004d8a:	2280      	movs	r2, #128	@ 0x80
 8004d8c:	03d1      	lsls	r1, r2, #15
 8004d8e:	6878      	ldr	r0, [r7, #4]
 8004d90:	4a2c      	ldr	r2, [pc, #176]	@ (8004e44 <UART_CheckIdleState+0x14c>)
 8004d92:	9200      	str	r2, [sp, #0]
 8004d94:	2200      	movs	r2, #0
 8004d96:	f000 f859 	bl	8004e4c <UART_WaitOnFlagUntilTimeout>
 8004d9a:	1e03      	subs	r3, r0, #0
 8004d9c:	d03b      	beq.n	8004e16 <UART_CheckIdleState+0x11e>
  __ASM volatile ("MRS %0, primask" : "=r" (result) );
 8004d9e:	f3ef 8310 	mrs	r3, PRIMASK
 8004da2:	60fb      	str	r3, [r7, #12]
  return(result);
 8004da4:	68fb      	ldr	r3, [r7, #12]
    {
      /* Disable RXNE, PE and ERR (Frame error, noise error, overrun error)
      interrupts for the interrupt process */
      ATOMIC_CLEAR_BIT(huart->Instance->CR1, (USART_CR1_RXNEIE_RXFNEIE | USART_CR1_PEIE));
 8004da6:	637b      	str	r3, [r7, #52]	@ 0x34
 8004da8:	2301      	movs	r3, #1
 8004daa:	613b      	str	r3, [r7, #16]
  __ASM volatile ("MSR primask, %0" : : "r" (priMask) : "memory");
 8004dac:	693b      	ldr	r3, [r7, #16]
 8004dae:	f383 8810 	msr	PRIMASK, r3
}
 8004db2:	46c0      	nop			@ (mov r8, r8)
 8004db4:	687b      	ldr	r3, [r7, #4]
 8004db6:	681b      	ldr	r3, [r3, #0]
 8004db8:	681a      	ldr	r2, [r3, #0]
 8004dba:	687b      	ldr	r3, [r7, #4]
 8004dbc:	681b      	ldr	r3, [r3, #0]
 8004dbe:	4922      	ldr	r1, [pc, #136]	@ (8004e48 <UART_CheckIdleState+0x150>)
 8004dc0:	400a      	ands	r2, r1
 8004dc2:	601a      	str	r2, [r3, #0]
 8004dc4:	6b7b      	ldr	r3, [r7, #52]	@ 0x34
 8004dc6:	617b      	str	r3, [r7, #20]
  __ASM volatile ("MSR primask, %0" : : "r" (priMask) : "memory");
 8004dc8:	697b      	ldr	r3, [r7, #20]
 8004dca:	f383 8810 	msr	PRIMASK, r3
}
 8004dce:	46c0      	nop			@ (mov r8, r8)
  __ASM volatile ("MRS %0, primask" : "=r" (result) );
 8004dd0:	f3ef 8310 	mrs	r3, PRIMASK
 8004dd4:	61bb      	str	r3, [r7, #24]
  return(result);
 8004dd6:	69bb      	ldr	r3, [r7, #24]
      ATOMIC_CLEAR_BIT(huart->Instance->CR3, USART_CR3_EIE);
 8004dd8:	633b      	str	r3, [r7, #48]	@ 0x30
 8004dda:	2301      	movs	r3, #1
 8004ddc:	61fb      	str	r3, [r7, #28]
  __ASM volatile ("MSR primask, %0" : : "r" (priMask) : "memory");
 8004dde:	69fb      	ldr	r3, [r7, #28]
 8004de0:	f383 8810 	msr	PRIMASK, r3
}
 8004de4:	46c0      	nop			@ (mov r8, r8)
 8004de6:	687b      	ldr	r3, [r7, #4]
 8004de8:	681b      	ldr	r3, [r3, #0]
 8004dea:	689a      	ldr	r2, [r3, #8]
 8004dec:	687b      	ldr	r3, [r7, #4]
 8004dee:	681b      	ldr	r3, [r3, #0]
 8004df0:	2101      	movs	r1, #1
 8004df2:	438a      	bics	r2, r1
 8004df4:	609a      	str	r2, [r3, #8]
 8004df6:	6b3b      	ldr	r3, [r7, #48]	@ 0x30
 8004df8:	623b      	str	r3, [r7, #32]
  __ASM volatile ("MSR primask, %0" : : "r" (priMask) : "memory");
 8004dfa:	6a3b      	ldr	r3, [r7, #32]
 8004dfc:	f383 8810 	msr	PRIMASK, r3
}
 8004e00:	46c0      	nop			@ (mov r8, r8)

      huart->RxState = HAL_UART_STATE_READY;
 8004e02:	687b      	ldr	r3, [r7, #4]
 8004e04:	228c      	movs	r2, #140	@ 0x8c
 8004e06:	2120      	movs	r1, #32
 8004e08:	5099      	str	r1, [r3, r2]

      __HAL_UNLOCK(huart);
 8004e0a:	687b      	ldr	r3, [r7, #4]
 8004e0c:	2284      	movs	r2, #132	@ 0x84
 8004e0e:	2100      	movs	r1, #0
 8004e10:	5499      	strb	r1, [r3, r2]

      /* Timeout occurred */
      return HAL_TIMEOUT;
 8004e12:	2303      	movs	r3, #3
 8004e14:	e012      	b.n	8004e3c <UART_CheckIdleState+0x144>
    }
  }

  /* Initialize the UART State */
  huart->gState = HAL_UART_STATE_READY;
 8004e16:	687b      	ldr	r3, [r7, #4]
 8004e18:	2288      	movs	r2, #136	@ 0x88
 8004e1a:	2120      	movs	r1, #32
 8004e1c:	5099      	str	r1, [r3, r2]
  huart->RxState = HAL_UART_STATE_READY;
 8004e1e:	687b      	ldr	r3, [r7, #4]
 8004e20:	228c      	movs	r2, #140	@ 0x8c
 8004e22:	2120      	movs	r1, #32
 8004e24:	5099      	str	r1, [r3, r2]
  huart->ReceptionType = HAL_UART_RECEPTION_STANDARD;
 8004e26:	687b      	ldr	r3, [r7, #4]
 8004e28:	2200      	movs	r2, #0
 8004e2a:	66da      	str	r2, [r3, #108]	@ 0x6c
  huart->RxEventType = HAL_UART_RXEVENT_TC;
 8004e2c:	687b      	ldr	r3, [r7, #4]
 8004e2e:	2200      	movs	r2, #0
 8004e30:	671a      	str	r2, [r3, #112]	@ 0x70

  __HAL_UNLOCK(huart);
 8004e32:	687b      	ldr	r3, [r7, #4]
 8004e34:	2284      	movs	r2, #132	@ 0x84
 8004e36:	2100      	movs	r1, #0
 8004e38:	5499      	strb	r1, [r3, r2]

  return HAL_OK;
 8004e3a:	2300      	movs	r3, #0
}
 8004e3c:	0018      	movs	r0, r3
 8004e3e:	46bd      	mov	sp, r7
 8004e40:	b010      	add	sp, #64	@ 0x40
 8004e42:	bd80      	pop	{r7, pc}
 8004e44:	01ffffff 	.word	0x01ffffff
 8004e48:	fffffedf 	.word	0xfffffedf

08004e4c <UART_WaitOnFlagUntilTimeout>:
  * @param Timeout   Timeout duration
  * @retval HAL status
  */
HAL_StatusTypeDef UART_WaitOnFlagUntilTimeout(UART_HandleTypeDef *huart, uint32_t Flag, FlagStatus Status,
                                              uint32_t Tickstart, uint32_t Timeout)
{
 8004e4c:	b580      	push	{r7, lr}
 8004e4e:	b084      	sub	sp, #16
 8004e50:	af00      	add	r7, sp, #0
 8004e52:	60f8      	str	r0, [r7, #12]
 8004e54:	60b9      	str	r1, [r7, #8]
 8004e56:	603b      	str	r3, [r7, #0]
 8004e58:	1dfb      	adds	r3, r7, #7
 8004e5a:	701a      	strb	r2, [r3, #0]
  /* Wait until flag is set */
  while ((__HAL_UART_GET_FLAG(huart, Flag) ? SET : RESET) == Status)
 8004e5c:	e051      	b.n	8004f02 <UART_WaitOnFlagUntilTimeout+0xb6>
  {
    /* Check for the Timeout */
    if (Timeout != HAL_MAX_DELAY)
 8004e5e:	69bb      	ldr	r3, [r7, #24]
 8004e60:	3301      	adds	r3, #1
 8004e62:	d04e      	beq.n	8004f02 <UART_WaitOnFlagUntilTimeout+0xb6>
    {
      if (((HAL_GetTick() - Tickstart) > Timeout) || (Timeout == 0U))
 8004e64:	f7fd f876 	bl	8001f54 <HAL_GetTick>
 8004e68:	0002      	movs	r2, r0
 8004e6a:	683b      	ldr	r3, [r7, #0]
 8004e6c:	1ad3      	subs	r3, r2, r3
 8004e6e:	69ba      	ldr	r2, [r7, #24]
 8004e70:	429a      	cmp	r2, r3
 8004e72:	d302      	bcc.n	8004e7a <UART_WaitOnFlagUntilTimeout+0x2e>
 8004e74:	69bb      	ldr	r3, [r7, #24]
 8004e76:	2b00      	cmp	r3, #0
 8004e78:	d101      	bne.n	8004e7e <UART_WaitOnFlagUntilTimeout+0x32>
      {

        return HAL_TIMEOUT;
 8004e7a:	2303      	movs	r3, #3
 8004e7c:	e051      	b.n	8004f22 <UART_WaitOnFlagUntilTimeout+0xd6>
      }

      if ((READ_BIT(huart->Instance->CR1, USART_CR1_RE) != 0U) && (Flag != UART_FLAG_TXE) && (Flag != UART_FLAG_TC))
 8004e7e:	68fb      	ldr	r3, [r7, #12]
 8004e80:	681b      	ldr	r3, [r3, #0]
 8004e82:	681b      	ldr	r3, [r3, #0]
 8004e84:	2204      	movs	r2, #4
 8004e86:	4013      	ands	r3, r2
 8004e88:	d03b      	beq.n	8004f02 <UART_WaitOnFlagUntilTimeout+0xb6>
 8004e8a:	68bb      	ldr	r3, [r7, #8]
 8004e8c:	2b80      	cmp	r3, #128	@ 0x80
 8004e8e:	d038      	beq.n	8004f02 <UART_WaitOnFlagUntilTimeout+0xb6>
 8004e90:	68bb      	ldr	r3, [r7, #8]
 8004e92:	2b40      	cmp	r3, #64	@ 0x40
 8004e94:	d035      	beq.n	8004f02 <UART_WaitOnFlagUntilTimeout+0xb6>
      {
        if (__HAL_UART_GET_FLAG(huart, UART_FLAG_ORE) == SET)
 8004e96:	68fb      	ldr	r3, [r7, #12]
 8004e98:	681b      	ldr	r3, [r3, #0]
 8004e9a:	69db      	ldr	r3, [r3, #28]
 8004e9c:	2208      	movs	r2, #8
 8004e9e:	4013      	ands	r3, r2
 8004ea0:	2b08      	cmp	r3, #8
 8004ea2:	d111      	bne.n	8004ec8 <UART_WaitOnFlagUntilTimeout+0x7c>
        {
          /* Clear Overrun Error flag*/
          __HAL_UART_CLEAR_FLAG(huart, UART_CLEAR_OREF);
 8004ea4:	68fb      	ldr	r3, [r7, #12]
 8004ea6:	681b      	ldr	r3, [r3, #0]
 8004ea8:	2208      	movs	r2, #8
 8004eaa:	621a      	str	r2, [r3, #32]

          /* Blocking error : transfer is aborted
          Set the UART state ready to be able to start again the process,
          Disable Rx Interrupts if ongoing */
          UART_EndRxTransfer(huart);
 8004eac:	68fb      	ldr	r3, [r7, #12]
 8004eae:	0018      	movs	r0, r3
 8004eb0:	f000 f83c 	bl	8004f2c <UART_EndRxTransfer>

          huart->ErrorCode = HAL_UART_ERROR_ORE;
 8004eb4:	68fb      	ldr	r3, [r7, #12]
 8004eb6:	2290      	movs	r2, #144	@ 0x90
 8004eb8:	2108      	movs	r1, #8
 8004eba:	5099      	str	r1, [r3, r2]

          /* Process Unlocked */
          __HAL_UNLOCK(huart);
 8004ebc:	68fb      	ldr	r3, [r7, #12]
 8004ebe:	2284      	movs	r2, #132	@ 0x84
 8004ec0:	2100      	movs	r1, #0
 8004ec2:	5499      	strb	r1, [r3, r2]

          return HAL_ERROR;
 8004ec4:	2301      	movs	r3, #1
 8004ec6:	e02c      	b.n	8004f22 <UART_WaitOnFlagUntilTimeout+0xd6>
        }
        if (__HAL_UART_GET_FLAG(huart, UART_FLAG_RTOF) == SET)
 8004ec8:	68fb      	ldr	r3, [r7, #12]
 8004eca:	681b      	ldr	r3, [r3, #0]
 8004ecc:	69da      	ldr	r2, [r3, #28]
 8004ece:	2380      	movs	r3, #128	@ 0x80
 8004ed0:	011b      	lsls	r3, r3, #4
 8004ed2:	401a      	ands	r2, r3
 8004ed4:	2380      	movs	r3, #128	@ 0x80
 8004ed6:	011b      	lsls	r3, r3, #4
 8004ed8:	429a      	cmp	r2, r3
 8004eda:	d112      	bne.n	8004f02 <UART_WaitOnFlagUntilTimeout+0xb6>
        {
          /* Clear Receiver Timeout flag*/
          __HAL_UART_CLEAR_FLAG(huart, UART_CLEAR_RTOF);
 8004edc:	68fb      	ldr	r3, [r7, #12]
 8004ede:	681b      	ldr	r3, [r3, #0]
 8004ee0:	2280      	movs	r2, #128	@ 0x80
 8004ee2:	0112      	lsls	r2, r2, #4
 8004ee4:	621a      	str	r2, [r3, #32]

          /* Blocking error : transfer is aborted
          Set the UART state ready to be able to start again the process,
          Disable Rx Interrupts if ongoing */
          UART_EndRxTransfer(huart);
 8004ee6:	68fb      	ldr	r3, [r7, #12]
 8004ee8:	0018      	movs	r0, r3
 8004eea:	f000 f81f 	bl	8004f2c <UART_EndRxTransfer>

          huart->ErrorCode = HAL_UART_ERROR_RTO;
 8004eee:	68fb      	ldr	r3, [r7, #12]
 8004ef0:	2290      	movs	r2, #144	@ 0x90
 8004ef2:	2120      	movs	r1, #32
 8004ef4:	5099      	str	r1, [r3, r2]

          /* Process Unlocked */
          __HAL_UNLOCK(huart);
 8004ef6:	68fb      	ldr	r3, [r7, #12]
 8004ef8:	2284      	movs	r2, #132	@ 0x84
 8004efa:	2100      	movs	r1, #0
 8004efc:	5499      	strb	r1, [r3, r2]

          return HAL_TIMEOUT;
 8004efe:	2303      	movs	r3, #3
 8004f00:	e00f      	b.n	8004f22 <UART_WaitOnFlagUntilTimeout+0xd6>
  while ((__HAL_UART_GET_FLAG(huart, Flag) ? SET : RESET) == Status)
 8004f02:	68fb      	ldr	r3, [r7, #12]
 8004f04:	681b      	ldr	r3, [r3, #0]
 8004f06:	69db      	ldr	r3, [r3, #28]
 8004f08:	68ba      	ldr	r2, [r7, #8]
 8004f0a:	4013      	ands	r3, r2
 8004f0c:	68ba      	ldr	r2, [r7, #8]
 8004f0e:	1ad3      	subs	r3, r2, r3
 8004f10:	425a      	negs	r2, r3
 8004f12:	4153      	adcs	r3, r2
 8004f14:	b2db      	uxtb	r3, r3
 8004f16:	001a      	movs	r2, r3
 8004f18:	1dfb      	adds	r3, r7, #7
 8004f1a:	781b      	ldrb	r3, [r3, #0]
 8004f1c:	429a      	cmp	r2, r3
 8004f1e:	d09e      	beq.n	8004e5e <UART_WaitOnFlagUntilTimeout+0x12>
        }
      }
    }
  }
  return HAL_OK;
 8004f20:	2300      	movs	r3, #0
}
 8004f22:	0018      	movs	r0, r3
 8004f24:	46bd      	mov	sp, r7
 8004f26:	b004      	add	sp, #16
 8004f28:	bd80      	pop	{r7, pc}
	...

08004f2c <UART_EndRxTransfer>:
  * @brief  End ongoing Rx transfer on UART peripheral (following error detection or Reception completion).
  * @param  huart UART handle.
  * @retval None
  */
static void UART_EndRxTransfer(UART_HandleTypeDef *huart)
{
 8004f2c:	b580      	push	{r7, lr}
 8004f2e:	b08e      	sub	sp, #56	@ 0x38
 8004f30:	af00      	add	r7, sp, #0
 8004f32:	6078      	str	r0, [r7, #4]
  __ASM volatile ("MRS %0, primask" : "=r" (result) );
 8004f34:	f3ef 8310 	mrs	r3, PRIMASK
 8004f38:	617b      	str	r3, [r7, #20]
  return(result);
 8004f3a:	697b      	ldr	r3, [r7, #20]
  /* Disable RXNE, PE and ERR (Frame error, noise error, overrun error) interrupts */
  ATOMIC_CLEAR_BIT(huart->Instance->CR1, (USART_CR1_RXNEIE_RXFNEIE | USART_CR1_PEIE));
 8004f3c:	637b      	str	r3, [r7, #52]	@ 0x34
 8004f3e:	2301      	movs	r3, #1
 8004f40:	61bb      	str	r3, [r7, #24]
  __ASM volatile ("MSR primask, %0" : : "r" (priMask) : "memory");
 8004f42:	69bb      	ldr	r3, [r7, #24]
 8004f44:	f383 8810 	msr	PRIMASK, r3
}
 8004f48:	46c0      	nop			@ (mov r8, r8)
 8004f4a:	687b      	ldr	r3, [r7, #4]
 8004f4c:	681b      	ldr	r3, [r3, #0]
 8004f4e:	681a      	ldr	r2, [r3, #0]
 8004f50:	687b      	ldr	r3, [r7, #4]
 8004f52:	681b      	ldr	r3, [r3, #0]
 8004f54:	4926      	ldr	r1, [pc, #152]	@ (8004ff0 <UART_EndRxTransfer+0xc4>)
 8004f56:	400a      	ands	r2, r1
 8004f58:	601a      	str	r2, [r3, #0]
 8004f5a:	6b7b      	ldr	r3, [r7, #52]	@ 0x34
 8004f5c:	61fb      	str	r3, [r7, #28]
  __ASM volatile ("MSR primask, %0" : : "r" (priMask) : "memory");
 8004f5e:	69fb      	ldr	r3, [r7, #28]
 8004f60:	f383 8810 	msr	PRIMASK, r3
}
 8004f64:	46c0      	nop			@ (mov r8, r8)
  __ASM volatile ("MRS %0, primask" : "=r" (result) );
 8004f66:	f3ef 8310 	mrs	r3, PRIMASK
 8004f6a:	623b      	str	r3, [r7, #32]
  return(result);
 8004f6c:	6a3b      	ldr	r3, [r7, #32]
  ATOMIC_CLEAR_BIT(huart->Instance->CR3, (USART_CR3_EIE | USART_CR3_RXFTIE));
 8004f6e:	633b      	str	r3, [r7, #48]	@ 0x30
 8004f70:	2301      	movs	r3, #1
 8004f72:	627b      	str	r3, [r7, #36]	@ 0x24
  __ASM volatile ("MSR primask, %0" : : "r" (priMask) : "memory");
 8004f74:	6a7b      	ldr	r3, [r7, #36]	@ 0x24
 8004f76:	f383 8810 	msr	PRIMASK, r3
}
 8004f7a:	46c0      	nop			@ (mov r8, r8)
 8004f7c:	687b      	ldr	r3, [r7, #4]
 8004f7e:	681b      	ldr	r3, [r3, #0]
 8004f80:	689a      	ldr	r2, [r3, #8]
 8004f82:	687b      	ldr	r3, [r7, #4]
 8004f84:	681b      	ldr	r3, [r3, #0]
 8004f86:	491b      	ldr	r1, [pc, #108]	@ (8004ff4 <UART_EndRxTransfer+0xc8>)
 8004f88:	400a      	ands	r2, r1
 8004f8a:	609a      	str	r2, [r3, #8]
 8004f8c:	6b3b      	ldr	r3, [r7, #48]	@ 0x30
 8004f8e:	62bb      	str	r3, [r7, #40]	@ 0x28
  __ASM volatile ("MSR primask, %0" : : "r" (priMask) : "memory");
 8004f90:	6abb      	ldr	r3, [r7, #40]	@ 0x28
 8004f92:	f383 8810 	msr	PRIMASK, r3
}
 8004f96:	46c0      	nop			@ (mov r8, r8)

  /* In case of reception waiting for IDLE event, disable also the IDLE IE interrupt source */
  if (huart->ReceptionType == HAL_UART_RECEPTION_TOIDLE)
 8004f98:	687b      	ldr	r3, [r7, #4]
 8004f9a:	6edb      	ldr	r3, [r3, #108]	@ 0x6c
 8004f9c:	2b01      	cmp	r3, #1
 8004f9e:	d118      	bne.n	8004fd2 <UART_EndRxTransfer+0xa6>
  __ASM volatile ("MRS %0, primask" : "=r" (result) );
 8004fa0:	f3ef 8310 	mrs	r3, PRIMASK
 8004fa4:	60bb      	str	r3, [r7, #8]
  return(result);
 8004fa6:	68bb      	ldr	r3, [r7, #8]
  {
    ATOMIC_CLEAR_BIT(huart->Instance->CR1, USART_CR1_IDLEIE);
 8004fa8:	62fb      	str	r3, [r7, #44]	@ 0x2c
 8004faa:	2301      	movs	r3, #1
 8004fac:	60fb      	str	r3, [r7, #12]
  __ASM volatile ("MSR primask, %0" : : "r" (priMask) : "memory");
 8004fae:	68fb      	ldr	r3, [r7, #12]
 8004fb0:	f383 8810 	msr	PRIMASK, r3
}
 8004fb4:	46c0      	nop			@ (mov r8, r8)
 8004fb6:	687b      	ldr	r3, [r7, #4]
 8004fb8:	681b      	ldr	r3, [r3, #0]
 8004fba:	681a      	ldr	r2, [r3, #0]
 8004fbc:	687b      	ldr	r3, [r7, #4]
 8004fbe:	681b      	ldr	r3, [r3, #0]
 8004fc0:	2110      	movs	r1, #16
 8004fc2:	438a      	bics	r2, r1
 8004fc4:	601a      	str	r2, [r3, #0]
 8004fc6:	6afb      	ldr	r3, [r7, #44]	@ 0x2c
 8004fc8:	613b      	str	r3, [r7, #16]
  __ASM volatile ("MSR primask, %0" : : "r" (priMask) : "memory");
 8004fca:	693b      	ldr	r3, [r7, #16]
 8004fcc:	f383 8810 	msr	PRIMASK, r3
}
 8004fd0:	46c0      	nop			@ (mov r8, r8)
  }

  /* At end of Rx process, restore huart->RxState to Ready */
  huart->RxState = HAL_UART_STATE_READY;
 8004fd2:	687b      	ldr	r3, [r7, #4]
 8004fd4:	228c      	movs	r2, #140	@ 0x8c
 8004fd6:	2120      	movs	r1, #32
 8004fd8:	5099      	str	r1, [r3, r2]
  huart->ReceptionType = HAL_UART_RECEPTION_STANDARD;
 8004fda:	687b      	ldr	r3, [r7, #4]
 8004fdc:	2200      	movs	r2, #0
 8004fde:	66da      	str	r2, [r3, #108]	@ 0x6c

  /* Reset RxIsr function pointer */
  huart->RxISR = NULL;
 8004fe0:	687b      	ldr	r3, [r7, #4]
 8004fe2:	2200      	movs	r2, #0
 8004fe4:	675a      	str	r2, [r3, #116]	@ 0x74
}
 8004fe6:	46c0      	nop			@ (mov r8, r8)
 8004fe8:	46bd      	mov	sp, r7
 8004fea:	b00e      	add	sp, #56	@ 0x38
 8004fec:	bd80      	pop	{r7, pc}
 8004fee:	46c0      	nop			@ (mov r8, r8)
 8004ff0:	fffffedf 	.word	0xfffffedf
 8004ff4:	effffffe 	.word	0xeffffffe

08004ff8 <HAL_UARTEx_DisableFifoMode>:
  * @brief  Disable the FIFO mode.
  * @param huart      UART handle.
  * @retval HAL status
  */
HAL_StatusTypeDef HAL_UARTEx_DisableFifoMode(UART_HandleTypeDef *huart)
{
 8004ff8:	b580      	push	{r7, lr}
 8004ffa:	b084      	sub	sp, #16
 8004ffc:	af00      	add	r7, sp, #0
 8004ffe:	6078      	str	r0, [r7, #4]

  /* Check parameters */
  assert_param(IS_UART_FIFO_INSTANCE(huart->Instance));

  /* Process Locked */
  __HAL_LOCK(huart);
 8005000:	687b      	ldr	r3, [r7, #4]
 8005002:	2284      	movs	r2, #132	@ 0x84
 8005004:	5c9b      	ldrb	r3, [r3, r2]
 8005006:	2b01      	cmp	r3, #1
 8005008:	d101      	bne.n	800500e <HAL_UARTEx_DisableFifoMode+0x16>
 800500a:	2302      	movs	r3, #2
 800500c:	e027      	b.n	800505e <HAL_UARTEx_DisableFifoMode+0x66>
 800500e:	687b      	ldr	r3, [r7, #4]
 8005010:	2284      	movs	r2, #132	@ 0x84
 8005012:	2101      	movs	r1, #1
 8005014:	5499      	strb	r1, [r3, r2]

  huart->gState = HAL_UART_STATE_BUSY;
 8005016:	687b      	ldr	r3, [r7, #4]
 8005018:	2288      	movs	r2, #136	@ 0x88
 800501a:	2124      	movs	r1, #36	@ 0x24
 800501c:	5099      	str	r1, [r3, r2]

  /* Save actual UART configuration */
  tmpcr1 = READ_REG(huart->Instance->CR1);
 800501e:	687b      	ldr	r3, [r7, #4]
 8005020:	681b      	ldr	r3, [r3, #0]
 8005022:	681b      	ldr	r3, [r3, #0]
 8005024:	60fb      	str	r3, [r7, #12]

  /* Disable UART */
  __HAL_UART_DISABLE(huart);
 8005026:	687b      	ldr	r3, [r7, #4]
 8005028:	681b      	ldr	r3, [r3, #0]
 800502a:	681a      	ldr	r2, [r3, #0]
 800502c:	687b      	ldr	r3, [r7, #4]
 800502e:	681b      	ldr	r3, [r3, #0]
 8005030:	2101      	movs	r1, #1
 8005032:	438a      	bics	r2, r1
 8005034:	601a      	str	r2, [r3, #0]

  /* Disable FIFO mode */
  CLEAR_BIT(tmpcr1, USART_CR1_FIFOEN);
 8005036:	68fb      	ldr	r3, [r7, #12]
 8005038:	4a0b      	ldr	r2, [pc, #44]	@ (8005068 <HAL_UARTEx_DisableFifoMode+0x70>)
 800503a:	4013      	ands	r3, r2
 800503c:	60fb      	str	r3, [r7, #12]
  huart->FifoMode = UART_FIFOMODE_DISABLE;
 800503e:	687b      	ldr	r3, [r7, #4]
 8005040:	2200      	movs	r2, #0
 8005042:	665a      	str	r2, [r3, #100]	@ 0x64

  /* Restore UART configuration */
  WRITE_REG(huart->Instance->CR1, tmpcr1);
 8005044:	687b      	ldr	r3, [r7, #4]
 8005046:	681b      	ldr	r3, [r3, #0]
 8005048:	68fa      	ldr	r2, [r7, #12]
 800504a:	601a      	str	r2, [r3, #0]

  huart->gState = HAL_UART_STATE_READY;
 800504c:	687b      	ldr	r3, [r7, #4]
 800504e:	2288      	movs	r2, #136	@ 0x88
 8005050:	2120      	movs	r1, #32
 8005052:	5099      	str	r1, [r3, r2]

  /* Process Unlocked */
  __HAL_UNLOCK(huart);
 8005054:	687b      	ldr	r3, [r7, #4]
 8005056:	2284      	movs	r2, #132	@ 0x84
 8005058:	2100      	movs	r1, #0
 800505a:	5499      	strb	r1, [r3, r2]

  return HAL_OK;
 800505c:	2300      	movs	r3, #0
}
 800505e:	0018      	movs	r0, r3
 8005060:	46bd      	mov	sp, r7
 8005062:	b004      	add	sp, #16
 8005064:	bd80      	pop	{r7, pc}
 8005066:	46c0      	nop			@ (mov r8, r8)
 8005068:	dfffffff 	.word	0xdfffffff

0800506c <HAL_UARTEx_SetTxFifoThreshold>:
  *            @arg @ref UART_TXFIFO_THRESHOLD_7_8
  *            @arg @ref UART_TXFIFO_THRESHOLD_8_8
  * @retval HAL status
  */
HAL_StatusTypeDef HAL_UARTEx_SetTxFifoThreshold(UART_HandleTypeDef *huart, uint32_t Threshold)
{
 800506c:	b580      	push	{r7, lr}
 800506e:	b084      	sub	sp, #16
 8005070:	af00      	add	r7, sp, #0
 8005072:	6078      	str	r0, [r7, #4]
 8005074:	6039      	str	r1, [r7, #0]
  /* Check parameters */
  assert_param(IS_UART_FIFO_INSTANCE(huart->Instance));
  assert_param(IS_UART_TXFIFO_THRESHOLD(Threshold));

  /* Process Locked */
  __HAL_LOCK(huart);
 8005076:	687b      	ldr	r3, [r7, #4]
 8005078:	2284      	movs	r2, #132	@ 0x84
 800507a:	5c9b      	ldrb	r3, [r3, r2]
 800507c:	2b01      	cmp	r3, #1
 800507e:	d101      	bne.n	8005084 <HAL_UARTEx_SetTxFifoThreshold+0x18>
 8005080:	2302      	movs	r3, #2
 8005082:	e02e      	b.n	80050e2 <HAL_UARTEx_SetTxFifoThreshold+0x76>
 8005084:	687b      	ldr	r3, [r7, #4]
 8005086:	2284      	movs	r2, #132	@ 0x84
 8005088:	2101      	movs	r1, #1
 800508a:	5499      	strb	r1, [r3, r2]

  huart->gState = HAL_UART_STATE_BUSY;
 800508c:	687b      	ldr	r3, [r7, #4]
 800508e:	2288      	movs	r2, #136	@ 0x88
 8005090:	2124      	movs	r1, #36	@ 0x24
 8005092:	5099      	str	r1, [r3, r2]

  /* Save actual UART configuration */
  tmpcr1 = READ_REG(huart->Instance->CR1);
 8005094:	687b      	ldr	r3, [r7, #4]
 8005096:	681b      	ldr	r3, [r3, #0]
 8005098:	681b      	ldr	r3, [r3, #0]
 800509a:	60fb      	str	r3, [r7, #12]

  /* Disable UART */
  __HAL_UART_DISABLE(huart);
 800509c:	687b      	ldr	r3, [r7, #4]
 800509e:	681b      	ldr	r3, [r3, #0]
 80050a0:	681a      	ldr	r2, [r3, #0]
 80050a2:	687b      	ldr	r3, [r7, #4]
 80050a4:	681b      	ldr	r3, [r3, #0]
 80050a6:	2101      	movs	r1, #1
 80050a8:	438a      	bics	r2, r1
 80050aa:	601a      	str	r2, [r3, #0]

  /* Update TX threshold configuration */
  MODIFY_REG(huart->Instance->CR3, USART_CR3_TXFTCFG, Threshold);
 80050ac:	687b      	ldr	r3, [r7, #4]
 80050ae:	681b      	ldr	r3, [r3, #0]
 80050b0:	689b      	ldr	r3, [r3, #8]
 80050b2:	00db      	lsls	r3, r3, #3
 80050b4:	08d9      	lsrs	r1, r3, #3
 80050b6:	687b      	ldr	r3, [r7, #4]
 80050b8:	681b      	ldr	r3, [r3, #0]
 80050ba:	683a      	ldr	r2, [r7, #0]
 80050bc:	430a      	orrs	r2, r1
 80050be:	609a      	str	r2, [r3, #8]

  /* Determine the number of data to process during RX/TX ISR execution */
  UARTEx_SetNbDataToProcess(huart);
 80050c0:	687b      	ldr	r3, [r7, #4]
 80050c2:	0018      	movs	r0, r3
 80050c4:	f000 f854 	bl	8005170 <UARTEx_SetNbDataToProcess>

  /* Restore UART configuration */
  WRITE_REG(huart->Instance->CR1, tmpcr1);
 80050c8:	687b      	ldr	r3, [r7, #4]
 80050ca:	681b      	ldr	r3, [r3, #0]
 80050cc:	68fa      	ldr	r2, [r7, #12]
 80050ce:	601a      	str	r2, [r3, #0]

  huart->gState = HAL_UART_STATE_READY;
 80050d0:	687b      	ldr	r3, [r7, #4]
 80050d2:	2288      	movs	r2, #136	@ 0x88
 80050d4:	2120      	movs	r1, #32
 80050d6:	5099      	str	r1, [r3, r2]

  /* Process Unlocked */
  __HAL_UNLOCK(huart);
 80050d8:	687b      	ldr	r3, [r7, #4]
 80050da:	2284      	movs	r2, #132	@ 0x84
 80050dc:	2100      	movs	r1, #0
 80050de:	5499      	strb	r1, [r3, r2]

  return HAL_OK;
 80050e0:	2300      	movs	r3, #0
}
 80050e2:	0018      	movs	r0, r3
 80050e4:	46bd      	mov	sp, r7
 80050e6:	b004      	add	sp, #16
 80050e8:	bd80      	pop	{r7, pc}
	...

080050ec <HAL_UARTEx_SetRxFifoThreshold>:
  *            @arg @ref UART_RXFIFO_THRESHOLD_7_8
  *            @arg @ref UART_RXFIFO_THRESHOLD_8_8
  * @retval HAL status
  */
HAL_StatusTypeDef HAL_UARTEx_SetRxFifoThreshold(UART_HandleTypeDef *huart, uint32_t Threshold)
{
 80050ec:	b580      	push	{r7, lr}
 80050ee:	b084      	sub	sp, #16
 80050f0:	af00      	add	r7, sp, #0
 80050f2:	6078      	str	r0, [r7, #4]
 80050f4:	6039      	str	r1, [r7, #0]
  /* Check the parameters */
  assert_param(IS_UART_FIFO_INSTANCE(huart->Instance));
  assert_param(IS_UART_RXFIFO_THRESHOLD(Threshold));

  /* Process Locked */
  __HAL_LOCK(huart);
 80050f6:	687b      	ldr	r3, [r7, #4]
 80050f8:	2284      	movs	r2, #132	@ 0x84
 80050fa:	5c9b      	ldrb	r3, [r3, r2]
 80050fc:	2b01      	cmp	r3, #1
 80050fe:	d101      	bne.n	8005104 <HAL_UARTEx_SetRxFifoThreshold+0x18>
 8005100:	2302      	movs	r3, #2
 8005102:	e02f      	b.n	8005164 <HAL_UARTEx_SetRxFifoThreshold+0x78>
 8005104:	687b      	ldr	r3, [r7, #4]
 8005106:	2284      	movs	r2, #132	@ 0x84
 8005108:	2101      	movs	r1, #1
 800510a:	5499      	strb	r1, [r3, r2]

  huart->gState = HAL_UART_STATE_BUSY;
 800510c:	687b      	ldr	r3, [r7, #4]
 800510e:	2288      	movs	r2, #136	@ 0x88
 8005110:	2124      	movs	r1, #36	@ 0x24
 8005112:	5099      	str	r1, [r3, r2]

  /* Save actual UART configuration */
  tmpcr1 = READ_REG(huart->Instance->CR1);
 8005114:	687b      	ldr	r3, [r7, #4]
 8005116:	681b      	ldr	r3, [r3, #0]
 8005118:	681b      	ldr	r3, [r3, #0]
 800511a:	60fb      	str	r3, [r7, #12]

  /* Disable UART */
  __HAL_UART_DISABLE(huart);
 800511c:	687b      	ldr	r3, [r7, #4]
 800511e:	681b      	ldr	r3, [r3, #0]
 8005120:	681a      	ldr	r2, [r3, #0]
 8005122:	687b      	ldr	r3, [r7, #4]
 8005124:	681b      	ldr	r3, [r3, #0]
 8005126:	2101      	movs	r1, #1
 8005128:	438a      	bics	r2, r1
 800512a:	601a      	str	r2, [r3, #0]

  /* Update RX threshold configuration */
  MODIFY_REG(huart->Instance->CR3, USART_CR3_RXFTCFG, Threshold);
 800512c:	687b      	ldr	r3, [r7, #4]
 800512e:	681b      	ldr	r3, [r3, #0]
 8005130:	689b      	ldr	r3, [r3, #8]
 8005132:	4a0e      	ldr	r2, [pc, #56]	@ (800516c <HAL_UARTEx_SetRxFifoThreshold+0x80>)
 8005134:	4013      	ands	r3, r2
 8005136:	0019      	movs	r1, r3
 8005138:	687b      	ldr	r3, [r7, #4]
 800513a:	681b      	ldr	r3, [r3, #0]
 800513c:	683a      	ldr	r2, [r7, #0]
 800513e:	430a      	orrs	r2, r1
 8005140:	609a      	str	r2, [r3, #8]

  /* Determine the number of data to process during RX/TX ISR execution */
  UARTEx_SetNbDataToProcess(huart);
 8005142:	687b      	ldr	r3, [r7, #4]
 8005144:	0018      	movs	r0, r3
 8005146:	f000 f813 	bl	8005170 <UARTEx_SetNbDataToProcess>

  /* Restore UART configuration */
  WRITE_REG(huart->Instance->CR1, tmpcr1);
 800514a:	687b      	ldr	r3, [r7, #4]
 800514c:	681b      	ldr	r3, [r3, #0]
 800514e:	68fa      	ldr	r2, [r7, #12]
 8005150:	601a      	str	r2, [r3, #0]

  huart->gState = HAL_UART_STATE_READY;
 8005152:	687b      	ldr	r3, [r7, #4]
 8005154:	2288      	movs	r2, #136	@ 0x88
 8005156:	2120      	movs	r1, #32
 8005158:	5099      	str	r1, [r3, r2]

  /* Process Unlocked */
  __HAL_UNLOCK(huart);
 800515a:	687b      	ldr	r3, [r7, #4]
 800515c:	2284      	movs	r2, #132	@ 0x84
 800515e:	2100      	movs	r1, #0
 8005160:	5499      	strb	r1, [r3, r2]

  return HAL_OK;
 8005162:	2300      	movs	r3, #0
}
 8005164:	0018      	movs	r0, r3
 8005166:	46bd      	mov	sp, r7
 8005168:	b004      	add	sp, #16
 800516a:	bd80      	pop	{r7, pc}
 800516c:	f1ffffff 	.word	0xf1ffffff

08005170 <UARTEx_SetNbDataToProcess>:
  *       the UART configuration registers.
  * @param huart UART handle.
  * @retval None
  */
static void UARTEx_SetNbDataToProcess(UART_HandleTypeDef *huart)
{
 8005170:	b5f0      	push	{r4, r5, r6, r7, lr}
 8005172:	b085      	sub	sp, #20
 8005174:	af00      	add	r7, sp, #0
 8005176:	6078      	str	r0, [r7, #4]
  uint8_t rx_fifo_threshold;
  uint8_t tx_fifo_threshold;
  static const uint8_t numerator[] = {1U, 1U, 1U, 3U, 7U, 1U, 0U, 0U};
  static const uint8_t denominator[] = {8U, 4U, 2U, 4U, 8U, 1U, 1U, 1U};

  if (huart->FifoMode == UART_FIFOMODE_DISABLE)
 8005178:	687b      	ldr	r3, [r7, #4]
 800517a:	6e5b      	ldr	r3, [r3, #100]	@ 0x64
 800517c:	2b00      	cmp	r3, #0
 800517e:	d108      	bne.n	8005192 <UARTEx_SetNbDataToProcess+0x22>
  {
    huart->NbTxDataToProcess = 1U;
 8005180:	687b      	ldr	r3, [r7, #4]
 8005182:	226a      	movs	r2, #106	@ 0x6a
 8005184:	2101      	movs	r1, #1
 8005186:	5299      	strh	r1, [r3, r2]
    huart->NbRxDataToProcess = 1U;
 8005188:	687b      	ldr	r3, [r7, #4]
 800518a:	2268      	movs	r2, #104	@ 0x68
 800518c:	2101      	movs	r1, #1
 800518e:	5299      	strh	r1, [r3, r2]
    huart->NbTxDataToProcess = ((uint16_t)tx_fifo_depth * numerator[tx_fifo_threshold]) /
                               (uint16_t)denominator[tx_fifo_threshold];
    huart->NbRxDataToProcess = ((uint16_t)rx_fifo_depth * numerator[rx_fifo_threshold]) /
                               (uint16_t)denominator[rx_fifo_threshold];
  }
}
 8005190:	e043      	b.n	800521a <UARTEx_SetNbDataToProcess+0xaa>
    rx_fifo_depth = RX_FIFO_DEPTH;
 8005192:	260f      	movs	r6, #15
 8005194:	19bb      	adds	r3, r7, r6
 8005196:	2208      	movs	r2, #8
 8005198:	701a      	strb	r2, [r3, #0]
    tx_fifo_depth = TX_FIFO_DEPTH;
 800519a:	200e      	movs	r0, #14
 800519c:	183b      	adds	r3, r7, r0
 800519e:	2208      	movs	r2, #8
 80051a0:	701a      	strb	r2, [r3, #0]
    rx_fifo_threshold = (uint8_t)(READ_BIT(huart->Instance->CR3, USART_CR3_RXFTCFG) >> USART_CR3_RXFTCFG_Pos);
 80051a2:	687b      	ldr	r3, [r7, #4]
 80051a4:	681b      	ldr	r3, [r3, #0]
 80051a6:	689b      	ldr	r3, [r3, #8]
 80051a8:	0e5b      	lsrs	r3, r3, #25
 80051aa:	b2da      	uxtb	r2, r3
 80051ac:	240d      	movs	r4, #13
 80051ae:	193b      	adds	r3, r7, r4
 80051b0:	2107      	movs	r1, #7
 80051b2:	400a      	ands	r2, r1
 80051b4:	701a      	strb	r2, [r3, #0]
    tx_fifo_threshold = (uint8_t)(READ_BIT(huart->Instance->CR3, USART_CR3_TXFTCFG) >> USART_CR3_TXFTCFG_Pos);
 80051b6:	687b      	ldr	r3, [r7, #4]
 80051b8:	681b      	ldr	r3, [r3, #0]
 80051ba:	689b      	ldr	r3, [r3, #8]
 80051bc:	0f5b      	lsrs	r3, r3, #29
 80051be:	b2da      	uxtb	r2, r3
 80051c0:	250c      	movs	r5, #12
 80051c2:	197b      	adds	r3, r7, r5
 80051c4:	2107      	movs	r1, #7
 80051c6:	400a      	ands	r2, r1
 80051c8:	701a      	strb	r2, [r3, #0]
    huart->NbTxDataToProcess = ((uint16_t)tx_fifo_depth * numerator[tx_fifo_threshold]) /
 80051ca:	183b      	adds	r3, r7, r0
 80051cc:	781b      	ldrb	r3, [r3, #0]
 80051ce:	197a      	adds	r2, r7, r5
 80051d0:	7812      	ldrb	r2, [r2, #0]
 80051d2:	4914      	ldr	r1, [pc, #80]	@ (8005224 <UARTEx_SetNbDataToProcess+0xb4>)
 80051d4:	5c8a      	ldrb	r2, [r1, r2]
 80051d6:	435a      	muls	r2, r3
 80051d8:	0010      	movs	r0, r2
                               (uint16_t)denominator[tx_fifo_threshold];
 80051da:	197b      	adds	r3, r7, r5
 80051dc:	781b      	ldrb	r3, [r3, #0]
 80051de:	4a12      	ldr	r2, [pc, #72]	@ (8005228 <UARTEx_SetNbDataToProcess+0xb8>)
 80051e0:	5cd3      	ldrb	r3, [r2, r3]
    huart->NbTxDataToProcess = ((uint16_t)tx_fifo_depth * numerator[tx_fifo_threshold]) /
 80051e2:	0019      	movs	r1, r3
 80051e4:	f7fb f82c 	bl	8000240 <__divsi3>
 80051e8:	0003      	movs	r3, r0
 80051ea:	b299      	uxth	r1, r3
 80051ec:	687b      	ldr	r3, [r7, #4]
 80051ee:	226a      	movs	r2, #106	@ 0x6a
 80051f0:	5299      	strh	r1, [r3, r2]
    huart->NbRxDataToProcess = ((uint16_t)rx_fifo_depth * numerator[rx_fifo_threshold]) /
 80051f2:	19bb      	adds	r3, r7, r6
 80051f4:	781b      	ldrb	r3, [r3, #0]
 80051f6:	193a      	adds	r2, r7, r4
 80051f8:	7812      	ldrb	r2, [r2, #0]
 80051fa:	490a      	ldr	r1, [pc, #40]	@ (8005224 <UARTEx_SetNbDataToProcess+0xb4>)
 80051fc:	5c8a      	ldrb	r2, [r1, r2]
 80051fe:	435a      	muls	r2, r3
 8005200:	0010      	movs	r0, r2
                               (uint16_t)denominator[rx_fifo_threshold];
 8005202:	193b      	adds	r3, r7, r4
 8005204:	781b      	ldrb	r3, [r3, #0]
 8005206:	4a08      	ldr	r2, [pc, #32]	@ (8005228 <UARTEx_SetNbDataToProcess+0xb8>)
 8005208:	5cd3      	ldrb	r3, [r2, r3]
    huart->NbRxDataToProcess = ((uint16_t)rx_fifo_depth * numerator[rx_fifo_threshold]) /
 800520a:	0019      	movs	r1, r3
 800520c:	f7fb f818 	bl	8000240 <__divsi3>
 8005210:	0003      	movs	r3, r0
 8005212:	b299      	uxth	r1, r3
 8005214:	687b      	ldr	r3, [r7, #4]
 8005216:	2268      	movs	r2, #104	@ 0x68
 8005218:	5299      	strh	r1, [r3, r2]
}
 800521a:	46c0      	nop			@ (mov r8, r8)
 800521c:	46bd      	mov	sp, r7
 800521e:	b005      	add	sp, #20
 8005220:	bdf0      	pop	{r4, r5, r6, r7, pc}
 8005222:	46c0      	nop			@ (mov r8, r8)
 8005224:	08005e08 	.word	0x08005e08
 8005228:	08005e10 	.word	0x08005e10

0800522c <siprintf>:
 800522c:	b40e      	push	{r1, r2, r3}
 800522e:	b510      	push	{r4, lr}
 8005230:	2400      	movs	r4, #0
 8005232:	490c      	ldr	r1, [pc, #48]	@ (8005264 <siprintf+0x38>)
 8005234:	b09d      	sub	sp, #116	@ 0x74
 8005236:	ab1f      	add	r3, sp, #124	@ 0x7c
 8005238:	9002      	str	r0, [sp, #8]
 800523a:	9006      	str	r0, [sp, #24]
 800523c:	9107      	str	r1, [sp, #28]
 800523e:	9104      	str	r1, [sp, #16]
 8005240:	4809      	ldr	r0, [pc, #36]	@ (8005268 <siprintf+0x3c>)
 8005242:	490a      	ldr	r1, [pc, #40]	@ (800526c <siprintf+0x40>)
 8005244:	cb04      	ldmia	r3!, {r2}
 8005246:	9105      	str	r1, [sp, #20]
 8005248:	6800      	ldr	r0, [r0, #0]
 800524a:	a902      	add	r1, sp, #8
 800524c:	9301      	str	r3, [sp, #4]
 800524e:	941b      	str	r4, [sp, #108]	@ 0x6c
 8005250:	f000 f99e 	bl	8005590 <_svfiprintf_r>
 8005254:	9b02      	ldr	r3, [sp, #8]
 8005256:	701c      	strb	r4, [r3, #0]
 8005258:	b01d      	add	sp, #116	@ 0x74
 800525a:	bc10      	pop	{r4}
 800525c:	bc08      	pop	{r3}
 800525e:	b003      	add	sp, #12
 8005260:	4718      	bx	r3
 8005262:	46c0      	nop			@ (mov r8, r8)
 8005264:	7fffffff 	.word	0x7fffffff
 8005268:	20000018 	.word	0x20000018
 800526c:	ffff0208 	.word	0xffff0208

08005270 <memset>:
 8005270:	0003      	movs	r3, r0
 8005272:	1882      	adds	r2, r0, r2
 8005274:	4293      	cmp	r3, r2
 8005276:	d100      	bne.n	800527a <memset+0xa>
 8005278:	4770      	bx	lr
 800527a:	7019      	strb	r1, [r3, #0]
 800527c:	3301      	adds	r3, #1
 800527e:	e7f9      	b.n	8005274 <memset+0x4>

08005280 <__errno>:
 8005280:	4b01      	ldr	r3, [pc, #4]	@ (8005288 <__errno+0x8>)
 8005282:	6818      	ldr	r0, [r3, #0]
 8005284:	4770      	bx	lr
 8005286:	46c0      	nop			@ (mov r8, r8)
 8005288:	20000018 	.word	0x20000018

0800528c <__libc_init_array>:
 800528c:	b570      	push	{r4, r5, r6, lr}
 800528e:	2600      	movs	r6, #0
 8005290:	4c0c      	ldr	r4, [pc, #48]	@ (80052c4 <__libc_init_array+0x38>)
 8005292:	4d0d      	ldr	r5, [pc, #52]	@ (80052c8 <__libc_init_array+0x3c>)
 8005294:	1b64      	subs	r4, r4, r5
 8005296:	10a4      	asrs	r4, r4, #2
 8005298:	42a6      	cmp	r6, r4
 800529a:	d109      	bne.n	80052b0 <__libc_init_array+0x24>
 800529c:	2600      	movs	r6, #0
 800529e:	f000 fc61 	bl	8005b64 <_init>
 80052a2:	4c0a      	ldr	r4, [pc, #40]	@ (80052cc <__libc_init_array+0x40>)
 80052a4:	4d0a      	ldr	r5, [pc, #40]	@ (80052d0 <__libc_init_array+0x44>)
 80052a6:	1b64      	subs	r4, r4, r5
 80052a8:	10a4      	asrs	r4, r4, #2
 80052aa:	42a6      	cmp	r6, r4
 80052ac:	d105      	bne.n	80052ba <__libc_init_array+0x2e>
 80052ae:	bd70      	pop	{r4, r5, r6, pc}
 80052b0:	00b3      	lsls	r3, r6, #2
 80052b2:	58eb      	ldr	r3, [r5, r3]
 80052b4:	4798      	blx	r3
 80052b6:	3601      	adds	r6, #1
 80052b8:	e7ee      	b.n	8005298 <__libc_init_array+0xc>
 80052ba:	00b3      	lsls	r3, r6, #2
 80052bc:	58eb      	ldr	r3, [r5, r3]
 80052be:	4798      	blx	r3
 80052c0:	3601      	adds	r6, #1
 80052c2:	e7f2      	b.n	80052aa <__libc_init_array+0x1e>
 80052c4:	08005e4c 	.word	0x08005e4c
 80052c8:	08005e4c 	.word	0x08005e4c
 80052cc:	08005e50 	.word	0x08005e50
 80052d0:	08005e4c 	.word	0x08005e4c

080052d4 <__retarget_lock_acquire_recursive>:
 80052d4:	4770      	bx	lr

080052d6 <__retarget_lock_release_recursive>:
 80052d6:	4770      	bx	lr

080052d8 <_free_r>:
 80052d8:	b570      	push	{r4, r5, r6, lr}
 80052da:	0005      	movs	r5, r0
 80052dc:	1e0c      	subs	r4, r1, #0
 80052de:	d010      	beq.n	8005302 <_free_r+0x2a>
 80052e0:	3c04      	subs	r4, #4
 80052e2:	6823      	ldr	r3, [r4, #0]
 80052e4:	2b00      	cmp	r3, #0
 80052e6:	da00      	bge.n	80052ea <_free_r+0x12>
 80052e8:	18e4      	adds	r4, r4, r3
 80052ea:	0028      	movs	r0, r5
 80052ec:	f000 f8e0 	bl	80054b0 <__malloc_lock>
 80052f0:	4a1d      	ldr	r2, [pc, #116]	@ (8005368 <_free_r+0x90>)
 80052f2:	6813      	ldr	r3, [r2, #0]
 80052f4:	2b00      	cmp	r3, #0
 80052f6:	d105      	bne.n	8005304 <_free_r+0x2c>
 80052f8:	6063      	str	r3, [r4, #4]
 80052fa:	6014      	str	r4, [r2, #0]
 80052fc:	0028      	movs	r0, r5
 80052fe:	f000 f8df 	bl	80054c0 <__malloc_unlock>
 8005302:	bd70      	pop	{r4, r5, r6, pc}
 8005304:	42a3      	cmp	r3, r4
 8005306:	d908      	bls.n	800531a <_free_r+0x42>
 8005308:	6820      	ldr	r0, [r4, #0]
 800530a:	1821      	adds	r1, r4, r0
 800530c:	428b      	cmp	r3, r1
 800530e:	d1f3      	bne.n	80052f8 <_free_r+0x20>
 8005310:	6819      	ldr	r1, [r3, #0]
 8005312:	685b      	ldr	r3, [r3, #4]
 8005314:	1809      	adds	r1, r1, r0
 8005316:	6021      	str	r1, [r4, #0]
 8005318:	e7ee      	b.n	80052f8 <_free_r+0x20>
 800531a:	001a      	movs	r2, r3
 800531c:	685b      	ldr	r3, [r3, #4]
 800531e:	2b00      	cmp	r3, #0
 8005320:	d001      	beq.n	8005326 <_free_r+0x4e>
 8005322:	42a3      	cmp	r3, r4
 8005324:	d9f9      	bls.n	800531a <_free_r+0x42>
 8005326:	6811      	ldr	r1, [r2, #0]
 8005328:	1850      	adds	r0, r2, r1
 800532a:	42a0      	cmp	r0, r4
 800532c:	d10b      	bne.n	8005346 <_free_r+0x6e>
 800532e:	6820      	ldr	r0, [r4, #0]
 8005330:	1809      	adds	r1, r1, r0
 8005332:	1850      	adds	r0, r2, r1
 8005334:	6011      	str	r1, [r2, #0]
 8005336:	4283      	cmp	r3, r0
 8005338:	d1e0      	bne.n	80052fc <_free_r+0x24>
 800533a:	6818      	ldr	r0, [r3, #0]
 800533c:	685b      	ldr	r3, [r3, #4]
 800533e:	1841      	adds	r1, r0, r1
 8005340:	6011      	str	r1, [r2, #0]
 8005342:	6053      	str	r3, [r2, #4]
 8005344:	e7da      	b.n	80052fc <_free_r+0x24>
 8005346:	42a0      	cmp	r0, r4
 8005348:	d902      	bls.n	8005350 <_free_r+0x78>
 800534a:	230c      	movs	r3, #12
 800534c:	602b      	str	r3, [r5, #0]
 800534e:	e7d5      	b.n	80052fc <_free_r+0x24>
 8005350:	6820      	ldr	r0, [r4, #0]
 8005352:	1821      	adds	r1, r4, r0
 8005354:	428b      	cmp	r3, r1
 8005356:	d103      	bne.n	8005360 <_free_r+0x88>
 8005358:	6819      	ldr	r1, [r3, #0]
 800535a:	685b      	ldr	r3, [r3, #4]
 800535c:	1809      	adds	r1, r1, r0
 800535e:	6021      	str	r1, [r4, #0]
 8005360:	6063      	str	r3, [r4, #4]
 8005362:	6054      	str	r4, [r2, #4]
 8005364:	e7ca      	b.n	80052fc <_free_r+0x24>
 8005366:	46c0      	nop			@ (mov r8, r8)
 8005368:	200003e4 	.word	0x200003e4

0800536c <sbrk_aligned>:
 800536c:	b570      	push	{r4, r5, r6, lr}
 800536e:	4e0f      	ldr	r6, [pc, #60]	@ (80053ac <sbrk_aligned+0x40>)
 8005370:	000d      	movs	r5, r1
 8005372:	6831      	ldr	r1, [r6, #0]
 8005374:	0004      	movs	r4, r0
 8005376:	2900      	cmp	r1, #0
 8005378:	d102      	bne.n	8005380 <sbrk_aligned+0x14>
 800537a:	f000 fb95 	bl	8005aa8 <_sbrk_r>
 800537e:	6030      	str	r0, [r6, #0]
 8005380:	0029      	movs	r1, r5
 8005382:	0020      	movs	r0, r4
 8005384:	f000 fb90 	bl	8005aa8 <_sbrk_r>
 8005388:	1c43      	adds	r3, r0, #1
 800538a:	d103      	bne.n	8005394 <sbrk_aligned+0x28>
 800538c:	2501      	movs	r5, #1
 800538e:	426d      	negs	r5, r5
 8005390:	0028      	movs	r0, r5
 8005392:	bd70      	pop	{r4, r5, r6, pc}
 8005394:	2303      	movs	r3, #3
 8005396:	1cc5      	adds	r5, r0, #3
 8005398:	439d      	bics	r5, r3
 800539a:	42a8      	cmp	r0, r5
 800539c:	d0f8      	beq.n	8005390 <sbrk_aligned+0x24>
 800539e:	1a29      	subs	r1, r5, r0
 80053a0:	0020      	movs	r0, r4
 80053a2:	f000 fb81 	bl	8005aa8 <_sbrk_r>
 80053a6:	3001      	adds	r0, #1
 80053a8:	d1f2      	bne.n	8005390 <sbrk_aligned+0x24>
 80053aa:	e7ef      	b.n	800538c <sbrk_aligned+0x20>
 80053ac:	200003e0 	.word	0x200003e0

080053b0 <_malloc_r>:
 80053b0:	b5f7      	push	{r0, r1, r2, r4, r5, r6, r7, lr}
 80053b2:	2203      	movs	r2, #3
 80053b4:	1ccb      	adds	r3, r1, #3
 80053b6:	4393      	bics	r3, r2
 80053b8:	3308      	adds	r3, #8
 80053ba:	0005      	movs	r5, r0
 80053bc:	001f      	movs	r7, r3
 80053be:	2b0c      	cmp	r3, #12
 80053c0:	d234      	bcs.n	800542c <_malloc_r+0x7c>
 80053c2:	270c      	movs	r7, #12
 80053c4:	42b9      	cmp	r1, r7
 80053c6:	d833      	bhi.n	8005430 <_malloc_r+0x80>
 80053c8:	0028      	movs	r0, r5
 80053ca:	f000 f871 	bl	80054b0 <__malloc_lock>
 80053ce:	4e37      	ldr	r6, [pc, #220]	@ (80054ac <_malloc_r+0xfc>)
 80053d0:	6833      	ldr	r3, [r6, #0]
 80053d2:	001c      	movs	r4, r3
 80053d4:	2c00      	cmp	r4, #0
 80053d6:	d12f      	bne.n	8005438 <_malloc_r+0x88>
 80053d8:	0039      	movs	r1, r7
 80053da:	0028      	movs	r0, r5
 80053dc:	f7ff ffc6 	bl	800536c <sbrk_aligned>
 80053e0:	0004      	movs	r4, r0
 80053e2:	1c43      	adds	r3, r0, #1
 80053e4:	d15f      	bne.n	80054a6 <_malloc_r+0xf6>
 80053e6:	6834      	ldr	r4, [r6, #0]
 80053e8:	9400      	str	r4, [sp, #0]
 80053ea:	9b00      	ldr	r3, [sp, #0]
 80053ec:	2b00      	cmp	r3, #0
 80053ee:	d14a      	bne.n	8005486 <_malloc_r+0xd6>
 80053f0:	2c00      	cmp	r4, #0
 80053f2:	d052      	beq.n	800549a <_malloc_r+0xea>
 80053f4:	6823      	ldr	r3, [r4, #0]
 80053f6:	0028      	movs	r0, r5
 80053f8:	18e3      	adds	r3, r4, r3
 80053fa:	9900      	ldr	r1, [sp, #0]
 80053fc:	9301      	str	r3, [sp, #4]
 80053fe:	f000 fb53 	bl	8005aa8 <_sbrk_r>
 8005402:	9b01      	ldr	r3, [sp, #4]
 8005404:	4283      	cmp	r3, r0
 8005406:	d148      	bne.n	800549a <_malloc_r+0xea>
 8005408:	6823      	ldr	r3, [r4, #0]
 800540a:	0028      	movs	r0, r5
 800540c:	1aff      	subs	r7, r7, r3
 800540e:	0039      	movs	r1, r7
 8005410:	f7ff ffac 	bl	800536c <sbrk_aligned>
 8005414:	3001      	adds	r0, #1
 8005416:	d040      	beq.n	800549a <_malloc_r+0xea>
 8005418:	6823      	ldr	r3, [r4, #0]
 800541a:	19db      	adds	r3, r3, r7
 800541c:	6023      	str	r3, [r4, #0]
 800541e:	6833      	ldr	r3, [r6, #0]
 8005420:	685a      	ldr	r2, [r3, #4]
 8005422:	2a00      	cmp	r2, #0
 8005424:	d133      	bne.n	800548e <_malloc_r+0xde>
 8005426:	9b00      	ldr	r3, [sp, #0]
 8005428:	6033      	str	r3, [r6, #0]
 800542a:	e019      	b.n	8005460 <_malloc_r+0xb0>
 800542c:	2b00      	cmp	r3, #0
 800542e:	dac9      	bge.n	80053c4 <_malloc_r+0x14>
 8005430:	230c      	movs	r3, #12
 8005432:	602b      	str	r3, [r5, #0]
 8005434:	2000      	movs	r0, #0
 8005436:	bdfe      	pop	{r1, r2, r3, r4, r5, r6, r7, pc}
 8005438:	6821      	ldr	r1, [r4, #0]
 800543a:	1bc9      	subs	r1, r1, r7
 800543c:	d420      	bmi.n	8005480 <_malloc_r+0xd0>
 800543e:	290b      	cmp	r1, #11
 8005440:	d90a      	bls.n	8005458 <_malloc_r+0xa8>
 8005442:	19e2      	adds	r2, r4, r7
 8005444:	6027      	str	r7, [r4, #0]
 8005446:	42a3      	cmp	r3, r4
 8005448:	d104      	bne.n	8005454 <_malloc_r+0xa4>
 800544a:	6032      	str	r2, [r6, #0]
 800544c:	6863      	ldr	r3, [r4, #4]
 800544e:	6011      	str	r1, [r2, #0]
 8005450:	6053      	str	r3, [r2, #4]
 8005452:	e005      	b.n	8005460 <_malloc_r+0xb0>
 8005454:	605a      	str	r2, [r3, #4]
 8005456:	e7f9      	b.n	800544c <_malloc_r+0x9c>
 8005458:	6862      	ldr	r2, [r4, #4]
 800545a:	42a3      	cmp	r3, r4
 800545c:	d10e      	bne.n	800547c <_malloc_r+0xcc>
 800545e:	6032      	str	r2, [r6, #0]
 8005460:	0028      	movs	r0, r5
 8005462:	f000 f82d 	bl	80054c0 <__malloc_unlock>
 8005466:	0020      	movs	r0, r4
 8005468:	2207      	movs	r2, #7
 800546a:	300b      	adds	r0, #11
 800546c:	1d23      	adds	r3, r4, #4
 800546e:	4390      	bics	r0, r2
 8005470:	1ac2      	subs	r2, r0, r3
 8005472:	4298      	cmp	r0, r3
 8005474:	d0df      	beq.n	8005436 <_malloc_r+0x86>
 8005476:	1a1b      	subs	r3, r3, r0
 8005478:	50a3      	str	r3, [r4, r2]
 800547a:	e7dc      	b.n	8005436 <_malloc_r+0x86>
 800547c:	605a      	str	r2, [r3, #4]
 800547e:	e7ef      	b.n	8005460 <_malloc_r+0xb0>
 8005480:	0023      	movs	r3, r4
 8005482:	6864      	ldr	r4, [r4, #4]
 8005484:	e7a6      	b.n	80053d4 <_malloc_r+0x24>
 8005486:	9c00      	ldr	r4, [sp, #0]
 8005488:	6863      	ldr	r3, [r4, #4]
 800548a:	9300      	str	r3, [sp, #0]
 800548c:	e7ad      	b.n	80053ea <_malloc_r+0x3a>
 800548e:	001a      	movs	r2, r3
 8005490:	685b      	ldr	r3, [r3, #4]
 8005492:	42a3      	cmp	r3, r4
 8005494:	d1fb      	bne.n	800548e <_malloc_r+0xde>
 8005496:	2300      	movs	r3, #0
 8005498:	e7da      	b.n	8005450 <_malloc_r+0xa0>
 800549a:	230c      	movs	r3, #12
 800549c:	0028      	movs	r0, r5
 800549e:	602b      	str	r3, [r5, #0]
 80054a0:	f000 f80e 	bl	80054c0 <__malloc_unlock>
 80054a4:	e7c6      	b.n	8005434 <_malloc_r+0x84>
 80054a6:	6007      	str	r7, [r0, #0]
 80054a8:	e7da      	b.n	8005460 <_malloc_r+0xb0>
 80054aa:	46c0      	nop			@ (mov r8, r8)
 80054ac:	200003e4 	.word	0x200003e4

080054b0 <__malloc_lock>:
 80054b0:	b510      	push	{r4, lr}
 80054b2:	4802      	ldr	r0, [pc, #8]	@ (80054bc <__malloc_lock+0xc>)
 80054b4:	f7ff ff0e 	bl	80052d4 <__retarget_lock_acquire_recursive>
 80054b8:	bd10      	pop	{r4, pc}
 80054ba:	46c0      	nop			@ (mov r8, r8)
 80054bc:	200003dc 	.word	0x200003dc

080054c0 <__malloc_unlock>:
 80054c0:	b510      	push	{r4, lr}
 80054c2:	4802      	ldr	r0, [pc, #8]	@ (80054cc <__malloc_unlock+0xc>)
 80054c4:	f7ff ff07 	bl	80052d6 <__retarget_lock_release_recursive>
 80054c8:	bd10      	pop	{r4, pc}
 80054ca:	46c0      	nop			@ (mov r8, r8)
 80054cc:	200003dc 	.word	0x200003dc

080054d0 <__ssputs_r>:
 80054d0:	b5f0      	push	{r4, r5, r6, r7, lr}
 80054d2:	688e      	ldr	r6, [r1, #8]
 80054d4:	b085      	sub	sp, #20
 80054d6:	001f      	movs	r7, r3
 80054d8:	000c      	movs	r4, r1
 80054da:	680b      	ldr	r3, [r1, #0]
 80054dc:	9002      	str	r0, [sp, #8]
 80054de:	9203      	str	r2, [sp, #12]
 80054e0:	42be      	cmp	r6, r7
 80054e2:	d830      	bhi.n	8005546 <__ssputs_r+0x76>
 80054e4:	210c      	movs	r1, #12
 80054e6:	5e62      	ldrsh	r2, [r4, r1]
 80054e8:	2190      	movs	r1, #144	@ 0x90
 80054ea:	00c9      	lsls	r1, r1, #3
 80054ec:	420a      	tst	r2, r1
 80054ee:	d028      	beq.n	8005542 <__ssputs_r+0x72>
 80054f0:	2003      	movs	r0, #3
 80054f2:	6921      	ldr	r1, [r4, #16]
 80054f4:	1a5b      	subs	r3, r3, r1
 80054f6:	9301      	str	r3, [sp, #4]
 80054f8:	6963      	ldr	r3, [r4, #20]
 80054fa:	4343      	muls	r3, r0
 80054fc:	9801      	ldr	r0, [sp, #4]
 80054fe:	0fdd      	lsrs	r5, r3, #31
 8005500:	18ed      	adds	r5, r5, r3
 8005502:	1c7b      	adds	r3, r7, #1
 8005504:	181b      	adds	r3, r3, r0
 8005506:	106d      	asrs	r5, r5, #1
 8005508:	42ab      	cmp	r3, r5
 800550a:	d900      	bls.n	800550e <__ssputs_r+0x3e>
 800550c:	001d      	movs	r5, r3
 800550e:	0552      	lsls	r2, r2, #21
 8005510:	d528      	bpl.n	8005564 <__ssputs_r+0x94>
 8005512:	0029      	movs	r1, r5
 8005514:	9802      	ldr	r0, [sp, #8]
 8005516:	f7ff ff4b 	bl	80053b0 <_malloc_r>
 800551a:	1e06      	subs	r6, r0, #0
 800551c:	d02c      	beq.n	8005578 <__ssputs_r+0xa8>
 800551e:	9a01      	ldr	r2, [sp, #4]
 8005520:	6921      	ldr	r1, [r4, #16]
 8005522:	f000 fade 	bl	8005ae2 <memcpy>
 8005526:	89a2      	ldrh	r2, [r4, #12]
 8005528:	4b18      	ldr	r3, [pc, #96]	@ (800558c <__ssputs_r+0xbc>)
 800552a:	401a      	ands	r2, r3
 800552c:	2380      	movs	r3, #128	@ 0x80
 800552e:	4313      	orrs	r3, r2
 8005530:	81a3      	strh	r3, [r4, #12]
 8005532:	9b01      	ldr	r3, [sp, #4]
 8005534:	6126      	str	r6, [r4, #16]
 8005536:	18f6      	adds	r6, r6, r3
 8005538:	6026      	str	r6, [r4, #0]
 800553a:	003e      	movs	r6, r7
 800553c:	6165      	str	r5, [r4, #20]
 800553e:	1aed      	subs	r5, r5, r3
 8005540:	60a5      	str	r5, [r4, #8]
 8005542:	42be      	cmp	r6, r7
 8005544:	d900      	bls.n	8005548 <__ssputs_r+0x78>
 8005546:	003e      	movs	r6, r7
 8005548:	0032      	movs	r2, r6
 800554a:	9903      	ldr	r1, [sp, #12]
 800554c:	6820      	ldr	r0, [r4, #0]
 800554e:	f000 fa99 	bl	8005a84 <memmove>
 8005552:	2000      	movs	r0, #0
 8005554:	68a3      	ldr	r3, [r4, #8]
 8005556:	1b9b      	subs	r3, r3, r6
 8005558:	60a3      	str	r3, [r4, #8]
 800555a:	6823      	ldr	r3, [r4, #0]
 800555c:	199b      	adds	r3, r3, r6
 800555e:	6023      	str	r3, [r4, #0]
 8005560:	b005      	add	sp, #20
 8005562:	bdf0      	pop	{r4, r5, r6, r7, pc}
 8005564:	002a      	movs	r2, r5
 8005566:	9802      	ldr	r0, [sp, #8]
 8005568:	f000 fac4 	bl	8005af4 <_realloc_r>
 800556c:	1e06      	subs	r6, r0, #0
 800556e:	d1e0      	bne.n	8005532 <__ssputs_r+0x62>
 8005570:	6921      	ldr	r1, [r4, #16]
 8005572:	9802      	ldr	r0, [sp, #8]
 8005574:	f7ff feb0 	bl	80052d8 <_free_r>
 8005578:	230c      	movs	r3, #12
 800557a:	2001      	movs	r0, #1
 800557c:	9a02      	ldr	r2, [sp, #8]
 800557e:	4240      	negs	r0, r0
 8005580:	6013      	str	r3, [r2, #0]
 8005582:	89a2      	ldrh	r2, [r4, #12]
 8005584:	3334      	adds	r3, #52	@ 0x34
 8005586:	4313      	orrs	r3, r2
 8005588:	81a3      	strh	r3, [r4, #12]
 800558a:	e7e9      	b.n	8005560 <__ssputs_r+0x90>
 800558c:	fffffb7f 	.word	0xfffffb7f

08005590 <_svfiprintf_r>:
 8005590:	b5f0      	push	{r4, r5, r6, r7, lr}
 8005592:	b0a1      	sub	sp, #132	@ 0x84
 8005594:	9003      	str	r0, [sp, #12]
 8005596:	001d      	movs	r5, r3
 8005598:	898b      	ldrh	r3, [r1, #12]
 800559a:	000f      	movs	r7, r1
 800559c:	0016      	movs	r6, r2
 800559e:	061b      	lsls	r3, r3, #24
 80055a0:	d511      	bpl.n	80055c6 <_svfiprintf_r+0x36>
 80055a2:	690b      	ldr	r3, [r1, #16]
 80055a4:	2b00      	cmp	r3, #0
 80055a6:	d10e      	bne.n	80055c6 <_svfiprintf_r+0x36>
 80055a8:	2140      	movs	r1, #64	@ 0x40
 80055aa:	f7ff ff01 	bl	80053b0 <_malloc_r>
 80055ae:	6038      	str	r0, [r7, #0]
 80055b0:	6138      	str	r0, [r7, #16]
 80055b2:	2800      	cmp	r0, #0
 80055b4:	d105      	bne.n	80055c2 <_svfiprintf_r+0x32>
 80055b6:	230c      	movs	r3, #12
 80055b8:	9a03      	ldr	r2, [sp, #12]
 80055ba:	6013      	str	r3, [r2, #0]
 80055bc:	2001      	movs	r0, #1
 80055be:	4240      	negs	r0, r0
 80055c0:	e0cf      	b.n	8005762 <_svfiprintf_r+0x1d2>
 80055c2:	2340      	movs	r3, #64	@ 0x40
 80055c4:	617b      	str	r3, [r7, #20]
 80055c6:	2300      	movs	r3, #0
 80055c8:	ac08      	add	r4, sp, #32
 80055ca:	6163      	str	r3, [r4, #20]
 80055cc:	3320      	adds	r3, #32
 80055ce:	7663      	strb	r3, [r4, #25]
 80055d0:	3310      	adds	r3, #16
 80055d2:	76a3      	strb	r3, [r4, #26]
 80055d4:	9507      	str	r5, [sp, #28]
 80055d6:	0035      	movs	r5, r6
 80055d8:	782b      	ldrb	r3, [r5, #0]
 80055da:	2b00      	cmp	r3, #0
 80055dc:	d001      	beq.n	80055e2 <_svfiprintf_r+0x52>
 80055de:	2b25      	cmp	r3, #37	@ 0x25
 80055e0:	d148      	bne.n	8005674 <_svfiprintf_r+0xe4>
 80055e2:	1bab      	subs	r3, r5, r6
 80055e4:	9305      	str	r3, [sp, #20]
 80055e6:	42b5      	cmp	r5, r6
 80055e8:	d00b      	beq.n	8005602 <_svfiprintf_r+0x72>
 80055ea:	0032      	movs	r2, r6
 80055ec:	0039      	movs	r1, r7
 80055ee:	9803      	ldr	r0, [sp, #12]
 80055f0:	f7ff ff6e 	bl	80054d0 <__ssputs_r>
 80055f4:	3001      	adds	r0, #1
 80055f6:	d100      	bne.n	80055fa <_svfiprintf_r+0x6a>
 80055f8:	e0ae      	b.n	8005758 <_svfiprintf_r+0x1c8>
 80055fa:	6963      	ldr	r3, [r4, #20]
 80055fc:	9a05      	ldr	r2, [sp, #20]
 80055fe:	189b      	adds	r3, r3, r2
 8005600:	6163      	str	r3, [r4, #20]
 8005602:	782b      	ldrb	r3, [r5, #0]
 8005604:	2b00      	cmp	r3, #0
 8005606:	d100      	bne.n	800560a <_svfiprintf_r+0x7a>
 8005608:	e0a6      	b.n	8005758 <_svfiprintf_r+0x1c8>
 800560a:	2201      	movs	r2, #1
 800560c:	2300      	movs	r3, #0
 800560e:	4252      	negs	r2, r2
 8005610:	6062      	str	r2, [r4, #4]
 8005612:	a904      	add	r1, sp, #16
 8005614:	3254      	adds	r2, #84	@ 0x54
 8005616:	1852      	adds	r2, r2, r1
 8005618:	1c6e      	adds	r6, r5, #1
 800561a:	6023      	str	r3, [r4, #0]
 800561c:	60e3      	str	r3, [r4, #12]
 800561e:	60a3      	str	r3, [r4, #8]
 8005620:	7013      	strb	r3, [r2, #0]
 8005622:	65a3      	str	r3, [r4, #88]	@ 0x58
 8005624:	4b54      	ldr	r3, [pc, #336]	@ (8005778 <_svfiprintf_r+0x1e8>)
 8005626:	2205      	movs	r2, #5
 8005628:	0018      	movs	r0, r3
 800562a:	7831      	ldrb	r1, [r6, #0]
 800562c:	9305      	str	r3, [sp, #20]
 800562e:	f000 fa4d 	bl	8005acc <memchr>
 8005632:	1c75      	adds	r5, r6, #1
 8005634:	2800      	cmp	r0, #0
 8005636:	d11f      	bne.n	8005678 <_svfiprintf_r+0xe8>
 8005638:	6822      	ldr	r2, [r4, #0]
 800563a:	06d3      	lsls	r3, r2, #27
 800563c:	d504      	bpl.n	8005648 <_svfiprintf_r+0xb8>
 800563e:	2353      	movs	r3, #83	@ 0x53
 8005640:	a904      	add	r1, sp, #16
 8005642:	185b      	adds	r3, r3, r1
 8005644:	2120      	movs	r1, #32
 8005646:	7019      	strb	r1, [r3, #0]
 8005648:	0713      	lsls	r3, r2, #28
 800564a:	d504      	bpl.n	8005656 <_svfiprintf_r+0xc6>
 800564c:	2353      	movs	r3, #83	@ 0x53
 800564e:	a904      	add	r1, sp, #16
 8005650:	185b      	adds	r3, r3, r1
 8005652:	212b      	movs	r1, #43	@ 0x2b
 8005654:	7019      	strb	r1, [r3, #0]
 8005656:	7833      	ldrb	r3, [r6, #0]
 8005658:	2b2a      	cmp	r3, #42	@ 0x2a
 800565a:	d016      	beq.n	800568a <_svfiprintf_r+0xfa>
 800565c:	0035      	movs	r5, r6
 800565e:	2100      	movs	r1, #0
 8005660:	200a      	movs	r0, #10
 8005662:	68e3      	ldr	r3, [r4, #12]
 8005664:	782a      	ldrb	r2, [r5, #0]
 8005666:	1c6e      	adds	r6, r5, #1
 8005668:	3a30      	subs	r2, #48	@ 0x30
 800566a:	2a09      	cmp	r2, #9
 800566c:	d950      	bls.n	8005710 <_svfiprintf_r+0x180>
 800566e:	2900      	cmp	r1, #0
 8005670:	d111      	bne.n	8005696 <_svfiprintf_r+0x106>
 8005672:	e017      	b.n	80056a4 <_svfiprintf_r+0x114>
 8005674:	3501      	adds	r5, #1
 8005676:	e7af      	b.n	80055d8 <_svfiprintf_r+0x48>
 8005678:	9b05      	ldr	r3, [sp, #20]
 800567a:	6822      	ldr	r2, [r4, #0]
 800567c:	1ac0      	subs	r0, r0, r3
 800567e:	2301      	movs	r3, #1
 8005680:	4083      	lsls	r3, r0
 8005682:	4313      	orrs	r3, r2
 8005684:	002e      	movs	r6, r5
 8005686:	6023      	str	r3, [r4, #0]
 8005688:	e7cc      	b.n	8005624 <_svfiprintf_r+0x94>
 800568a:	9b07      	ldr	r3, [sp, #28]
 800568c:	1d19      	adds	r1, r3, #4
 800568e:	681b      	ldr	r3, [r3, #0]
 8005690:	9107      	str	r1, [sp, #28]
 8005692:	2b00      	cmp	r3, #0
 8005694:	db01      	blt.n	800569a <_svfiprintf_r+0x10a>
 8005696:	930b      	str	r3, [sp, #44]	@ 0x2c
 8005698:	e004      	b.n	80056a4 <_svfiprintf_r+0x114>
 800569a:	425b      	negs	r3, r3
 800569c:	60e3      	str	r3, [r4, #12]
 800569e:	2302      	movs	r3, #2
 80056a0:	4313      	orrs	r3, r2
 80056a2:	6023      	str	r3, [r4, #0]
 80056a4:	782b      	ldrb	r3, [r5, #0]
 80056a6:	2b2e      	cmp	r3, #46	@ 0x2e
 80056a8:	d10c      	bne.n	80056c4 <_svfiprintf_r+0x134>
 80056aa:	786b      	ldrb	r3, [r5, #1]
 80056ac:	2b2a      	cmp	r3, #42	@ 0x2a
 80056ae:	d134      	bne.n	800571a <_svfiprintf_r+0x18a>
 80056b0:	9b07      	ldr	r3, [sp, #28]
 80056b2:	3502      	adds	r5, #2
 80056b4:	1d1a      	adds	r2, r3, #4
 80056b6:	681b      	ldr	r3, [r3, #0]
 80056b8:	9207      	str	r2, [sp, #28]
 80056ba:	2b00      	cmp	r3, #0
 80056bc:	da01      	bge.n	80056c2 <_svfiprintf_r+0x132>
 80056be:	2301      	movs	r3, #1
 80056c0:	425b      	negs	r3, r3
 80056c2:	9309      	str	r3, [sp, #36]	@ 0x24
 80056c4:	4e2d      	ldr	r6, [pc, #180]	@ (800577c <_svfiprintf_r+0x1ec>)
 80056c6:	2203      	movs	r2, #3
 80056c8:	0030      	movs	r0, r6
 80056ca:	7829      	ldrb	r1, [r5, #0]
 80056cc:	f000 f9fe 	bl	8005acc <memchr>
 80056d0:	2800      	cmp	r0, #0
 80056d2:	d006      	beq.n	80056e2 <_svfiprintf_r+0x152>
 80056d4:	2340      	movs	r3, #64	@ 0x40
 80056d6:	1b80      	subs	r0, r0, r6
 80056d8:	4083      	lsls	r3, r0
 80056da:	6822      	ldr	r2, [r4, #0]
 80056dc:	3501      	adds	r5, #1
 80056de:	4313      	orrs	r3, r2
 80056e0:	6023      	str	r3, [r4, #0]
 80056e2:	7829      	ldrb	r1, [r5, #0]
 80056e4:	2206      	movs	r2, #6
 80056e6:	4826      	ldr	r0, [pc, #152]	@ (8005780 <_svfiprintf_r+0x1f0>)
 80056e8:	1c6e      	adds	r6, r5, #1
 80056ea:	7621      	strb	r1, [r4, #24]
 80056ec:	f000 f9ee 	bl	8005acc <memchr>
 80056f0:	2800      	cmp	r0, #0
 80056f2:	d038      	beq.n	8005766 <_svfiprintf_r+0x1d6>
 80056f4:	4b23      	ldr	r3, [pc, #140]	@ (8005784 <_svfiprintf_r+0x1f4>)
 80056f6:	2b00      	cmp	r3, #0
 80056f8:	d122      	bne.n	8005740 <_svfiprintf_r+0x1b0>
 80056fa:	2207      	movs	r2, #7
 80056fc:	9b07      	ldr	r3, [sp, #28]
 80056fe:	3307      	adds	r3, #7
 8005700:	4393      	bics	r3, r2
 8005702:	3308      	adds	r3, #8
 8005704:	9307      	str	r3, [sp, #28]
 8005706:	6963      	ldr	r3, [r4, #20]
 8005708:	9a04      	ldr	r2, [sp, #16]
 800570a:	189b      	adds	r3, r3, r2
 800570c:	6163      	str	r3, [r4, #20]
 800570e:	e762      	b.n	80055d6 <_svfiprintf_r+0x46>
 8005710:	4343      	muls	r3, r0
 8005712:	0035      	movs	r5, r6
 8005714:	2101      	movs	r1, #1
 8005716:	189b      	adds	r3, r3, r2
 8005718:	e7a4      	b.n	8005664 <_svfiprintf_r+0xd4>
 800571a:	2300      	movs	r3, #0
 800571c:	200a      	movs	r0, #10
 800571e:	0019      	movs	r1, r3
 8005720:	3501      	adds	r5, #1
 8005722:	6063      	str	r3, [r4, #4]
 8005724:	782a      	ldrb	r2, [r5, #0]
 8005726:	1c6e      	adds	r6, r5, #1
 8005728:	3a30      	subs	r2, #48	@ 0x30
 800572a:	2a09      	cmp	r2, #9
 800572c:	d903      	bls.n	8005736 <_svfiprintf_r+0x1a6>
 800572e:	2b00      	cmp	r3, #0
 8005730:	d0c8      	beq.n	80056c4 <_svfiprintf_r+0x134>
 8005732:	9109      	str	r1, [sp, #36]	@ 0x24
 8005734:	e7c6      	b.n	80056c4 <_svfiprintf_r+0x134>
 8005736:	4341      	muls	r1, r0
 8005738:	0035      	movs	r5, r6
 800573a:	2301      	movs	r3, #1
 800573c:	1889      	adds	r1, r1, r2
 800573e:	e7f1      	b.n	8005724 <_svfiprintf_r+0x194>
 8005740:	aa07      	add	r2, sp, #28
 8005742:	9200      	str	r2, [sp, #0]
 8005744:	0021      	movs	r1, r4
 8005746:	003a      	movs	r2, r7
 8005748:	4b0f      	ldr	r3, [pc, #60]	@ (8005788 <_svfiprintf_r+0x1f8>)
 800574a:	9803      	ldr	r0, [sp, #12]
 800574c:	e000      	b.n	8005750 <_svfiprintf_r+0x1c0>
 800574e:	bf00      	nop
 8005750:	9004      	str	r0, [sp, #16]
 8005752:	9b04      	ldr	r3, [sp, #16]
 8005754:	3301      	adds	r3, #1
 8005756:	d1d6      	bne.n	8005706 <_svfiprintf_r+0x176>
 8005758:	89bb      	ldrh	r3, [r7, #12]
 800575a:	980d      	ldr	r0, [sp, #52]	@ 0x34
 800575c:	065b      	lsls	r3, r3, #25
 800575e:	d500      	bpl.n	8005762 <_svfiprintf_r+0x1d2>
 8005760:	e72c      	b.n	80055bc <_svfiprintf_r+0x2c>
 8005762:	b021      	add	sp, #132	@ 0x84
 8005764:	bdf0      	pop	{r4, r5, r6, r7, pc}
 8005766:	aa07      	add	r2, sp, #28
 8005768:	9200      	str	r2, [sp, #0]
 800576a:	0021      	movs	r1, r4
 800576c:	003a      	movs	r2, r7
 800576e:	4b06      	ldr	r3, [pc, #24]	@ (8005788 <_svfiprintf_r+0x1f8>)
 8005770:	9803      	ldr	r0, [sp, #12]
 8005772:	f000 f87b 	bl	800586c <_printf_i>
 8005776:	e7eb      	b.n	8005750 <_svfiprintf_r+0x1c0>
 8005778:	08005e18 	.word	0x08005e18
 800577c:	08005e1e 	.word	0x08005e1e
 8005780:	08005e22 	.word	0x08005e22
 8005784:	00000000 	.word	0x00000000
 8005788:	080054d1 	.word	0x080054d1

0800578c <_printf_common>:
 800578c:	b5f7      	push	{r0, r1, r2, r4, r5, r6, r7, lr}
 800578e:	0016      	movs	r6, r2
 8005790:	9301      	str	r3, [sp, #4]
 8005792:	688a      	ldr	r2, [r1, #8]
 8005794:	690b      	ldr	r3, [r1, #16]
 8005796:	000c      	movs	r4, r1
 8005798:	9000      	str	r0, [sp, #0]
 800579a:	4293      	cmp	r3, r2
 800579c:	da00      	bge.n	80057a0 <_printf_common+0x14>
 800579e:	0013      	movs	r3, r2
 80057a0:	0022      	movs	r2, r4
 80057a2:	6033      	str	r3, [r6, #0]
 80057a4:	3243      	adds	r2, #67	@ 0x43
 80057a6:	7812      	ldrb	r2, [r2, #0]
 80057a8:	2a00      	cmp	r2, #0
 80057aa:	d001      	beq.n	80057b0 <_printf_common+0x24>
 80057ac:	3301      	adds	r3, #1
 80057ae:	6033      	str	r3, [r6, #0]
 80057b0:	6823      	ldr	r3, [r4, #0]
 80057b2:	069b      	lsls	r3, r3, #26
 80057b4:	d502      	bpl.n	80057bc <_printf_common+0x30>
 80057b6:	6833      	ldr	r3, [r6, #0]
 80057b8:	3302      	adds	r3, #2
 80057ba:	6033      	str	r3, [r6, #0]
 80057bc:	6822      	ldr	r2, [r4, #0]
 80057be:	2306      	movs	r3, #6
 80057c0:	0015      	movs	r5, r2
 80057c2:	401d      	ands	r5, r3
 80057c4:	421a      	tst	r2, r3
 80057c6:	d027      	beq.n	8005818 <_printf_common+0x8c>
 80057c8:	0023      	movs	r3, r4
 80057ca:	3343      	adds	r3, #67	@ 0x43
 80057cc:	781b      	ldrb	r3, [r3, #0]
 80057ce:	1e5a      	subs	r2, r3, #1
 80057d0:	4193      	sbcs	r3, r2
 80057d2:	6822      	ldr	r2, [r4, #0]
 80057d4:	0692      	lsls	r2, r2, #26
 80057d6:	d430      	bmi.n	800583a <_printf_common+0xae>
 80057d8:	0022      	movs	r2, r4
 80057da:	9901      	ldr	r1, [sp, #4]
 80057dc:	9800      	ldr	r0, [sp, #0]
 80057de:	9d08      	ldr	r5, [sp, #32]
 80057e0:	3243      	adds	r2, #67	@ 0x43
 80057e2:	47a8      	blx	r5
 80057e4:	3001      	adds	r0, #1
 80057e6:	d025      	beq.n	8005834 <_printf_common+0xa8>
 80057e8:	2206      	movs	r2, #6
 80057ea:	6823      	ldr	r3, [r4, #0]
 80057ec:	2500      	movs	r5, #0
 80057ee:	4013      	ands	r3, r2
 80057f0:	2b04      	cmp	r3, #4
 80057f2:	d105      	bne.n	8005800 <_printf_common+0x74>
 80057f4:	6833      	ldr	r3, [r6, #0]
 80057f6:	68e5      	ldr	r5, [r4, #12]
 80057f8:	1aed      	subs	r5, r5, r3
 80057fa:	43eb      	mvns	r3, r5
 80057fc:	17db      	asrs	r3, r3, #31
 80057fe:	401d      	ands	r5, r3
 8005800:	68a3      	ldr	r3, [r4, #8]
 8005802:	6922      	ldr	r2, [r4, #16]
 8005804:	4293      	cmp	r3, r2
 8005806:	dd01      	ble.n	800580c <_printf_common+0x80>
 8005808:	1a9b      	subs	r3, r3, r2
 800580a:	18ed      	adds	r5, r5, r3
 800580c:	2600      	movs	r6, #0
 800580e:	42b5      	cmp	r5, r6
 8005810:	d120      	bne.n	8005854 <_printf_common+0xc8>
 8005812:	2000      	movs	r0, #0
 8005814:	e010      	b.n	8005838 <_printf_common+0xac>
 8005816:	3501      	adds	r5, #1
 8005818:	68e3      	ldr	r3, [r4, #12]
 800581a:	6832      	ldr	r2, [r6, #0]
 800581c:	1a9b      	subs	r3, r3, r2
 800581e:	42ab      	cmp	r3, r5
 8005820:	ddd2      	ble.n	80057c8 <_printf_common+0x3c>
 8005822:	0022      	movs	r2, r4
 8005824:	2301      	movs	r3, #1
 8005826:	9901      	ldr	r1, [sp, #4]
 8005828:	9800      	ldr	r0, [sp, #0]
 800582a:	9f08      	ldr	r7, [sp, #32]
 800582c:	3219      	adds	r2, #25
 800582e:	47b8      	blx	r7
 8005830:	3001      	adds	r0, #1
 8005832:	d1f0      	bne.n	8005816 <_printf_common+0x8a>
 8005834:	2001      	movs	r0, #1
 8005836:	4240      	negs	r0, r0
 8005838:	bdfe      	pop	{r1, r2, r3, r4, r5, r6, r7, pc}
 800583a:	2030      	movs	r0, #48	@ 0x30
 800583c:	18e1      	adds	r1, r4, r3
 800583e:	3143      	adds	r1, #67	@ 0x43
 8005840:	7008      	strb	r0, [r1, #0]
 8005842:	0021      	movs	r1, r4
 8005844:	1c5a      	adds	r2, r3, #1
 8005846:	3145      	adds	r1, #69	@ 0x45
 8005848:	7809      	ldrb	r1, [r1, #0]
 800584a:	18a2      	adds	r2, r4, r2
 800584c:	3243      	adds	r2, #67	@ 0x43
 800584e:	3302      	adds	r3, #2
 8005850:	7011      	strb	r1, [r2, #0]
 8005852:	e7c1      	b.n	80057d8 <_printf_common+0x4c>
 8005854:	0022      	movs	r2, r4
 8005856:	2301      	movs	r3, #1
 8005858:	9901      	ldr	r1, [sp, #4]
 800585a:	9800      	ldr	r0, [sp, #0]
 800585c:	9f08      	ldr	r7, [sp, #32]
 800585e:	321a      	adds	r2, #26
 8005860:	47b8      	blx	r7
 8005862:	3001      	adds	r0, #1
 8005864:	d0e6      	beq.n	8005834 <_printf_common+0xa8>
 8005866:	3601      	adds	r6, #1
 8005868:	e7d1      	b.n	800580e <_printf_common+0x82>
	...

0800586c <_printf_i>:
 800586c:	b5f0      	push	{r4, r5, r6, r7, lr}
 800586e:	b08b      	sub	sp, #44	@ 0x2c
 8005870:	9206      	str	r2, [sp, #24]
 8005872:	000a      	movs	r2, r1
 8005874:	3243      	adds	r2, #67	@ 0x43
 8005876:	9307      	str	r3, [sp, #28]
 8005878:	9005      	str	r0, [sp, #20]
 800587a:	9203      	str	r2, [sp, #12]
 800587c:	7e0a      	ldrb	r2, [r1, #24]
 800587e:	000c      	movs	r4, r1
 8005880:	9b10      	ldr	r3, [sp, #64]	@ 0x40
 8005882:	2a78      	cmp	r2, #120	@ 0x78
 8005884:	d809      	bhi.n	800589a <_printf_i+0x2e>
 8005886:	2a62      	cmp	r2, #98	@ 0x62
 8005888:	d80b      	bhi.n	80058a2 <_printf_i+0x36>
 800588a:	2a00      	cmp	r2, #0
 800588c:	d100      	bne.n	8005890 <_printf_i+0x24>
 800588e:	e0ba      	b.n	8005a06 <_printf_i+0x19a>
 8005890:	497a      	ldr	r1, [pc, #488]	@ (8005a7c <_printf_i+0x210>)
 8005892:	9104      	str	r1, [sp, #16]
 8005894:	2a58      	cmp	r2, #88	@ 0x58
 8005896:	d100      	bne.n	800589a <_printf_i+0x2e>
 8005898:	e08e      	b.n	80059b8 <_printf_i+0x14c>
 800589a:	0025      	movs	r5, r4
 800589c:	3542      	adds	r5, #66	@ 0x42
 800589e:	702a      	strb	r2, [r5, #0]
 80058a0:	e022      	b.n	80058e8 <_printf_i+0x7c>
 80058a2:	0010      	movs	r0, r2
 80058a4:	3863      	subs	r0, #99	@ 0x63
 80058a6:	2815      	cmp	r0, #21
 80058a8:	d8f7      	bhi.n	800589a <_printf_i+0x2e>
 80058aa:	f7fa fc35 	bl	8000118 <__gnu_thumb1_case_shi>
 80058ae:	0016      	.short	0x0016
 80058b0:	fff6001f 	.word	0xfff6001f
 80058b4:	fff6fff6 	.word	0xfff6fff6
 80058b8:	001ffff6 	.word	0x001ffff6
 80058bc:	fff6fff6 	.word	0xfff6fff6
 80058c0:	fff6fff6 	.word	0xfff6fff6
 80058c4:	0036009f 	.word	0x0036009f
 80058c8:	fff6007e 	.word	0xfff6007e
 80058cc:	00b0fff6 	.word	0x00b0fff6
 80058d0:	0036fff6 	.word	0x0036fff6
 80058d4:	fff6fff6 	.word	0xfff6fff6
 80058d8:	0082      	.short	0x0082
 80058da:	0025      	movs	r5, r4
 80058dc:	681a      	ldr	r2, [r3, #0]
 80058de:	3542      	adds	r5, #66	@ 0x42
 80058e0:	1d11      	adds	r1, r2, #4
 80058e2:	6019      	str	r1, [r3, #0]
 80058e4:	6813      	ldr	r3, [r2, #0]
 80058e6:	702b      	strb	r3, [r5, #0]
 80058e8:	2301      	movs	r3, #1
 80058ea:	e09e      	b.n	8005a2a <_printf_i+0x1be>
 80058ec:	6818      	ldr	r0, [r3, #0]
 80058ee:	6809      	ldr	r1, [r1, #0]
 80058f0:	1d02      	adds	r2, r0, #4
 80058f2:	060d      	lsls	r5, r1, #24
 80058f4:	d50b      	bpl.n	800590e <_printf_i+0xa2>
 80058f6:	6806      	ldr	r6, [r0, #0]
 80058f8:	601a      	str	r2, [r3, #0]
 80058fa:	2e00      	cmp	r6, #0
 80058fc:	da03      	bge.n	8005906 <_printf_i+0x9a>
 80058fe:	232d      	movs	r3, #45	@ 0x2d
 8005900:	9a03      	ldr	r2, [sp, #12]
 8005902:	4276      	negs	r6, r6
 8005904:	7013      	strb	r3, [r2, #0]
 8005906:	4b5d      	ldr	r3, [pc, #372]	@ (8005a7c <_printf_i+0x210>)
 8005908:	270a      	movs	r7, #10
 800590a:	9304      	str	r3, [sp, #16]
 800590c:	e018      	b.n	8005940 <_printf_i+0xd4>
 800590e:	6806      	ldr	r6, [r0, #0]
 8005910:	601a      	str	r2, [r3, #0]
 8005912:	0649      	lsls	r1, r1, #25
 8005914:	d5f1      	bpl.n	80058fa <_printf_i+0x8e>
 8005916:	b236      	sxth	r6, r6
 8005918:	e7ef      	b.n	80058fa <_printf_i+0x8e>
 800591a:	6808      	ldr	r0, [r1, #0]
 800591c:	6819      	ldr	r1, [r3, #0]
 800591e:	c940      	ldmia	r1!, {r6}
 8005920:	0605      	lsls	r5, r0, #24
 8005922:	d402      	bmi.n	800592a <_printf_i+0xbe>
 8005924:	0640      	lsls	r0, r0, #25
 8005926:	d500      	bpl.n	800592a <_printf_i+0xbe>
 8005928:	b2b6      	uxth	r6, r6
 800592a:	6019      	str	r1, [r3, #0]
 800592c:	4b53      	ldr	r3, [pc, #332]	@ (8005a7c <_printf_i+0x210>)
 800592e:	270a      	movs	r7, #10
 8005930:	9304      	str	r3, [sp, #16]
 8005932:	2a6f      	cmp	r2, #111	@ 0x6f
 8005934:	d100      	bne.n	8005938 <_printf_i+0xcc>
 8005936:	3f02      	subs	r7, #2
 8005938:	0023      	movs	r3, r4
 800593a:	2200      	movs	r2, #0
 800593c:	3343      	adds	r3, #67	@ 0x43
 800593e:	701a      	strb	r2, [r3, #0]
 8005940:	6863      	ldr	r3, [r4, #4]
 8005942:	60a3      	str	r3, [r4, #8]
 8005944:	2b00      	cmp	r3, #0
 8005946:	db06      	blt.n	8005956 <_printf_i+0xea>
 8005948:	2104      	movs	r1, #4
 800594a:	6822      	ldr	r2, [r4, #0]
 800594c:	9d03      	ldr	r5, [sp, #12]
 800594e:	438a      	bics	r2, r1
 8005950:	6022      	str	r2, [r4, #0]
 8005952:	4333      	orrs	r3, r6
 8005954:	d00c      	beq.n	8005970 <_printf_i+0x104>
 8005956:	9d03      	ldr	r5, [sp, #12]
 8005958:	0030      	movs	r0, r6
 800595a:	0039      	movs	r1, r7
 800595c:	f7fa fc6c 	bl	8000238 <__aeabi_uidivmod>
 8005960:	9b04      	ldr	r3, [sp, #16]
 8005962:	3d01      	subs	r5, #1
 8005964:	5c5b      	ldrb	r3, [r3, r1]
 8005966:	702b      	strb	r3, [r5, #0]
 8005968:	0033      	movs	r3, r6
 800596a:	0006      	movs	r6, r0
 800596c:	429f      	cmp	r7, r3
 800596e:	d9f3      	bls.n	8005958 <_printf_i+0xec>
 8005970:	2f08      	cmp	r7, #8
 8005972:	d109      	bne.n	8005988 <_printf_i+0x11c>
 8005974:	6823      	ldr	r3, [r4, #0]
 8005976:	07db      	lsls	r3, r3, #31
 8005978:	d506      	bpl.n	8005988 <_printf_i+0x11c>
 800597a:	6862      	ldr	r2, [r4, #4]
 800597c:	6923      	ldr	r3, [r4, #16]
 800597e:	429a      	cmp	r2, r3
 8005980:	dc02      	bgt.n	8005988 <_printf_i+0x11c>
 8005982:	2330      	movs	r3, #48	@ 0x30
 8005984:	3d01      	subs	r5, #1
 8005986:	702b      	strb	r3, [r5, #0]
 8005988:	9b03      	ldr	r3, [sp, #12]
 800598a:	1b5b      	subs	r3, r3, r5
 800598c:	6123      	str	r3, [r4, #16]
 800598e:	9b07      	ldr	r3, [sp, #28]
 8005990:	0021      	movs	r1, r4
 8005992:	9300      	str	r3, [sp, #0]
 8005994:	9805      	ldr	r0, [sp, #20]
 8005996:	9b06      	ldr	r3, [sp, #24]
 8005998:	aa09      	add	r2, sp, #36	@ 0x24
 800599a:	f7ff fef7 	bl	800578c <_printf_common>
 800599e:	3001      	adds	r0, #1
 80059a0:	d148      	bne.n	8005a34 <_printf_i+0x1c8>
 80059a2:	2001      	movs	r0, #1
 80059a4:	4240      	negs	r0, r0
 80059a6:	b00b      	add	sp, #44	@ 0x2c
 80059a8:	bdf0      	pop	{r4, r5, r6, r7, pc}
 80059aa:	2220      	movs	r2, #32
 80059ac:	6809      	ldr	r1, [r1, #0]
 80059ae:	430a      	orrs	r2, r1
 80059b0:	6022      	str	r2, [r4, #0]
 80059b2:	2278      	movs	r2, #120	@ 0x78
 80059b4:	4932      	ldr	r1, [pc, #200]	@ (8005a80 <_printf_i+0x214>)
 80059b6:	9104      	str	r1, [sp, #16]
 80059b8:	0021      	movs	r1, r4
 80059ba:	3145      	adds	r1, #69	@ 0x45
 80059bc:	700a      	strb	r2, [r1, #0]
 80059be:	6819      	ldr	r1, [r3, #0]
 80059c0:	6822      	ldr	r2, [r4, #0]
 80059c2:	c940      	ldmia	r1!, {r6}
 80059c4:	0610      	lsls	r0, r2, #24
 80059c6:	d402      	bmi.n	80059ce <_printf_i+0x162>
 80059c8:	0650      	lsls	r0, r2, #25
 80059ca:	d500      	bpl.n	80059ce <_printf_i+0x162>
 80059cc:	b2b6      	uxth	r6, r6
 80059ce:	6019      	str	r1, [r3, #0]
 80059d0:	07d3      	lsls	r3, r2, #31
 80059d2:	d502      	bpl.n	80059da <_printf_i+0x16e>
 80059d4:	2320      	movs	r3, #32
 80059d6:	4313      	orrs	r3, r2
 80059d8:	6023      	str	r3, [r4, #0]
 80059da:	2e00      	cmp	r6, #0
 80059dc:	d001      	beq.n	80059e2 <_printf_i+0x176>
 80059de:	2710      	movs	r7, #16
 80059e0:	e7aa      	b.n	8005938 <_printf_i+0xcc>
 80059e2:	2220      	movs	r2, #32
 80059e4:	6823      	ldr	r3, [r4, #0]
 80059e6:	4393      	bics	r3, r2
 80059e8:	6023      	str	r3, [r4, #0]
 80059ea:	e7f8      	b.n	80059de <_printf_i+0x172>
 80059ec:	681a      	ldr	r2, [r3, #0]
 80059ee:	680d      	ldr	r5, [r1, #0]
 80059f0:	1d10      	adds	r0, r2, #4
 80059f2:	6949      	ldr	r1, [r1, #20]
 80059f4:	6018      	str	r0, [r3, #0]
 80059f6:	6813      	ldr	r3, [r2, #0]
 80059f8:	062e      	lsls	r6, r5, #24
 80059fa:	d501      	bpl.n	8005a00 <_printf_i+0x194>
 80059fc:	6019      	str	r1, [r3, #0]
 80059fe:	e002      	b.n	8005a06 <_printf_i+0x19a>
 8005a00:	066d      	lsls	r5, r5, #25
 8005a02:	d5fb      	bpl.n	80059fc <_printf_i+0x190>
 8005a04:	8019      	strh	r1, [r3, #0]
 8005a06:	2300      	movs	r3, #0
 8005a08:	9d03      	ldr	r5, [sp, #12]
 8005a0a:	6123      	str	r3, [r4, #16]
 8005a0c:	e7bf      	b.n	800598e <_printf_i+0x122>
 8005a0e:	681a      	ldr	r2, [r3, #0]
 8005a10:	1d11      	adds	r1, r2, #4
 8005a12:	6019      	str	r1, [r3, #0]
 8005a14:	6815      	ldr	r5, [r2, #0]
 8005a16:	2100      	movs	r1, #0
 8005a18:	0028      	movs	r0, r5
 8005a1a:	6862      	ldr	r2, [r4, #4]
 8005a1c:	f000 f856 	bl	8005acc <memchr>
 8005a20:	2800      	cmp	r0, #0
 8005a22:	d001      	beq.n	8005a28 <_printf_i+0x1bc>
 8005a24:	1b40      	subs	r0, r0, r5
 8005a26:	6060      	str	r0, [r4, #4]
 8005a28:	6863      	ldr	r3, [r4, #4]
 8005a2a:	6123      	str	r3, [r4, #16]
 8005a2c:	2300      	movs	r3, #0
 8005a2e:	9a03      	ldr	r2, [sp, #12]
 8005a30:	7013      	strb	r3, [r2, #0]
 8005a32:	e7ac      	b.n	800598e <_printf_i+0x122>
 8005a34:	002a      	movs	r2, r5
 8005a36:	6923      	ldr	r3, [r4, #16]
 8005a38:	9906      	ldr	r1, [sp, #24]
 8005a3a:	9805      	ldr	r0, [sp, #20]
 8005a3c:	9d07      	ldr	r5, [sp, #28]
 8005a3e:	47a8      	blx	r5
 8005a40:	3001      	adds	r0, #1
 8005a42:	d0ae      	beq.n	80059a2 <_printf_i+0x136>
 8005a44:	6823      	ldr	r3, [r4, #0]
 8005a46:	079b      	lsls	r3, r3, #30
 8005a48:	d415      	bmi.n	8005a76 <_printf_i+0x20a>
 8005a4a:	9b09      	ldr	r3, [sp, #36]	@ 0x24
 8005a4c:	68e0      	ldr	r0, [r4, #12]
 8005a4e:	4298      	cmp	r0, r3
 8005a50:	daa9      	bge.n	80059a6 <_printf_i+0x13a>
 8005a52:	0018      	movs	r0, r3
 8005a54:	e7a7      	b.n	80059a6 <_printf_i+0x13a>
 8005a56:	0022      	movs	r2, r4
 8005a58:	2301      	movs	r3, #1
 8005a5a:	9906      	ldr	r1, [sp, #24]
 8005a5c:	9805      	ldr	r0, [sp, #20]
 8005a5e:	9e07      	ldr	r6, [sp, #28]
 8005a60:	3219      	adds	r2, #25
 8005a62:	47b0      	blx	r6
 8005a64:	3001      	adds	r0, #1
 8005a66:	d09c      	beq.n	80059a2 <_printf_i+0x136>
 8005a68:	3501      	adds	r5, #1
 8005a6a:	68e3      	ldr	r3, [r4, #12]
 8005a6c:	9a09      	ldr	r2, [sp, #36]	@ 0x24
 8005a6e:	1a9b      	subs	r3, r3, r2
 8005a70:	42ab      	cmp	r3, r5
 8005a72:	dcf0      	bgt.n	8005a56 <_printf_i+0x1ea>
 8005a74:	e7e9      	b.n	8005a4a <_printf_i+0x1de>
 8005a76:	2500      	movs	r5, #0
 8005a78:	e7f7      	b.n	8005a6a <_printf_i+0x1fe>
 8005a7a:	46c0      	nop			@ (mov r8, r8)
 8005a7c:	08005e29 	.word	0x08005e29
 8005a80:	08005e3a 	.word	0x08005e3a

08005a84 <memmove>:
 8005a84:	b510      	push	{r4, lr}
 8005a86:	4288      	cmp	r0, r1
 8005a88:	d902      	bls.n	8005a90 <memmove+0xc>
 8005a8a:	188b      	adds	r3, r1, r2
 8005a8c:	4298      	cmp	r0, r3
 8005a8e:	d308      	bcc.n	8005aa2 <memmove+0x1e>
 8005a90:	2300      	movs	r3, #0
 8005a92:	429a      	cmp	r2, r3
 8005a94:	d007      	beq.n	8005aa6 <memmove+0x22>
 8005a96:	5ccc      	ldrb	r4, [r1, r3]
 8005a98:	54c4      	strb	r4, [r0, r3]
 8005a9a:	3301      	adds	r3, #1
 8005a9c:	e7f9      	b.n	8005a92 <memmove+0xe>
 8005a9e:	5c8b      	ldrb	r3, [r1, r2]
 8005aa0:	5483      	strb	r3, [r0, r2]
 8005aa2:	3a01      	subs	r2, #1
 8005aa4:	d2fb      	bcs.n	8005a9e <memmove+0x1a>
 8005aa6:	bd10      	pop	{r4, pc}

08005aa8 <_sbrk_r>:
 8005aa8:	2300      	movs	r3, #0
 8005aaa:	b570      	push	{r4, r5, r6, lr}
 8005aac:	4d06      	ldr	r5, [pc, #24]	@ (8005ac8 <_sbrk_r+0x20>)
 8005aae:	0004      	movs	r4, r0
 8005ab0:	0008      	movs	r0, r1
 8005ab2:	602b      	str	r3, [r5, #0]
 8005ab4:	f7fc f970 	bl	8001d98 <_sbrk>
 8005ab8:	1c43      	adds	r3, r0, #1
 8005aba:	d103      	bne.n	8005ac4 <_sbrk_r+0x1c>
 8005abc:	682b      	ldr	r3, [r5, #0]
 8005abe:	2b00      	cmp	r3, #0
 8005ac0:	d000      	beq.n	8005ac4 <_sbrk_r+0x1c>
 8005ac2:	6023      	str	r3, [r4, #0]
 8005ac4:	bd70      	pop	{r4, r5, r6, pc}
 8005ac6:	46c0      	nop			@ (mov r8, r8)
 8005ac8:	200003d8 	.word	0x200003d8

08005acc <memchr>:
 8005acc:	b2c9      	uxtb	r1, r1
 8005ace:	1882      	adds	r2, r0, r2
 8005ad0:	4290      	cmp	r0, r2
 8005ad2:	d101      	bne.n	8005ad8 <memchr+0xc>
 8005ad4:	2000      	movs	r0, #0
 8005ad6:	4770      	bx	lr
 8005ad8:	7803      	ldrb	r3, [r0, #0]
 8005ada:	428b      	cmp	r3, r1
 8005adc:	d0fb      	beq.n	8005ad6 <memchr+0xa>
 8005ade:	3001      	adds	r0, #1
 8005ae0:	e7f6      	b.n	8005ad0 <memchr+0x4>

08005ae2 <memcpy>:
 8005ae2:	2300      	movs	r3, #0
 8005ae4:	b510      	push	{r4, lr}
 8005ae6:	429a      	cmp	r2, r3
 8005ae8:	d100      	bne.n	8005aec <memcpy+0xa>
 8005aea:	bd10      	pop	{r4, pc}
 8005aec:	5ccc      	ldrb	r4, [r1, r3]
 8005aee:	54c4      	strb	r4, [r0, r3]
 8005af0:	3301      	adds	r3, #1
 8005af2:	e7f8      	b.n	8005ae6 <memcpy+0x4>

08005af4 <_realloc_r>:
 8005af4:	b5f7      	push	{r0, r1, r2, r4, r5, r6, r7, lr}
 8005af6:	0006      	movs	r6, r0
 8005af8:	000c      	movs	r4, r1
 8005afa:	0015      	movs	r5, r2
 8005afc:	2900      	cmp	r1, #0
 8005afe:	d105      	bne.n	8005b0c <_realloc_r+0x18>
 8005b00:	0011      	movs	r1, r2
 8005b02:	f7ff fc55 	bl	80053b0 <_malloc_r>
 8005b06:	0004      	movs	r4, r0
 8005b08:	0020      	movs	r0, r4
 8005b0a:	bdfe      	pop	{r1, r2, r3, r4, r5, r6, r7, pc}
 8005b0c:	2a00      	cmp	r2, #0
 8005b0e:	d103      	bne.n	8005b18 <_realloc_r+0x24>
 8005b10:	f7ff fbe2 	bl	80052d8 <_free_r>
 8005b14:	002c      	movs	r4, r5
 8005b16:	e7f7      	b.n	8005b08 <_realloc_r+0x14>
 8005b18:	f000 f81c 	bl	8005b54 <_malloc_usable_size_r>
 8005b1c:	0007      	movs	r7, r0
 8005b1e:	4285      	cmp	r5, r0
 8005b20:	d802      	bhi.n	8005b28 <_realloc_r+0x34>
 8005b22:	0843      	lsrs	r3, r0, #1
 8005b24:	42ab      	cmp	r3, r5
 8005b26:	d3ef      	bcc.n	8005b08 <_realloc_r+0x14>
 8005b28:	0029      	movs	r1, r5
 8005b2a:	0030      	movs	r0, r6
 8005b2c:	f7ff fc40 	bl	80053b0 <_malloc_r>
 8005b30:	9001      	str	r0, [sp, #4]
 8005b32:	2800      	cmp	r0, #0
 8005b34:	d101      	bne.n	8005b3a <_realloc_r+0x46>
 8005b36:	9c01      	ldr	r4, [sp, #4]
 8005b38:	e7e6      	b.n	8005b08 <_realloc_r+0x14>
 8005b3a:	002a      	movs	r2, r5
 8005b3c:	42bd      	cmp	r5, r7
 8005b3e:	d900      	bls.n	8005b42 <_realloc_r+0x4e>
 8005b40:	003a      	movs	r2, r7
 8005b42:	0021      	movs	r1, r4
 8005b44:	9801      	ldr	r0, [sp, #4]
 8005b46:	f7ff ffcc 	bl	8005ae2 <memcpy>
 8005b4a:	0021      	movs	r1, r4
 8005b4c:	0030      	movs	r0, r6
 8005b4e:	f7ff fbc3 	bl	80052d8 <_free_r>
 8005b52:	e7f0      	b.n	8005b36 <_realloc_r+0x42>

08005b54 <_malloc_usable_size_r>:
 8005b54:	1f0b      	subs	r3, r1, #4
 8005b56:	681b      	ldr	r3, [r3, #0]
 8005b58:	1f18      	subs	r0, r3, #4
 8005b5a:	2b00      	cmp	r3, #0
 8005b5c:	da01      	bge.n	8005b62 <_malloc_usable_size_r+0xe>
 8005b5e:	580b      	ldr	r3, [r1, r0]
 8005b60:	18c0      	adds	r0, r0, r3
 8005b62:	4770      	bx	lr

08005b64 <_init>:
 8005b64:	b5f8      	push	{r3, r4, r5, r6, r7, lr}
 8005b66:	46c0      	nop			@ (mov r8, r8)
 8005b68:	bcf8      	pop	{r3, r4, r5, r6, r7}
 8005b6a:	bc08      	pop	{r3}
 8005b6c:	469e      	mov	lr, r3
 8005b6e:	4770      	bx	lr

08005b70 <_fini>:
 8005b70:	b5f8      	push	{r3, r4, r5, r6, r7, lr}
 8005b72:	46c0      	nop			@ (mov r8, r8)
 8005b74:	bcf8      	pop	{r3, r4, r5, r6, r7}
 8005b76:	bc08      	pop	{r3}
 8005b78:	469e      	mov	lr, r3
 8005b7a:	4770      	bx	lr
